
========================================================================

** ELF Header Information

    File Name: .\Objects\t-win_EADC_HSUSBD_Mass_Storage.axf

    Machine class: ELFCLASS32 (32-bit)
    Data encoding: ELFDATA2LSB (Little endian)
    Header version: EV_CURRENT (Current version)
    Operating System ABI: none
    ABI Version: 0
    File Type: ET_EXEC (Executable) (2)
    Machine: EM_ARM (ARM)

    Image Entry point: 0x000001b9
    Flags: EF_ARM_HASENTRY + EF_ARM_ABI_FLOAT_HARD (0x05000402)

    ARM ELF revision: 5 (ABI version 2)

    Conforms to Hard float procedure-call standard

    Built with
    Component: ARM Compiler 5.06 update 6 (build 750) Tool: armasm [4d35ec]
    Component: ARM Compiler 5.06 update 6 (build 750) Tool: armlink [4d35ed]

    Header size: 52 bytes (0x34)
    Program header entry size: 32 bytes (0x20)
    Section header entry size: 40 bytes (0x28)

    Program header entries: 1
    Section header entries: 16

    Program header offset: 364964 (0x000591a4)
    Section header offset: 364996 (0x000591c4)

    Section header string table index: 15

========================================================================

** Program header #0 (PT_LOAD) [PF_X + PF_W + PF_R + PF_ARM_ENTRY]
    Size : 43396 bytes (14184 bytes in file)
    Virtual address: 0x00000000 (Alignment 8)


========================================================================

** Section #1 'ER_IROM1' (SHT_PROGBITS) [SHF_ALLOC + SHF_EXECINSTR]
    Size   : 13892 bytes (alignment 4)
    Address: 0x00000000

    $d.realdata
    RESET
    __Vectors
        0x00000000:    20000c20     ..     DCD    536874016
        0x00000004:    000002f5    ....    DCD    757
        0x00000008:    00000335    5...    DCD    821
        0x0000000c:    000002a1    ....    DCD    673
        0x00000010:    00000339    9...    DCD    825
        0x00000014:    0000033b    ;...    DCD    827
        0x00000018:    0000033d    =...    DCD    829
        0x0000001c:    00000000    ....    DCD    0
        0x00000020:    00000000    ....    DCD    0
        0x00000024:    00000000    ....    DCD    0
        0x00000028:    00000000    ....    DCD    0
        0x0000002c:    0000033f    ?...    DCD    831
        0x00000030:    00000341    A...    DCD    833
        0x00000034:    00000000    ....    DCD    0
        0x00000038:    00000343    C...    DCD    835
        0x0000003c:    00000345    E...    DCD    837
        0x00000040:    00000347    G...    DCD    839
        0x00000044:    00000347    G...    DCD    839
        0x00000048:    00000347    G...    DCD    839
        0x0000004c:    00000347    G...    DCD    839
        0x00000050:    00000347    G...    DCD    839
        0x00000054:    00000347    G...    DCD    839
        0x00000058:    00000347    G...    DCD    839
        0x0000005c:    00000347    G...    DCD    839
        0x00000060:    00000347    G...    DCD    839
        0x00000064:    00000347    G...    DCD    839
        0x00000068:    00000347    G...    DCD    839
        0x0000006c:    00000347    G...    DCD    839
        0x00000070:    00000347    G...    DCD    839
        0x00000074:    00000347    G...    DCD    839
        0x00000078:    00000347    G...    DCD    839
        0x0000007c:    00000347    G...    DCD    839
        0x00000080:    00000347    G...    DCD    839
        0x00000084:    00000347    G...    DCD    839
        0x00000088:    00000347    G...    DCD    839
        0x0000008c:    00000347    G...    DCD    839
        0x00000090:    00000347    G...    DCD    839
        0x00000094:    00000347    G...    DCD    839
        0x00000098:    00000347    G...    DCD    839
        0x0000009c:    00000347    G...    DCD    839
        0x000000a0:    00000347    G...    DCD    839
        0x000000a4:    00000347    G...    DCD    839
        0x000000a8:    00000347    G...    DCD    839
        0x000000ac:    00000347    G...    DCD    839
        0x000000b0:    00000347    G...    DCD    839
        0x000000b4:    00000347    G...    DCD    839
        0x000000b8:    00000347    G...    DCD    839
        0x000000bc:    00000347    G...    DCD    839
        0x000000c0:    00000347    G...    DCD    839
        0x000000c4:    00000347    G...    DCD    839
        0x000000c8:    00000347    G...    DCD    839
        0x000000cc:    00000347    G...    DCD    839
        0x000000d0:    00000347    G...    DCD    839
        0x000000d4:    00000347    G...    DCD    839
        0x000000d8:    00000347    G...    DCD    839
        0x000000dc:    00000347    G...    DCD    839
        0x000000e0:    000022b9    ."..    DCD    8889
        0x000000e4:    00000347    G...    DCD    839
        0x000000e8:    00000765    e...    DCD    1893
        0x000000ec:    00000347    G...    DCD    839
        0x000000f0:    00000347    G...    DCD    839
        0x000000f4:    00000347    G...    DCD    839
        0x000000f8:    00000347    G...    DCD    839
        0x000000fc:    00000347    G...    DCD    839
        0x00000100:    00000347    G...    DCD    839
        0x00000104:    00000347    G...    DCD    839
        0x00000108:    00000347    G...    DCD    839
        0x0000010c:    00000347    G...    DCD    839
        0x00000110:    00000347    G...    DCD    839
        0x00000114:    00000347    G...    DCD    839
        0x00000118:    00000347    G...    DCD    839
        0x0000011c:    00000347    G...    DCD    839
        0x00000120:    00000347    G...    DCD    839
        0x00000124:    00000347    G...    DCD    839
        0x00000128:    00000347    G...    DCD    839
        0x0000012c:    00000347    G...    DCD    839
        0x00000130:    00000347    G...    DCD    839
        0x00000134:    00000347    G...    DCD    839
        0x00000138:    00000347    G...    DCD    839
        0x0000013c:    00000347    G...    DCD    839
        0x00000140:    00000347    G...    DCD    839
        0x00000144:    00002a05    .*..    DCD    10757
        0x00000148:    00000347    G...    DCD    839
        0x0000014c:    00000347    G...    DCD    839
        0x00000150:    00000347    G...    DCD    839
        0x00000154:    00000347    G...    DCD    839
        0x00000158:    00000347    G...    DCD    839
        0x0000015c:    00000347    G...    DCD    839
        0x00000160:    00000347    G...    DCD    839
        0x00000164:    00000347    G...    DCD    839
        0x00000168:    00000347    G...    DCD    839
        0x0000016c:    00000347    G...    DCD    839
        0x00000170:    00000347    G...    DCD    839
        0x00000174:    00000347    G...    DCD    839
        0x00000178:    00000347    G...    DCD    839
        0x0000017c:    00000347    G...    DCD    839
        0x00000180:    00000347    G...    DCD    839
        0x00000184:    00000347    G...    DCD    839
        0x00000188:    00000347    G...    DCD    839
        0x0000018c:    00000347    G...    DCD    839
        0x00000190:    00000347    G...    DCD    839
        0x00000194:    00000347    G...    DCD    839
        0x00000198:    00000347    G...    DCD    839
        0x0000019c:    00000347    G...    DCD    839
        0x000001a0:    00000347    G...    DCD    839
        0x000001a4:    00000347    G...    DCD    839
        0x000001a8:    00000347    G...    DCD    839
        0x000001ac:    00000347    G...    DCD    839
        0x000001b0:    00000347    G...    DCD    839
        0x000001b4:    00000347    G...    DCD    839
    $t
    !!!main
    __Vectors_End
    __main
        0x000001b8:    f000f802    ....    BL       __scatterload ; 0x1c0
        0x000001bc:    f000f861    ..a.    BL       __rt_entry ; 0x282
    !!!scatter
    __scatterload
    __scatterload_rt2
    __scatterload_rt2_thumb_only
        0x000001c0:    a00a        ..      ADR      r0,{pc}+0x2c ; 0x1ec
        0x000001c2:    e8900c00    ....    LDM      r0,{r10,r11}
        0x000001c6:    4482        .D      ADD      r10,r10,r0
        0x000001c8:    4483        .D      ADD      r11,r11,r0
        0x000001ca:    f1aa0701    ....    SUB      r7,r10,#1
    __scatterload_null
        0x000001ce:    45da        .E      CMP      r10,r11
        0x000001d0:    d101        ..      BNE      0x1d6 ; __scatterload_null + 8
        0x000001d2:    f000f856    ..V.    BL       __rt_entry ; 0x282
        0x000001d6:    f2af0e09    ....    ADR      lr,{pc}-7 ; 0x1cf
        0x000001da:    e8ba000f    ....    LDM      r10!,{r0-r3}
        0x000001de:    f0130f01    ....    TST      r3,#1
        0x000001e2:    bf18        ..      IT       NE
        0x000001e4:    1afb        ..      SUBNE    r3,r7,r3
        0x000001e6:    f0430301    C...    ORR      r3,r3,#1
        0x000001ea:    4718        .G      BX       r3
    $d
        0x000001ec:    00003438    84..    DCD    13368
        0x000001f0:    00003458    X4..    DCD    13400
    $t
    !!dczerorl2
    __decompress
    __decompress1
        0x000001f4:    440a        .D      ADD      r2,r2,r1
        0x000001f6:    f04f0c00    O...    MOV      r12,#0
        0x000001fa:    f8103b01    ...;    LDRB     r3,[r0],#1
        0x000001fe:    f0130407    ....    ANDS     r4,r3,#7
        0x00000202:    bf08        ..      IT       EQ
        0x00000204:    f8104b01    ...K    LDRBEQ   r4,[r0],#1
        0x00000208:    111d        ..      ASRS     r5,r3,#4
        0x0000020a:    bf08        ..      IT       EQ
        0x0000020c:    f8105b01    ...[    LDRBEQ   r5,[r0],#1
        0x00000210:    1e64        d.      SUBS     r4,r4,#1
        0x00000212:    d005        ..      BEQ      0x220 ; __decompress + 44
        0x00000214:    f8106b01    ...k    LDRB     r6,[r0],#1
        0x00000218:    1e64        d.      SUBS     r4,r4,#1
        0x0000021a:    f8016b01    ...k    STRB     r6,[r1],#1
        0x0000021e:    d1f9        ..      BNE      0x214 ; __decompress + 32
        0x00000220:    f0130f08    ....    TST      r3,#8
        0x00000224:    bf1e        ..      ITTT     NE
        0x00000226:    f8104b01    ...K    LDRBNE   r4,[r0],#1
        0x0000022a:    1cad        ..      ADDNE    r5,r5,#2
        0x0000022c:    1b0c        ..      SUBNE    r4,r1,r4
        0x0000022e:    d109        ..      BNE      0x244 ; __decompress + 80
        0x00000230:    1e6d        m.      SUBS     r5,r5,#1
        0x00000232:    bf58        X.      IT       PL
        0x00000234:    f801cb01    ....    STRBPL   r12,[r1],#1
        0x00000238:    d5fa        ..      BPL      0x230 ; __decompress + 60
        0x0000023a:    e005        ..      B        0x248 ; __decompress + 84
        0x0000023c:    f8146b01    ...k    LDRB     r6,[r4],#1
        0x00000240:    f8016b01    ...k    STRB     r6,[r1],#1
        0x00000244:    1e6d        m.      SUBS     r5,r5,#1
        0x00000246:    d5f9        ..      BPL      0x23c ; __decompress + 72
        0x00000248:    4291        .B      CMP      r1,r2
        0x0000024a:    d3d6        ..      BCC      0x1fa ; __decompress + 6
        0x0000024c:    4770        pG      BX       lr
        0x0000024e:    0000        ..      MOVS     r0,r0
    !!handler_zi
    __scatterload_zeroinit
        0x00000250:    2300        .#      MOVS     r3,#0
        0x00000252:    2400        .$      MOVS     r4,#0
        0x00000254:    2500        .%      MOVS     r5,#0
        0x00000256:    2600        .&      MOVS     r6,#0
        0x00000258:    3a10        .:      SUBS     r2,r2,#0x10
        0x0000025a:    bf28        (.      IT       CS
        0x0000025c:    c178        x.      STMCS    r1!,{r3-r6}
        0x0000025e:    d8fb        ..      BHI      0x258 ; __scatterload_zeroinit + 8
        0x00000260:    0752        R.      LSLS     r2,r2,#29
        0x00000262:    bf28        (.      IT       CS
        0x00000264:    c130        0.      STMCS    r1!,{r4,r5}
        0x00000266:    bf48        H.      IT       MI
        0x00000268:    600b        .`      STRMI    r3,[r1,#0]
        0x0000026a:    4770        pG      BX       lr
    .ARM.Collect$$_printf_percent$$0000000C
    .ARM.Collect$$_printf_percent$$00000000
    _printf_percent
    _printf_x
        0x0000026c:    2978        x)      CMP      r1,#0x78
        0x0000026e:    f000808f    ....    BEQ.W    _printf_int_hex ; 0x390
    .ARM.Collect$$_printf_percent$$00000017
    _printf_percent_end
        0x00000272:    2000        .       MOVS     r0,#0
        0x00000274:    4770        pG      BX       lr
    .ARM.Collect$$libinit$$00000000
    __rt_lib_init
        0x00000276:    b51f        ..      PUSH     {r0-r4,lr}
    .ARM.Collect$$libinit$$00000001
    __rt_lib_init_fp_1
        0x00000278:    f003f86a    ..j.    BL       _fp_init ; 0x3350
    .ARM.Collect$$libinit$$00000004
    .ARM.Collect$$libinit$$0000000A
    .ARM.Collect$$libinit$$0000000C
    .ARM.Collect$$libinit$$0000000E
    .ARM.Collect$$libinit$$00000011
    .ARM.Collect$$libinit$$00000013
    .ARM.Collect$$libinit$$00000015
    .ARM.Collect$$libinit$$00000017
    .ARM.Collect$$libinit$$00000019
    .ARM.Collect$$libinit$$0000001B
    .ARM.Collect$$libinit$$0000001D
    .ARM.Collect$$libinit$$0000001F
    .ARM.Collect$$libinit$$00000021
    .ARM.Collect$$libinit$$00000023
    .ARM.Collect$$libinit$$00000025
    .ARM.Collect$$libinit$$0000002C
    .ARM.Collect$$libinit$$0000002E
    .ARM.Collect$$libinit$$00000030
    .ARM.Collect$$libinit$$00000032
    .ARM.Collect$$libinit$$00000033
    __rt_lib_init_alloca_1
    __rt_lib_init_argv_1
    __rt_lib_init_atexit_1
    __rt_lib_init_clock_1
    __rt_lib_init_cpp_1
    __rt_lib_init_exceptions_1
    __rt_lib_init_fp_trap_1
    __rt_lib_init_getenv_1
    __rt_lib_init_heap_1
    __rt_lib_init_lc_collate_1
    __rt_lib_init_lc_ctype_1
    __rt_lib_init_lc_monetary_1
    __rt_lib_init_lc_numeric_1
    __rt_lib_init_lc_time_1
    __rt_lib_init_preinit_1
    __rt_lib_init_rand_1
    __rt_lib_init_return
    __rt_lib_init_signal_1
    __rt_lib_init_stdio_1
    __rt_lib_init_user_alloc_1
        0x0000027c:    bd1f        ..      POP      {r0-r4,pc}
    .ARM.Collect$$libshutdown$$00000000
    __rt_lib_shutdown
        0x0000027e:    b510        ..      PUSH     {r4,lr}
    .ARM.Collect$$libshutdown$$00000002
    .ARM.Collect$$libshutdown$$00000004
    .ARM.Collect$$libshutdown$$00000007
    .ARM.Collect$$libshutdown$$0000000A
    .ARM.Collect$$libshutdown$$0000000C
    .ARM.Collect$$libshutdown$$0000000F
    .ARM.Collect$$libshutdown$$00000010
    __rt_lib_shutdown_cpp_1
    __rt_lib_shutdown_fp_trap_1
    __rt_lib_shutdown_heap_1
    __rt_lib_shutdown_return
    __rt_lib_shutdown_signal_1
    __rt_lib_shutdown_stdio_1
    __rt_lib_shutdown_user_alloc_1
        0x00000280:    bd10        ..      POP      {r4,pc}
    .ARM.Collect$$rtentry$$00000000
    .ARM.Collect$$rtentry$$00000002
    .ARM.Collect$$rtentry$$00000004
    __rt_entry
    __rt_entry_presh_1
    __rt_entry_sh
        0x00000282:    f000fa3d    ..=.    BL       __user_setup_stackheap ; 0x700
        0x00000286:    4611        .F      MOV      r1,r2
    .ARM.Collect$$rtentry$$00000009
    .ARM.Collect$$rtentry$$0000000A
    __rt_entry_li
    __rt_entry_postsh_1
        0x00000288:    f7fffff5    ....    BL       __rt_lib_init ; 0x276
    .ARM.Collect$$rtentry$$0000000C
    .ARM.Collect$$rtentry$$0000000D
    __rt_entry_main
    __rt_entry_postli_1
        0x0000028c:    f002fec6    ....    BL       main ; 0x301c
        0x00000290:    f000fa5b    ..[.    BL       exit ; 0x74a
    .ARM.Collect$$rtexit$$00000000
    __rt_exit
        0x00000294:    b403        ..      PUSH     {r0,r1}
    .ARM.Collect$$rtexit$$00000002
    .ARM.Collect$$rtexit$$00000003
    __rt_exit_ls
    __rt_exit_prels_1
        0x00000296:    f7fffff2    ....    BL       __rt_lib_shutdown ; 0x27e
    .ARM.Collect$$rtexit$$00000004
    __rt_exit_exit
        0x0000029a:    bc03        ..      POP      {r0,r1}
        0x0000029c:    f002fdee    ....    BL       _sys_exit ; 0x2e7c
    .emb_text
    $v0
    HardFault_Handler
        0x000002a0:    4670        pF      MOV      r0,lr
        0x000002a2:    0740        @.      LSLS     r0,r0,#29
        0x000002a4:    d402        ..      BMI      0x2ac ; HardFault_Handler + 12
        0x000002a6:    f3ef8008    ....    MRS      r0,MSP
        0x000002aa:    e001        ..      B        0x2b0 ; HardFault_Handler + 16
        0x000002ac:    f3ef8009    ....    MRS      r0,PSP
        0x000002b0:    6981        .i      LDR      r1,[r0,#0x18]
        0x000002b2:    880b        ..      LDRH     r3,[r1,#0]
        0x000002b4:    f64b62ab    K..b    MOV      r2,#0xbeab
        0x000002b8:    4293        .B      CMP      r3,r2
        0x000002ba:    d102        ..      BNE      0x2c2 ; HardFault_Handler + 34
        0x000002bc:    3104        .1      ADDS     r1,#4
        0x000002be:    6181        .a      STR      r1,[r0,#0x18]
        0x000002c0:    4770        pG      BX       lr
        0x000002c2:    2004        .       MOVS     r0,#4
        0x000002c4:    4671        qF      MOV      r1,lr
        0x000002c6:    4208        .B      TST      r0,r1
        0x000002c8:    d002        ..      BEQ      0x2d0 ; HardFault_Handler + 48
        0x000002ca:    f3ef8009    ....    MRS      r0,PSP
        0x000002ce:    e001        ..      B        0x2d4 ; HardFault_Handler + 52
        0x000002d0:    f3ef8008    ....    MRS      r0,MSP
        0x000002d4:    4671        qF      MOV      r1,lr
        0x000002d6:    4a01        .J      LDR      r2,[pc,#4] ; [0x2dc] = 0x182d
        0x000002d8:    4710        .G      BX       r2
        0x000002da:    e7fe        ..      B        0x2da ; HardFault_Handler + 58
    $d
        0x000002dc:    0000182d    -...    DCD    6189
    $t
    SH_DoCommand
        0x000002e0:    beab        ..      BKPT     #0xab
        0x000002e2:    e001        ..      B        0x2e8 ; SH_DoCommand + 8
        0x000002e4:    2000        .       MOVS     r0,#0
        0x000002e6:    4770        pG      BX       lr
        0x000002e8:    2a00        .*      CMP      r2,#0
        0x000002ea:    d000        ..      BEQ      0x2ee ; SH_DoCommand + 14
        0x000002ec:    6010        .`      STR      r0,[r2,#0]
        0x000002ee:    2001        .       MOVS     r0,#1
        0x000002f0:    4770        pG      BX       lr
        0x000002f2:    0000        ..      MOVS     r0,r0
    .text
    $v0
    Reset_Handler
        0x000002f4:    4817        .H      LDR      r0,[pc,#92] ; [0x354] = 0x40000100
        0x000002f6:    f04f0159    O.Y.    MOV      r1,#0x59
        0x000002fa:    6001        .`      STR      r1,[r0,#0]
        0x000002fc:    f04f0116    O...    MOV      r1,#0x16
        0x00000300:    6001        .`      STR      r1,[r0,#0]
        0x00000302:    f04f0188    O...    MOV      r1,#0x88
        0x00000306:    6001        .`      STR      r1,[r0,#0]
        0x00000308:    4813        .H      LDR      r0,[pc,#76] ; [0x358] = 0x40000200
        0x0000030a:    6841        Ah      LDR      r1,[r0,#4]
        0x0000030c:    f4414180    A..A    ORR      r1,r1,#0x4000
        0x00000310:    6041        A`      STR      r1,[r0,#4]
        0x00000312:    4812        .H      LDR      r0,[pc,#72] ; [0x35c] = 0x40007000
        0x00000314:    6841        Ah      LDR      r1,[r0,#4]
        0x00000316:    f0410102    A...    ORR      r1,r1,#2
        0x0000031a:    6041        A`      STR      r1,[r0,#4]
        0x0000031c:    6841        Ah      LDR      r1,[r0,#4]
        0x0000031e:    f0410104    A...    ORR      r1,r1,#4
        0x00000322:    6041        A`      STR      r1,[r0,#4]
        0x00000324:    480e        .H      LDR      r0,[pc,#56] ; [0x360] = 0x2831
        0x00000326:    4780        .G      BLX      r0
        0x00000328:    480a        .H      LDR      r0,[pc,#40] ; [0x354] = 0x40000100
        0x0000032a:    f04f0100    O...    MOV      r1,#0
        0x0000032e:    6001        .`      STR      r1,[r0,#0]
        0x00000330:    480c        .H      LDR      r0,[pc,#48] ; [0x364] = 0x1b9
        0x00000332:    4700        .G      BX       r0
    NMI_Handler
        0x00000334:    e7fe        ..      B        NMI_Handler ; 0x334
        0x00000336:    e7fe        ..      B        0x336 ; NMI_Handler + 2
    MemManage_Handler
        0x00000338:    e7fe        ..      B        MemManage_Handler ; 0x338
    BusFault_Handler
        0x0000033a:    e7fe        ..      B        BusFault_Handler ; 0x33a
    UsageFault_Handler
        0x0000033c:    e7fe        ..      B        UsageFault_Handler ; 0x33c
    SVC_Handler
        0x0000033e:    e7fe        ..      B        SVC_Handler ; 0x33e
    DebugMon_Handler
        0x00000340:    e7fe        ..      B        DebugMon_Handler ; 0x340
    PendSV_Handler
        0x00000342:    e7fe        ..      B        PendSV_Handler ; 0x342
    SysTick_Handler
        0x00000344:    e7fe        ..      B        SysTick_Handler ; 0x344
    Default_Handler
    ACMP01_IRQHandler
    ADC01_IRQHandler
    ADC02_IRQHandler
    ADC03_IRQHandler
    BOD_IRQHandler
    BPWM0_IRQHandler
    BPWM1_IRQHandler
    BRAKE0_IRQHandler
    BRAKE1_IRQHandler
    CAN0_IRQHandler
    CAN1_IRQHandler
    CKFAIL_IRQHandler
    CRYPTO_IRQHandler
    DAC_IRQHandler
    ECAP0_IRQHandler
    ECAP1_IRQHandler
    EHCI_IRQHandler
    EINT0_IRQHandler
    EINT1_IRQHandler
    EINT2_IRQHandler
    EINT3_IRQHandler
    EINT4_IRQHandler
    EINT5_IRQHandler
    EINT6_IRQHandler
    EINT7_IRQHandler
    EMAC_RX_IRQHandler
    EMAC_TX_IRQHandler
    EPWM0P0_IRQHandler
    EPWM0P1_IRQHandler
    EPWM0P2_IRQHandler
    EPWM1P0_IRQHandler
    EPWM1P1_IRQHandler
    EPWM1P2_IRQHandler
    GPA_IRQHandler
    GPB_IRQHandler
    GPC_IRQHandler
    GPD_IRQHandler
    GPE_IRQHandler
    GPF_IRQHandler
    GPG_IRQHandler
    GPH_IRQHandler
    I2C0_IRQHandler
    I2C1_IRQHandler
    I2C2_IRQHandler
    I2S0_IRQHandler
    IRC_IRQHandler
    OHCI_IRQHandler
    OPA0_IRQHandler
    PWRWU_IRQHandler
    QEI0_IRQHandler
    QEI1_IRQHandler
    QSPI0_IRQHandler
    RAMPE_IRQHandler
    RTC_IRQHandler
    SC0_IRQHandler
    SC1_IRQHandler
    SC2_IRQHandler
    SDH0_IRQHandler
    SDH1_IRQHandler
    SPI0_IRQHandler
    SPI1_IRQHandler
    SPI2_IRQHandler
    SPI3_IRQHandler
    SPIM_IRQHandler
    TAMPER_IRQHandler
    TMR0_IRQHandler
    TMR1_IRQHandler
    TMR2_IRQHandler
    TMR3_IRQHandler
    UART0_IRQHandler
    UART1_IRQHandler
    UART2_IRQHandler
    UART3_IRQHandler
    UART4_IRQHandler
    UART5_IRQHandler
    USBD_IRQHandler
    USBOTG20_IRQHandler
    USBOTG_IRQHandler
    USCI0_IRQHandler
    USCI1_IRQHandler
    WDT_IRQHandler
    WWDT_IRQHandler
        0x00000346:    e7fe        ..      B        Default_Handler ; 0x346
    __user_initial_stackheap
        0x00000348:    4807        .H      LDR      r0,[pc,#28] ; [0x368] = 0x20000320
        0x0000034a:    4908        .I      LDR      r1,[pc,#32] ; [0x36c] = 0x20000c20
        0x0000034c:    4a08        .J      LDR      r2,[pc,#32] ; [0x370] = 0x20000420
        0x0000034e:    4b09        .K      LDR      r3,[pc,#36] ; [0x374] = 0x20000420
        0x00000350:    4770        pG      BX       lr
    $d
        0x00000352:    0000        ..      DCW    0
        0x00000354:    40000100    ...@    DCD    1073742080
        0x00000358:    40000200    ...@    DCD    1073742336
        0x0000035c:    40007000    .p.@    DCD    1073770496
        0x00000360:    00002831    1(..    DCD    10289
        0x00000364:    000001b9    ....    DCD    441
        0x00000368:    20000320     ..     DCD    536871712
        0x0000036c:    20000c20     ..     DCD    536874016
        0x00000370:    20000420     ..     DCD    536871968
        0x00000374:    20000420     ..     DCD    536871968
    $t
    .text
    __2printf
        0x00000378:    b40f        ..      PUSH     {r0-r3}
        0x0000037a:    4904        .I      LDR      r1,[pc,#16] ; [0x38c] = 0x20000208
        0x0000037c:    b510        ..      PUSH     {r4,lr}
        0x0000037e:    aa03        ..      ADD      r2,sp,#0xc
        0x00000380:    9802        ..      LDR      r0,[sp,#8]
        0x00000382:    f000f98f    ....    BL       _printf_char_file ; 0x6a4
        0x00000386:    bc10        ..      POP      {r4}
        0x00000388:    f85dfb14    ]...    LDR      pc,[sp],#0x14
    $d
        0x0000038c:    20000208    ...     DCD    536871432
    $t
    .text
    _printf_int_hex
    _printf_longlong_hex
        0x00000390:    b570        p.      PUSH     {r4-r6,lr}
        0x00000392:    4604        .F      MOV      r4,r0
        0x00000394:    460d        .F      MOV      r5,r1
        0x00000396:    4621        !F      MOV      r1,r4
        0x00000398:    6810        .h      LDR      r0,[r2,#0]
        0x0000039a:    f3af8000    ....    NOP.W    
        0x0000039e:    8821        !.      LDRH     r1,[r4,#0]
        0x000003a0:    0509        ..      LSLS     r1,r1,#20
        0x000003a2:    d502        ..      BPL      0x3aa ; _printf_int_hex + 26
        0x000003a4:    4a0f        .J      LDR      r2,[pc,#60] ; [0x3e4] = 0x3252
        0x000003a6:    447a        zD      ADD      r2,r2,pc
        0x000003a8:    e002        ..      B        0x3b0 ; _printf_int_hex + 32
        0x000003aa:    4a0e        .J      LDR      r2,[pc,#56] ; [0x3e4] = 0x3252
        0x000003ac:    447a        zD      ADD      r2,r2,pc
        0x000003ae:    320e        .2      ADDS     r2,r2,#0xe
        0x000003b0:    2100        .!      MOVS     r1,#0
        0x000003b2:    f1040324    ..$.    ADD      r3,r4,#0x24
        0x000003b6:    e005        ..      B        0x3c4 ; _printf_int_hex + 52
        0x000003b8:    f000060f    ....    AND      r6,r0,#0xf
        0x000003bc:    0900        ..      LSRS     r0,r0,#4
        0x000003be:    5d96        .]      LDRB     r6,[r2,r6]
        0x000003c0:    545e        ^T      STRB     r6,[r3,r1]
        0x000003c2:    1c49        I.      ADDS     r1,r1,#1
        0x000003c4:    2800        .(      CMP      r0,#0
        0x000003c6:    d1f7        ..      BNE      0x3b8 ; _printf_int_hex + 40
        0x000003c8:    7820         x      LDRB     r0,[r4,#0]
        0x000003ca:    2300        .#      MOVS     r3,#0
        0x000003cc:    0700        ..      LSLS     r0,r0,#28
        0x000003ce:    d504        ..      BPL      0x3da ; _printf_int_hex + 74
        0x000003d0:    2d70        p-      CMP      r5,#0x70
        0x000003d2:    d002        ..      BEQ      0x3da ; _printf_int_hex + 74
        0x000003d4:    b109        ..      CBZ      r1,0x3da ; _printf_int_hex + 74
        0x000003d6:    2302        .#      MOVS     r3,#2
        0x000003d8:    3211        .2      ADDS     r2,r2,#0x11
        0x000003da:    4620         F      MOV      r0,r4
        0x000003dc:    e8bd4070    ..p@    POP      {r4-r6,lr}
        0x000003e0:    f000b907    ....    B.W      _printf_int_common ; 0x5f2
    $d
        0x000003e4:    00003252    R2..    DCD    12882
    $t
    .text
    __printf
        0x000003e8:    e92d47f0    -..G    PUSH     {r4-r10,lr}
        0x000003ec:    f04f0a00    O...    MOV      r10,#0
        0x000003f0:    4689        .F      MOV      r9,r1
        0x000003f2:    4604        .F      MOV      r4,r0
        0x000003f4:    f8c0a020    .. .    STR      r10,[r0,#0x20]
        0x000003f8:    4620         F      MOV      r0,r4
        0x000003fa:    68e1        .h      LDR      r1,[r4,#0xc]
        0x000003fc:    4788        .G      BLX      r1
        0x000003fe:    2800        .(      CMP      r0,#0
        0x00000400:    d076        v.      BEQ      0x4f0 ; __printf + 264
        0x00000402:    2825        %(      CMP      r0,#0x25
        0x00000404:    d006        ..      BEQ      0x414 ; __printf + 44
        0x00000406:    e9d42101    ...!    LDRD     r2,r1,[r4,#4]
        0x0000040a:    4790        .G      BLX      r2
        0x0000040c:    6a20         j      LDR      r0,[r4,#0x20]
        0x0000040e:    1c40        @.      ADDS     r0,r0,#1
        0x00000410:    6220         b      STR      r0,[r4,#0x20]
        0x00000412:    e7f1        ..      B        0x3f8 ; __printf + 16
        0x00000414:    68e1        .h      LDR      r1,[r4,#0xc]
        0x00000416:    4620         F      MOV      r0,r4
        0x00000418:    2500        .%      MOVS     r5,#0
        0x0000041a:    4788        .G      BLX      r1
        0x0000041c:    f8c4a01c    ....    STR      r10,[r4,#0x1c]
        0x00000420:    4606        .F      MOV      r6,r0
        0x00000422:    2700        .'      MOVS     r7,#0
        0x00000424:    f8c4a018    ....    STR      r10,[r4,#0x18]
        0x00000428:    2e2a        *.      CMP      r6,#0x2a
        0x0000042a:    d009        ..      BEQ      0x440 ; __printf + 88
        0x0000042c:    4630        0F      MOV      r0,r6
        0x0000042e:    f002fd1d    ....    BL       _is_digit ; 0x2e6c
        0x00000432:    b338        8.      CBZ      r0,0x484 ; __printf + 156
        0x00000434:    eb040887    ....    ADD      r8,r4,r7,LSL #2
        0x00000438:    3e30        0>      SUBS     r6,r6,#0x30
        0x0000043a:    f8c86018    ...`    STR      r6,[r8,#0x18]
        0x0000043e:    e019        ..      B        0x474 ; __printf + 140
        0x00000440:    f8591b04    Y...    LDR      r1,[r9],#4
        0x00000444:    4620         F      MOV      r0,r4
        0x00000446:    eb040287    ....    ADD      r2,r4,r7,LSL #2
        0x0000044a:    6191        .a      STR      r1,[r2,#0x18]
        0x0000044c:    68e1        .h      LDR      r1,[r4,#0xc]
        0x0000044e:    4788        .G      BLX      r1
        0x00000450:    2f01        ./      CMP      r7,#1
        0x00000452:    4606        .F      MOV      r6,r0
        0x00000454:    d118        ..      BNE      0x488 ; __printf + 160
        0x00000456:    69e0        .i      LDR      r0,[r4,#0x1c]
        0x00000458:    2800        .(      CMP      r0,#0
        0x0000045a:    da20         .      BGE      0x49e ; __printf + 182
        0x0000045c:    f0250520    %. .    BIC      r5,r5,#0x20
        0x00000460:    e01d        ..      B        0x49e ; __printf + 182
        0x00000462:    f8d80018    ....    LDR      r0,[r8,#0x18]
        0x00000466:    eb000080    ....    ADD      r0,r0,r0,LSL #2
        0x0000046a:    eb060040    ..@.    ADD      r0,r6,r0,LSL #1
        0x0000046e:    3830        08      SUBS     r0,r0,#0x30
        0x00000470:    f8c80018    ....    STR      r0,[r8,#0x18]
        0x00000474:    4620         F      MOV      r0,r4
        0x00000476:    68e1        .h      LDR      r1,[r4,#0xc]
        0x00000478:    4788        .G      BLX      r1
        0x0000047a:    4606        .F      MOV      r6,r0
        0x0000047c:    f002fcf6    ....    BL       _is_digit ; 0x2e6c
        0x00000480:    2800        .(      CMP      r0,#0
        0x00000482:    d1ee        ..      BNE      0x462 ; __printf + 122
        0x00000484:    2f01        ./      CMP      r7,#1
        0x00000486:    d00a        ..      BEQ      0x49e ; __printf + 182
        0x00000488:    2e2e        ..      CMP      r6,#0x2e
        0x0000048a:    d108        ..      BNE      0x49e ; __printf + 182
        0x0000048c:    4620         F      MOV      r0,r4
        0x0000048e:    68e1        .h      LDR      r1,[r4,#0xc]
        0x00000490:    4788        .G      BLX      r1
        0x00000492:    1c7f        ..      ADDS     r7,r7,#1
        0x00000494:    4606        .F      MOV      r6,r0
        0x00000496:    2f02        ./      CMP      r7,#2
        0x00000498:    f0450520    E. .    ORR      r5,r5,#0x20
        0x0000049c:    dbc4        ..      BLT      0x428 ; __printf + 64
        0x0000049e:    69a0        .i      LDR      r0,[r4,#0x18]
        0x000004a0:    2800        .(      CMP      r0,#0
        0x000004a2:    da03        ..      BGE      0x4ac ; __printf + 196
        0x000004a4:    4240        @B      RSBS     r0,r0,#0
        0x000004a6:    f0450501    E...    ORR      r5,r5,#1
        0x000004aa:    61a0        .a      STR      r0,[r4,#0x18]
        0x000004ac:    07e8        ..      LSLS     r0,r5,#31
        0x000004ae:    d001        ..      BEQ      0x4b4 ; __printf + 204
        0x000004b0:    f0250510    %...    BIC      r5,r5,#0x10
        0x000004b4:    b1b6        ..      CBZ      r6,0x4e4 ; __printf + 252
        0x000004b6:    f1a60041    ..A.    SUB      r0,r6,#0x41
        0x000004ba:    2819        .(      CMP      r0,#0x19
        0x000004bc:    d802        ..      BHI      0x4c4 ; __printf + 220
        0x000004be:    3620         6      ADDS     r6,r6,#0x20
        0x000004c0:    f4456500    E..e    ORR      r5,r5,#0x800
        0x000004c4:    464a        JF      MOV      r2,r9
        0x000004c6:    4631        1F      MOV      r1,r6
        0x000004c8:    4620         F      MOV      r0,r4
        0x000004ca:    6025        %`      STR      r5,[r4,#0]
        0x000004cc:    464d        MF      MOV      r5,r9
        0x000004ce:    f7fffecd    ....    BL       _printf_percent ; 0x26c
        0x000004d2:    b158        X.      CBZ      r0,0x4ec ; __printf + 260
        0x000004d4:    2801        .(      CMP      r0,#1
        0x000004d6:    d006        ..      BEQ      0x4e6 ; __printf + 254
        0x000004d8:    1ded        ..      ADDS     r5,r5,#7
        0x000004da:    f0250007    %...    BIC      r0,r5,#7
        0x000004de:    f1000908    ....    ADD      r9,r0,#8
        0x000004e2:    e789        ..      B        0x3f8 ; __printf + 16
        0x000004e4:    e004        ..      B        0x4f0 ; __printf + 264
        0x000004e6:    f1050904    ....    ADD      r9,r5,#4
        0x000004ea:    e785        ..      B        0x3f8 ; __printf + 16
        0x000004ec:    4630        0F      MOV      r0,r6
        0x000004ee:    e78a        ..      B        0x406 ; __printf + 30
        0x000004f0:    6a20         j      LDR      r0,[r4,#0x20]
        0x000004f2:    e8bd87f0    ....    POP      {r4-r10,pc}
    .text
    __aeabi_memcpy4
    __aeabi_memcpy8
    __rt_memcpy_w
        0x000004f6:    b510        ..      PUSH     {r4,lr}
        0x000004f8:    3a20         :      SUBS     r2,r2,#0x20
        0x000004fa:    f0c0800b    ....    BCC.W    0x514 ; __aeabi_memcpy4 + 30
        0x000004fe:    e8b15018    ...P    LDM      r1!,{r3,r4,r12,lr}
        0x00000502:    3a20         :      SUBS     r2,r2,#0x20
        0x00000504:    e8a05018    ...P    STM      r0!,{r3,r4,r12,lr}
        0x00000508:    e8b15018    ...P    LDM      r1!,{r3,r4,r12,lr}
        0x0000050c:    e8a05018    ...P    STM      r0!,{r3,r4,r12,lr}
        0x00000510:    f4bfaff5    ....    BCS.W    0x4fe ; __aeabi_memcpy4 + 8
        0x00000514:    ea5f7c02    _..|    LSLS     r12,r2,#28
        0x00000518:    bf24        $.      ITT      CS
        0x0000051a:    e8b15018    ...P    LDMCS    r1!,{r3,r4,r12,lr}
        0x0000051e:    e8a05018    ...P    STMCS    r0!,{r3,r4,r12,lr}
        0x00000522:    bf44        D.      ITT      MI
        0x00000524:    c918        ..      LDMMI    r1!,{r3,r4}
        0x00000526:    c018        ..      STMMI    r0!,{r3,r4}
        0x00000528:    e8bd4010    ...@    POP      {r4,lr}
        0x0000052c:    ea5f7c82    _..|    LSLS     r12,r2,#30
        0x00000530:    bf24        $.      ITT      CS
        0x00000532:    f8513b04    Q..;    LDRCS    r3,[r1],#4
        0x00000536:    f8403b04    @..;    STRCS    r3,[r0],#4
        0x0000053a:    bf08        ..      IT       EQ
        0x0000053c:    4770        pG      BXEQ     lr
    _memcpy_lastbytes_aligned
        0x0000053e:    07d2        ..      LSLS     r2,r2,#31
        0x00000540:    bf28        (.      IT       CS
        0x00000542:    f8313b02    1..;    LDRHCS   r3,[r1],#2
        0x00000546:    bf48        H.      IT       MI
        0x00000548:    f8112b01    ...+    LDRBMI   r2,[r1],#1
        0x0000054c:    bf28        (.      IT       CS
        0x0000054e:    f8203b02     ..;    STRHCS   r3,[r0],#2
        0x00000552:    bf48        H.      IT       MI
        0x00000554:    f8002b01    ...+    STRBMI   r2,[r0],#1
        0x00000558:    4770        pG      BX       lr
    .text
    __aeabi_memclr
    __rt_memclr
        0x0000055a:    f04f0200    O...    MOV      r2,#0
    _memset
        0x0000055e:    2904        .)      CMP      r1,#4
        0x00000560:    f0c08012    ....    BCC.W    0x588 ; _memset + 42
        0x00000564:    f0100c03    ....    ANDS     r12,r0,#3
        0x00000568:    f000801b    ....    BEQ.W    _memset_w ; 0x5a2
        0x0000056c:    f1cc0c04    ....    RSB      r12,r12,#4
        0x00000570:    f1bc0f02    ....    CMP      r12,#2
        0x00000574:    bf18        ..      IT       NE
        0x00000576:    f8002b01    ...+    STRBNE   r2,[r0],#1
        0x0000057a:    bfa8        ..      IT       GE
        0x0000057c:    f8202b02     ..+    STRHGE   r2,[r0],#2
        0x00000580:    eba1010c    ....    SUB      r1,r1,r12
        0x00000584:    f000b80d    ....    B.W      _memset_w ; 0x5a2
        0x00000588:    ea5f7cc1    _..|    LSLS     r12,r1,#31
        0x0000058c:    bf24        $.      ITT      CS
        0x0000058e:    f8002b01    ...+    STRBCS   r2,[r0],#1
        0x00000592:    f8002b01    ...+    STRBCS   r2,[r0],#1
        0x00000596:    bf48        H.      IT       MI
        0x00000598:    f8002b01    ...+    STRBMI   r2,[r0],#1
        0x0000059c:    4770        pG      BX       lr
    .text
    __aeabi_memclr4
    __aeabi_memclr8
    __rt_memclr_w
        0x0000059e:    f04f0200    O...    MOV      r2,#0
    _memset_w
        0x000005a2:    b500        ..      PUSH     {lr}
        0x000005a4:    4613        .F      MOV      r3,r2
        0x000005a6:    4694        .F      MOV      r12,r2
        0x000005a8:    4696        .F      MOV      lr,r2
        0x000005aa:    3920         9      SUBS     r1,r1,#0x20
        0x000005ac:    bf22        ".      ITTT     CS
        0x000005ae:    e8a0500c    ...P    STMCS    r0!,{r2,r3,r12,lr}
        0x000005b2:    e8a0500c    ...P    STMCS    r0!,{r2,r3,r12,lr}
        0x000005b6:    f1b10120    .. .    SUBSCS   r1,r1,#0x20
        0x000005ba:    f4bfaff7    ....    BCS.W    0x5ac ; _memset_w + 10
        0x000005be:    0709        ..      LSLS     r1,r1,#28
        0x000005c0:    bf28        (.      IT       CS
        0x000005c2:    e8a0500c    ...P    STMCS    r0!,{r2,r3,r12,lr}
        0x000005c6:    bf48        H.      IT       MI
        0x000005c8:    c00c        ..      STMMI    r0!,{r2,r3}
        0x000005ca:    f85deb04    ]...    POP      {lr}
        0x000005ce:    0089        ..      LSLS     r1,r1,#2
        0x000005d0:    bf28        (.      IT       CS
        0x000005d2:    f8402b04    @..+    STRCS    r2,[r0],#4
        0x000005d6:    bf08        ..      IT       EQ
        0x000005d8:    4770        pG      BXEQ     lr
        0x000005da:    bf48        H.      IT       MI
        0x000005dc:    f8202b02     ..+    STRHMI   r2,[r0],#2
        0x000005e0:    f0114f80    ...O    TST      r1,#0x40000000
        0x000005e4:    bf18        ..      IT       NE
        0x000005e6:    f8002b01    ...+    STRBNE   r2,[r0],#1
        0x000005ea:    4770        pG      BX       lr
    .text
    __use_two_region_memory
        0x000005ec:    4770        pG      BX       lr
    __rt_heap_escrow$2region
        0x000005ee:    4770        pG      BX       lr
    __rt_heap_expand$2region
        0x000005f0:    4770        pG      BX       lr
    .text
    _printf_int_common
        0x000005f2:    e92d47f0    -..G    PUSH     {r4-r10,lr}
        0x000005f6:    460d        .F      MOV      r5,r1
        0x000005f8:    4699        .F      MOV      r9,r3
        0x000005fa:    4692        .F      MOV      r10,r2
        0x000005fc:    4604        .F      MOV      r4,r0
        0x000005fe:    f1000824    ..$.    ADD      r8,r0,#0x24
        0x00000602:    6801        .h      LDR      r1,[r0,#0]
        0x00000604:    0688        ..      LSLS     r0,r1,#26
        0x00000606:    d504        ..      BPL      0x612 ; _printf_int_common + 32
        0x00000608:    69e0        .i      LDR      r0,[r4,#0x1c]
        0x0000060a:    f0210110    !...    BIC      r1,r1,#0x10
        0x0000060e:    6021        !`      STR      r1,[r4,#0]
        0x00000610:    e000        ..      B        0x614 ; _printf_int_common + 34
        0x00000612:    2001        .       MOVS     r0,#1
        0x00000614:    42a8        .B      CMP      r0,r5
        0x00000616:    dd01        ..      BLE      0x61c ; _printf_int_common + 42
        0x00000618:    1b47        G.      SUBS     r7,r0,r5
        0x0000061a:    e000        ..      B        0x61e ; _printf_int_common + 44
        0x0000061c:    2700        .'      MOVS     r7,#0
        0x0000061e:    69a1        .i      LDR      r1,[r4,#0x18]
        0x00000620:    197a        z.      ADDS     r2,r7,r5
        0x00000622:    eb020009    ....    ADD      r0,r2,r9
        0x00000626:    1a08        ..      SUBS     r0,r1,r0
        0x00000628:    61a0        .a      STR      r0,[r4,#0x18]
        0x0000062a:    7820         x      LDRB     r0,[r4,#0]
        0x0000062c:    06c0        ..      LSLS     r0,r0,#27
        0x0000062e:    d402        ..      BMI      0x636 ; _printf_int_common + 68
        0x00000630:    4620         F      MOV      r0,r4
        0x00000632:    f3af8000    ....    NOP.W    
        0x00000636:    2600        .&      MOVS     r6,#0
        0x00000638:    e008        ..      B        0x64c ; _printf_int_common + 90
        0x0000063a:    e9d42101    ...!    LDRD     r2,r1,[r4,#4]
        0x0000063e:    f81a0006    ....    LDRB     r0,[r10,r6]
        0x00000642:    4790        .G      BLX      r2
        0x00000644:    6a20         j      LDR      r0,[r4,#0x20]
        0x00000646:    1c40        @.      ADDS     r0,r0,#1
        0x00000648:    1c76        v.      ADDS     r6,r6,#1
        0x0000064a:    6220         b      STR      r0,[r4,#0x20]
        0x0000064c:    454e        NE      CMP      r6,r9
        0x0000064e:    dbf4        ..      BLT      0x63a ; _printf_int_common + 72
        0x00000650:    7820         x      LDRB     r0,[r4,#0]
        0x00000652:    06c0        ..      LSLS     r0,r0,#27
        0x00000654:    d50a        ..      BPL      0x66c ; _printf_int_common + 122
        0x00000656:    4620         F      MOV      r0,r4
        0x00000658:    f3af8000    ....    NOP.W    
        0x0000065c:    e006        ..      B        0x66c ; _printf_int_common + 122
        0x0000065e:    e9d42101    ...!    LDRD     r2,r1,[r4,#4]
        0x00000662:    2030        0       MOVS     r0,#0x30
        0x00000664:    4790        .G      BLX      r2
        0x00000666:    6a20         j      LDR      r0,[r4,#0x20]
        0x00000668:    1c40        @.      ADDS     r0,r0,#1
        0x0000066a:    6220         b      STR      r0,[r4,#0x20]
        0x0000066c:    1e38        8.      SUBS     r0,r7,#0
        0x0000066e:    f1a70701    ....    SUB      r7,r7,#1
        0x00000672:    dcf4        ..      BGT      0x65e ; _printf_int_common + 108
        0x00000674:    e007        ..      B        0x686 ; _printf_int_common + 148
        0x00000676:    e9d42101    ...!    LDRD     r2,r1,[r4,#4]
        0x0000067a:    f8180005    ....    LDRB     r0,[r8,r5]
        0x0000067e:    4790        .G      BLX      r2
        0x00000680:    6a20         j      LDR      r0,[r4,#0x20]
        0x00000682:    1c40        @.      ADDS     r0,r0,#1
        0x00000684:    6220         b      STR      r0,[r4,#0x20]
        0x00000686:    1e28        (.      SUBS     r0,r5,#0
        0x00000688:    f1a50501    ....    SUB      r5,r5,#1
        0x0000068c:    dcf3        ..      BGT      0x676 ; _printf_int_common + 132
        0x0000068e:    4620         F      MOV      r0,r4
        0x00000690:    f3af8000    ....    NOP.W    
        0x00000694:    7820         x      LDRB     r0,[r4,#0]
        0x00000696:    0600        ..      LSLS     r0,r0,#24
        0x00000698:    d502        ..      BPL      0x6a0 ; _printf_int_common + 174
        0x0000069a:    2002        .       MOVS     r0,#2
        0x0000069c:    e8bd87f0    ....    POP      {r4-r10,pc}
        0x000006a0:    2001        .       MOVS     r0,#1
        0x000006a2:    e7fb        ..      B        0x69c ; _printf_int_common + 170
    .text
    _printf_char_file
        0x000006a4:    4b07        .K      LDR      r3,[pc,#28] ; [0x6c4] = 0x2947
        0x000006a6:    b570        p.      PUSH     {r4-r6,lr}
        0x000006a8:    460d        .F      MOV      r5,r1
        0x000006aa:    447b        {D      ADD      r3,r3,pc
        0x000006ac:    f000f811    ....    BL       _printf_char_common ; 0x6d2
        0x000006b0:    4604        .F      MOV      r4,r0
        0x000006b2:    4628        (F      MOV      r0,r5
        0x000006b4:    f000f820    .. .    BL       ferror ; 0x6f8
        0x000006b8:    b110        ..      CBZ      r0,0x6c0 ; _printf_char_file + 28
        0x000006ba:    f04f30ff    O..0    MOV      r0,#0xffffffff
        0x000006be:    bd70        p.      POP      {r4-r6,pc}
        0x000006c0:    4620         F      MOV      r0,r4
        0x000006c2:    bd70        p.      POP      {r4-r6,pc}
    $d
        0x000006c4:    00002947    G)..    DCD    10567
    $t
    .text
    _printf_input_char
        0x000006c8:    6901        .i      LDR      r1,[r0,#0x10]
        0x000006ca:    1c4a        J.      ADDS     r2,r1,#1
        0x000006cc:    6102        .a      STR      r2,[r0,#0x10]
        0x000006ce:    7808        .x      LDRB     r0,[r1,#0]
        0x000006d0:    4770        pG      BX       lr
    _printf_char_common
        0x000006d2:    b500        ..      PUSH     {lr}
        0x000006d4:    b08f        ..      SUB      sp,sp,#0x3c
        0x000006d6:    e9cd3101    ...1    STRD     r3,r1,[sp,#4]
        0x000006da:    2100        .!      MOVS     r1,#0
        0x000006dc:    9105        ..      STR      r1,[sp,#0x14]
        0x000006de:    4905        .I      LDR      r1,[pc,#20] ; [0x6f4] = 0xffffffe5
        0x000006e0:    4479        yD      ADD      r1,r1,pc
        0x000006e2:    e9cd1003    ....    STRD     r1,r0,[sp,#0xc]
        0x000006e6:    4611        .F      MOV      r1,r2
        0x000006e8:    4668        hF      MOV      r0,sp
        0x000006ea:    f7fffe7d    ..}.    BL       __printf ; 0x3e8
        0x000006ee:    b00f        ..      ADD      sp,sp,#0x3c
        0x000006f0:    bd00        ..      POP      {pc}
    $d
        0x000006f2:    0000        ..      DCW    0
        0x000006f4:    ffffffe5    ....    DCD    4294967269
    $t
    .text
    ferror
        0x000006f8:    7b00        .{      LDRB     r0,[r0,#0xc]
        0x000006fa:    f0000080    ....    AND      r0,r0,#0x80
        0x000006fe:    4770        pG      BX       lr
    .text
    __user_setup_stackheap
        0x00000700:    4675        uF      MOV      r5,lr
        0x00000702:    f000f82b    ..+.    BL       __user_libspace ; 0x75c
        0x00000706:    46ae        .F      MOV      lr,r5
        0x00000708:    0005        ..      MOVS     r5,r0
        0x0000070a:    4669        iF      MOV      r1,sp
        0x0000070c:    4653        SF      MOV      r3,r10
        0x0000070e:    f0200007     ...    BIC      r0,r0,#7
        0x00000712:    4685        .F      MOV      sp,r0
        0x00000714:    b018        ..      ADD      sp,sp,#0x60
        0x00000716:    b520         .      PUSH     {r5,lr}
        0x00000718:    f7fffe16    ....    BL       __user_initial_stackheap ; 0x348
        0x0000071c:    e8bd4020    .. @    POP      {r5,lr}
        0x00000720:    f04f0600    O...    MOV      r6,#0
        0x00000724:    f04f0700    O...    MOV      r7,#0
        0x00000728:    f04f0800    O...    MOV      r8,#0
        0x0000072c:    f04f0b00    O...    MOV      r11,#0
        0x00000730:    f0210107    !...    BIC      r1,r1,#7
        0x00000734:    46ac        .F      MOV      r12,r5
        0x00000736:    e8ac09c0    ....    STM      r12!,{r6-r8,r11}
        0x0000073a:    e8ac09c0    ....    STM      r12!,{r6-r8,r11}
        0x0000073e:    e8ac09c0    ....    STM      r12!,{r6-r8,r11}
        0x00000742:    e8ac09c0    ....    STM      r12!,{r6-r8,r11}
        0x00000746:    468d        .F      MOV      sp,r1
        0x00000748:    4770        pG      BX       lr
    .text
    exit
        0x0000074a:    b510        ..      PUSH     {r4,lr}
        0x0000074c:    4604        .F      MOV      r4,r0
        0x0000074e:    f3af8000    ....    NOP.W    
        0x00000752:    4620         F      MOV      r0,r4
        0x00000754:    e8bd4010    ...@    POP      {r4,lr}
        0x00000758:    f7ffbd9c    ....    B.W      __rt_exit ; 0x294
    .text
    __user_libspace
    __user_perproc_libspace
    __user_perthread_libspace
        0x0000075c:    4800        .H      LDR      r0,[pc,#0] ; [0x760] = 0x200002bc
        0x0000075e:    4770        pG      BX       lr
    $d
        0x00000760:    200002bc    ...     DCD    536871612
    $t
    i.ADC00_IRQHandler
    ADC00_IRQHandler
        0x00000764:    2001        .       MOVS     r0,#1
        0x00000766:    4902        .I      LDR      r1,[pc,#8] ; [0x770] = 0x2000002c
        0x00000768:    6008        .`      STR      r0,[r1,#0]
        0x0000076a:    4902        .I      LDR      r1,[pc,#8] ; [0x774] = 0x400430f8
        0x0000076c:    6008        .`      STR      r0,[r1,#0]
        0x0000076e:    4770        pG      BX       lr
    $d
        0x00000770:    2000002c    ,..     DCD    536870956
        0x00000774:    400430f8    .0.@    DCD    1074016504
    $t
    i.CLK_DisablePLL
    CLK_DisablePLL
        0x00000778:    4804        .H      LDR      r0,[pc,#16] ; [0x78c] = 0x40000240
        0x0000077a:    6800        .h      LDR      r0,[r0,#0]
        0x0000077c:    f4403080    @..0    ORR      r0,r0,#0x10000
        0x00000780:    f04f4180    O..A    MOV      r1,#0x40000000
        0x00000784:    f8c10240    ..@.    STR      r0,[r1,#0x240]
        0x00000788:    4770        pG      BX       lr
    $d
        0x0000078a:    0000        ..      DCW    0
        0x0000078c:    40000240    @..@    DCD    1073742400
    $t
    i.CLK_EnableModuleClock
    CLK_EnableModuleClock
        0x00000790:    b510        ..      PUSH     {r4,lr}
        0x00000792:    2200        ."      MOVS     r2,#0
        0x00000794:    2100        .!      MOVS     r1,#0
        0x00000796:    f000041f    ....    AND      r4,r0,#0x1f
        0x0000079a:    2301        .#      MOVS     r3,#1
        0x0000079c:    fa03f204    ....    LSL      r2,r3,r4
        0x000007a0:    4904        .I      LDR      r1,[pc,#16] ; [0x7b4] = 0x40000204
        0x000007a2:    2303        .#      MOVS     r3,#3
        0x000007a4:    ea037390    ...s    AND      r3,r3,r0,LSR #30
        0x000007a8:    eb010183    ....    ADD      r1,r1,r3,LSL #2
        0x000007ac:    680b        .h      LDR      r3,[r1,#0]
        0x000007ae:    4313        .C      ORRS     r3,r3,r2
        0x000007b0:    600b        .`      STR      r3,[r1,#0]
        0x000007b2:    bd10        ..      POP      {r4,pc}
    $d
        0x000007b4:    40000204    ...@    DCD    1073742340
    $t
    i.CLK_EnablePLL
    CLK_EnablePLL
        0x000007b8:    e92d4ff3    -..O    PUSH     {r0,r1,r4-r11,lr}
        0x000007bc:    b087        ..      SUB      sp,sp,#0x1c
        0x000007be:    460c        .F      MOV      r4,r1
        0x000007c0:    f7ffffda    ....    BL       CLK_DisablePLL ; 0x778
        0x000007c4:    9807        ..      LDR      r0,[sp,#0x1c]
        0x000007c6:    b980        ..      CBNZ     r0,0x7ea ; CLK_EnablePLL + 50
        0x000007c8:    4859        YH      LDR      r0,[pc,#356] ; [0x930] = 0x40000200
        0x000007ca:    6800        .h      LDR      r0,[r0,#0]
        0x000007cc:    f0400001    @...    ORR      r0,r0,#1
        0x000007d0:    f04f4180    O..A    MOV      r1,#0x40000000
        0x000007d4:    f8c10200    ....    STR      r0,[r1,#0x200]
        0x000007d8:    2001        .       MOVS     r0,#1
        0x000007da:    f000fa3b    ..;.    BL       CLK_WaitClockReady ; 0xc54
        0x000007de:    2000        .       MOVS     r0,#0
        0x000007e0:    9006        ..      STR      r0,[sp,#0x18]
        0x000007e2:    f8df9150    ..P.    LDR      r9,[pc,#336] ; [0x934] = 0xb71b00
        0x000007e6:    2602        .&      MOVS     r6,#2
        0x000007e8:    e010        ..      B        0x80c ; CLK_EnablePLL + 84
        0x000007ea:    4851        QH      LDR      r0,[pc,#324] ; [0x930] = 0x40000200
        0x000007ec:    6800        .h      LDR      r0,[r0,#0]
        0x000007ee:    f0400004    @...    ORR      r0,r0,#4
        0x000007f2:    f04f4180    O..A    MOV      r1,#0x40000000
        0x000007f6:    f8c10200    ....    STR      r0,[r1,#0x200]
        0x000007fa:    2010        .       MOVS     r0,#0x10
        0x000007fc:    f000fa2a    ..*.    BL       CLK_WaitClockReady ; 0xc54
        0x00000800:    f44f2000    O..     MOV      r0,#0x80000
        0x00000804:    9006        ..      STR      r0,[sp,#0x18]
        0x00000806:    f8df912c    ..,.    LDR      r9,[pc,#300] ; [0x934] = 0xb71b00
        0x0000080a:    2604        .&      MOVS     r6,#4
        0x0000080c:    484a        JH      LDR      r0,[pc,#296] ; [0x938] = 0x1dcd6500
        0x0000080e:    4284        .B      CMP      r4,r0
        0x00000810:    d877        w.      BHI      0x902 ; CLK_EnablePLL + 330
        0x00000812:    484a        JH      LDR      r0,[pc,#296] ; [0x93c] = 0x2faf080
        0x00000814:    4284        .B      CMP      r4,r0
        0x00000816:    d374        t.      BCC      0x902 ; CLK_EnablePLL + 330
        0x00000818:    f04f38ff    O..8    MOV      r8,#0xffffffff
        0x0000081c:    2000        .       MOVS     r0,#0
        0x0000081e:    9002        ..      STR      r0,[sp,#8]
        0x00000820:    9003        ..      STR      r0,[sp,#0xc]
        0x00000822:    9001        ..      STR      r0,[sp,#4]
        0x00000824:    9400        ..      STR      r4,[sp,#0]
        0x00000826:    2501        .%      MOVS     r5,#1
        0x00000828:    e04b        K.      B        0x8c2 ; CLK_EnablePLL + 266
        0x0000082a:    f1b80f00    ....    CMP      r8,#0
        0x0000082e:    d100        ..      BNE      0x832 ; CLK_EnablePLL + 122
        0x00000830:    e049        I.      B        0x8c6 ; CLK_EnablePLL + 270
        0x00000832:    2d03        .-      CMP      r5,#3
        0x00000834:    d044        D.      BEQ      0x8c0 ; CLK_EnablePLL + 264
        0x00000836:    2d04        .-      CMP      r5,#4
        0x00000838:    d102        ..      BNE      0x840 ; CLK_EnablePLL + 136
        0x0000083a:    9800        ..      LDR      r0,[sp,#0]
        0x0000083c:    0084        ..      LSLS     r4,r0,#2
        0x0000083e:    e003        ..      B        0x848 ; CLK_EnablePLL + 144
        0x00000840:    2d02        .-      CMP      r5,#2
        0x00000842:    d101        ..      BNE      0x848 ; CLK_EnablePLL + 144
        0x00000844:    9800        ..      LDR      r0,[sp,#0]
        0x00000846:    0044        D.      LSLS     r4,r0,#1
        0x00000848:    2602        .&      MOVS     r6,#2
        0x0000084a:    e036        6.      B        0x8ba ; CLK_EnablePLL + 258
        0x0000084c:    f1b80f00    ....    CMP      r8,#0
        0x00000850:    d100        ..      BNE      0x854 ; CLK_EnablePLL + 156
        0x00000852:    e034        4.      B        0x8be ; CLK_EnablePLL + 262
        0x00000854:    fbb9fbf6    ....    UDIV     r11,r9,r6
        0x00000858:    4839        9H      LDR      r0,[pc,#228] ; [0x940] = 0x3d0900
        0x0000085a:    4583        .E      CMP      r11,r0
        0x0000085c:    d32c        ,.      BCC      0x8b8 ; CLK_EnablePLL + 256
        0x0000085e:    0040        @.      LSLS     r0,r0,#1
        0x00000860:    4583        .E      CMP      r11,r0
        0x00000862:    d829        ).      BHI      0x8b8 ; CLK_EnablePLL + 256
        0x00000864:    f04f0a02    O...    MOV      r10,#2
        0x00000868:    e021        !.      B        0x8ae ; CLK_EnablePLL + 246
        0x0000086a:    f3cb005d    ..].    UBFX     r0,r11,#1,#30
        0x0000086e:    fb00f70a    ....    MUL      r7,r0,r10
        0x00000872:    4832        2H      LDR      r0,[pc,#200] ; [0x93c] = 0x2faf080
        0x00000874:    4287        .B      CMP      r7,r0
        0x00000876:    d318        ..      BCC      0x8aa ; CLK_EnablePLL + 242
        0x00000878:    4832        2H      LDR      r0,[pc,#200] ; [0x944] = 0x7735940
        0x0000087a:    4287        .B      CMP      r7,r0
        0x0000087c:    d815        ..      BHI      0x8aa ; CLK_EnablePLL + 242
        0x0000087e:    ebb70f94    ....    CMP      r7,r4,LSR #2
        0x00000882:    d902        ..      BLS      0x88a ; CLK_EnablePLL + 210
        0x00000884:    eba70094    ....    SUB      r0,r7,r4,LSR #2
        0x00000888:    e001        ..      B        0x88e ; CLK_EnablePLL + 214
        0x0000088a:    ebc70094    ....    RSB      r0,r7,r4,LSR #2
        0x0000088e:    9004        ..      STR      r0,[sp,#0x10]
        0x00000890:    9804        ..      LDR      r0,[sp,#0x10]
        0x00000892:    4540        @E      CMP      r0,r8
        0x00000894:    d209        ..      BCS      0x8aa ; CLK_EnablePLL + 242
        0x00000896:    f8dd8010    ....    LDR      r8,[sp,#0x10]
        0x0000089a:    9602        ..      STR      r6,[sp,#8]
        0x0000089c:    f8cda00c    ....    STR      r10,[sp,#0xc]
        0x000008a0:    9501        ..      STR      r5,[sp,#4]
        0x000008a2:    f1b80f00    ....    CMP      r8,#0
        0x000008a6:    d100        ..      BNE      0x8aa ; CLK_EnablePLL + 242
        0x000008a8:    e005        ..      B        0x8b6 ; CLK_EnablePLL + 254
        0x000008aa:    f10a0a01    ....    ADD      r10,r10,#1
        0x000008ae:    f2402001    @..     MOV      r0,#0x201
        0x000008b2:    4582        .E      CMP      r10,r0
        0x000008b4:    d9d9        ..      BLS      0x86a ; CLK_EnablePLL + 178
        0x000008b6:    bf00        ..      NOP      
        0x000008b8:    1c76        v.      ADDS     r6,r6,#1
        0x000008ba:    2e20         .      CMP      r6,#0x20
        0x000008bc:    d9c6        ..      BLS      0x84c ; CLK_EnablePLL + 148
        0x000008be:    bf00        ..      NOP      
        0x000008c0:    1c6d        m.      ADDS     r5,r5,#1
        0x000008c2:    2d04        .-      CMP      r5,#4
        0x000008c4:    d9b1        ..      BLS      0x82a ; CLK_EnablePLL + 114
        0x000008c6:    bf00        ..      NOP      
        0x000008c8:    9801        ..      LDR      r0,[sp,#4]
        0x000008ca:    1e40        @.      SUBS     r0,r0,#1
        0x000008cc:    9906        ..      LDR      r1,[sp,#0x18]
        0x000008ce:    ea413180    A..1    ORR      r1,r1,r0,LSL #14
        0x000008d2:    9802        ..      LDR      r0,[sp,#8]
        0x000008d4:    1e40        @.      SUBS     r0,r0,#1
        0x000008d6:    ea412140    A.@!    ORR      r1,r1,r0,LSL #9
        0x000008da:    9803        ..      LDR      r0,[sp,#0xc]
        0x000008dc:    1e80        ..      SUBS     r0,r0,#2
        0x000008de:    4301        .C      ORRS     r1,r1,r0
        0x000008e0:    4813        .H      LDR      r0,[pc,#76] ; [0x930] = 0x40000200
        0x000008e2:    3040        @0      ADDS     r0,r0,#0x40
        0x000008e4:    6001        .`      STR      r1,[r0,#0]
        0x000008e6:    2004        .       MOVS     r0,#4
        0x000008e8:    f000f9b4    ....    BL       CLK_WaitClockReady ; 0xc54
        0x000008ec:    e9dd0101    ....    LDRD     r0,r1,[sp,#4]
        0x000008f0:    4348        HC      MULS     r0,r1,r0
        0x000008f2:    fbb9f0f0    ....    UDIV     r0,r9,r0
        0x000008f6:    9903        ..      LDR      r1,[sp,#0xc]
        0x000008f8:    4348        HC      MULS     r0,r1,r0
        0x000008fa:    0040        @.      LSLS     r0,r0,#1
        0x000008fc:    9005        ..      STR      r0,[sp,#0x14]
        0x000008fe:    e012        ..      B        0x926 ; CLK_EnablePLL + 366
        0x00000900:    e7ff        ..      B        0x902 ; CLK_EnablePLL + 330
        0x00000902:    9807        ..      LDR      r0,[sp,#0x1c]
        0x00000904:    b928        (.      CBNZ     r0,0x912 ; CLK_EnablePLL + 346
        0x00000906:    f244201e    D..     MOV      r0,#0x421e
        0x0000090a:    4909        .I      LDR      r1,[pc,#36] ; [0x930] = 0x40000200
        0x0000090c:    3140        @1      ADDS     r1,r1,#0x40
        0x0000090e:    6008        .`      STR      r0,[r1,#0]
        0x00000910:    e003        ..      B        0x91a ; CLK_EnablePLL + 354
        0x00000912:    480d        .H      LDR      r0,[pc,#52] ; [0x948] = 0x8421e
        0x00000914:    4906        .I      LDR      r1,[pc,#24] ; [0x930] = 0x40000200
        0x00000916:    3140        @1      ADDS     r1,r1,#0x40
        0x00000918:    6008        .`      STR      r0,[r1,#0]
        0x0000091a:    2004        .       MOVS     r0,#4
        0x0000091c:    f000f99a    ....    BL       CLK_WaitClockReady ; 0xc54
        0x00000920:    f000f896    ....    BL       CLK_GetPLLClockFreq ; 0xa50
        0x00000924:    9005        ..      STR      r0,[sp,#0x14]
        0x00000926:    9805        ..      LDR      r0,[sp,#0x14]
        0x00000928:    b009        ..      ADD      sp,sp,#0x24
        0x0000092a:    e8bd8ff0    ....    POP      {r4-r11,pc}
    $d
        0x0000092e:    0000        ..      DCW    0
        0x00000930:    40000200    ...@    DCD    1073742336
        0x00000934:    00b71b00    ....    DCD    12000000
        0x00000938:    1dcd6500    .e..    DCD    500000000
        0x0000093c:    02faf080    ....    DCD    50000000
        0x00000940:    003d0900    ..=.    DCD    4000000
        0x00000944:    07735940    @Ys.    DCD    125000000
        0x00000948:    0008421e    .B..    DCD    541214
    $t
    i.CLK_EnableXtalRC
    CLK_EnableXtalRC
        0x0000094c:    4903        .I      LDR      r1,[pc,#12] ; [0x95c] = 0x40000200
        0x0000094e:    6809        .h      LDR      r1,[r1,#0]
        0x00000950:    4301        .C      ORRS     r1,r1,r0
        0x00000952:    f04f4280    O..B    MOV      r2,#0x40000000
        0x00000956:    f8c21200    ....    STR      r1,[r2,#0x200]
        0x0000095a:    4770        pG      BX       lr
    $d
        0x0000095c:    40000200    ...@    DCD    1073742336
    $t
    i.CLK_GetPCLK0Freq
    CLK_GetPCLK0Freq
        0x00000960:    b510        ..      PUSH     {r4,lr}
        0x00000962:    f001ff33    ..3.    BL       SystemCoreClockUpdate ; 0x27cc
        0x00000966:    481a        .H      LDR      r0,[pc,#104] ; [0x9d0] = 0x40000234
        0x00000968:    6800        .h      LDR      r0,[r0,#0]
        0x0000096a:    f0000007    ....    AND      r0,r0,#7
        0x0000096e:    b910        ..      CBNZ     r0,0x976 ; CLK_GetPCLK0Freq + 22
        0x00000970:    4818        .H      LDR      r0,[pc,#96] ; [0x9d4] = 0x20000000
        0x00000972:    6804        .h      LDR      r4,[r0,#0]
        0x00000974:    e029        ).      B        0x9ca ; CLK_GetPCLK0Freq + 106
        0x00000976:    4816        .H      LDR      r0,[pc,#88] ; [0x9d0] = 0x40000234
        0x00000978:    6800        .h      LDR      r0,[r0,#0]
        0x0000097a:    f0000007    ....    AND      r0,r0,#7
        0x0000097e:    2801        .(      CMP      r0,#1
        0x00000980:    d103        ..      BNE      0x98a ; CLK_GetPCLK0Freq + 42
        0x00000982:    4814        .H      LDR      r0,[pc,#80] ; [0x9d4] = 0x20000000
        0x00000984:    6800        .h      LDR      r0,[r0,#0]
        0x00000986:    0844        D.      LSRS     r4,r0,#1
        0x00000988:    e01f        ..      B        0x9ca ; CLK_GetPCLK0Freq + 106
        0x0000098a:    4811        .H      LDR      r0,[pc,#68] ; [0x9d0] = 0x40000234
        0x0000098c:    6800        .h      LDR      r0,[r0,#0]
        0x0000098e:    f0000007    ....    AND      r0,r0,#7
        0x00000992:    2802        .(      CMP      r0,#2
        0x00000994:    d103        ..      BNE      0x99e ; CLK_GetPCLK0Freq + 62
        0x00000996:    480f        .H      LDR      r0,[pc,#60] ; [0x9d4] = 0x20000000
        0x00000998:    6800        .h      LDR      r0,[r0,#0]
        0x0000099a:    0884        ..      LSRS     r4,r0,#2
        0x0000099c:    e015        ..      B        0x9ca ; CLK_GetPCLK0Freq + 106
        0x0000099e:    480c        .H      LDR      r0,[pc,#48] ; [0x9d0] = 0x40000234
        0x000009a0:    6800        .h      LDR      r0,[r0,#0]
        0x000009a2:    f0000007    ....    AND      r0,r0,#7
        0x000009a6:    2803        .(      CMP      r0,#3
        0x000009a8:    d103        ..      BNE      0x9b2 ; CLK_GetPCLK0Freq + 82
        0x000009aa:    480a        .H      LDR      r0,[pc,#40] ; [0x9d4] = 0x20000000
        0x000009ac:    6800        .h      LDR      r0,[r0,#0]
        0x000009ae:    08c4        ..      LSRS     r4,r0,#3
        0x000009b0:    e00b        ..      B        0x9ca ; CLK_GetPCLK0Freq + 106
        0x000009b2:    4807        .H      LDR      r0,[pc,#28] ; [0x9d0] = 0x40000234
        0x000009b4:    6800        .h      LDR      r0,[r0,#0]
        0x000009b6:    f0000007    ....    AND      r0,r0,#7
        0x000009ba:    2804        .(      CMP      r0,#4
        0x000009bc:    d103        ..      BNE      0x9c6 ; CLK_GetPCLK0Freq + 102
        0x000009be:    4805        .H      LDR      r0,[pc,#20] ; [0x9d4] = 0x20000000
        0x000009c0:    6800        .h      LDR      r0,[r0,#0]
        0x000009c2:    0904        ..      LSRS     r4,r0,#4
        0x000009c4:    e001        ..      B        0x9ca ; CLK_GetPCLK0Freq + 106
        0x000009c6:    4803        .H      LDR      r0,[pc,#12] ; [0x9d4] = 0x20000000
        0x000009c8:    6804        .h      LDR      r4,[r0,#0]
        0x000009ca:    4620         F      MOV      r0,r4
        0x000009cc:    bd10        ..      POP      {r4,pc}
    $d
        0x000009ce:    0000        ..      DCW    0
        0x000009d0:    40000234    4..@    DCD    1073742388
        0x000009d4:    20000000    ...     DCD    536870912
    $t
    i.CLK_GetPCLK1Freq
    CLK_GetPCLK1Freq
        0x000009d8:    b510        ..      PUSH     {r4,lr}
        0x000009da:    f001fef7    ....    BL       SystemCoreClockUpdate ; 0x27cc
        0x000009de:    481a        .H      LDR      r0,[pc,#104] ; [0xa48] = 0x40000234
        0x000009e0:    6800        .h      LDR      r0,[r0,#0]
        0x000009e2:    f0000070    ..p.    AND      r0,r0,#0x70
        0x000009e6:    b910        ..      CBNZ     r0,0x9ee ; CLK_GetPCLK1Freq + 22
        0x000009e8:    4818        .H      LDR      r0,[pc,#96] ; [0xa4c] = 0x20000000
        0x000009ea:    6804        .h      LDR      r4,[r0,#0]
        0x000009ec:    e029        ).      B        0xa42 ; CLK_GetPCLK1Freq + 106
        0x000009ee:    4816        .H      LDR      r0,[pc,#88] ; [0xa48] = 0x40000234
        0x000009f0:    6800        .h      LDR      r0,[r0,#0]
        0x000009f2:    f0000070    ..p.    AND      r0,r0,#0x70
        0x000009f6:    2810        .(      CMP      r0,#0x10
        0x000009f8:    d103        ..      BNE      0xa02 ; CLK_GetPCLK1Freq + 42
        0x000009fa:    4814        .H      LDR      r0,[pc,#80] ; [0xa4c] = 0x20000000
        0x000009fc:    6800        .h      LDR      r0,[r0,#0]
        0x000009fe:    0844        D.      LSRS     r4,r0,#1
        0x00000a00:    e01f        ..      B        0xa42 ; CLK_GetPCLK1Freq + 106
        0x00000a02:    4811        .H      LDR      r0,[pc,#68] ; [0xa48] = 0x40000234
        0x00000a04:    6800        .h      LDR      r0,[r0,#0]
        0x00000a06:    f0000070    ..p.    AND      r0,r0,#0x70
        0x00000a0a:    2820         (      CMP      r0,#0x20
        0x00000a0c:    d103        ..      BNE      0xa16 ; CLK_GetPCLK1Freq + 62
        0x00000a0e:    480f        .H      LDR      r0,[pc,#60] ; [0xa4c] = 0x20000000
        0x00000a10:    6800        .h      LDR      r0,[r0,#0]
        0x00000a12:    0884        ..      LSRS     r4,r0,#2
        0x00000a14:    e015        ..      B        0xa42 ; CLK_GetPCLK1Freq + 106
        0x00000a16:    480c        .H      LDR      r0,[pc,#48] ; [0xa48] = 0x40000234
        0x00000a18:    6800        .h      LDR      r0,[r0,#0]
        0x00000a1a:    f0000070    ..p.    AND      r0,r0,#0x70
        0x00000a1e:    2830        0(      CMP      r0,#0x30
        0x00000a20:    d103        ..      BNE      0xa2a ; CLK_GetPCLK1Freq + 82
        0x00000a22:    480a        .H      LDR      r0,[pc,#40] ; [0xa4c] = 0x20000000
        0x00000a24:    6800        .h      LDR      r0,[r0,#0]
        0x00000a26:    08c4        ..      LSRS     r4,r0,#3
        0x00000a28:    e00b        ..      B        0xa42 ; CLK_GetPCLK1Freq + 106
        0x00000a2a:    4807        .H      LDR      r0,[pc,#28] ; [0xa48] = 0x40000234
        0x00000a2c:    6800        .h      LDR      r0,[r0,#0]
        0x00000a2e:    f0000070    ..p.    AND      r0,r0,#0x70
        0x00000a32:    2840        @(      CMP      r0,#0x40
        0x00000a34:    d103        ..      BNE      0xa3e ; CLK_GetPCLK1Freq + 102
        0x00000a36:    4805        .H      LDR      r0,[pc,#20] ; [0xa4c] = 0x20000000
        0x00000a38:    6800        .h      LDR      r0,[r0,#0]
        0x00000a3a:    0904        ..      LSRS     r4,r0,#4
        0x00000a3c:    e001        ..      B        0xa42 ; CLK_GetPCLK1Freq + 106
        0x00000a3e:    4803        .H      LDR      r0,[pc,#12] ; [0xa4c] = 0x20000000
        0x00000a40:    6804        .h      LDR      r4,[r0,#0]
        0x00000a42:    4620         F      MOV      r0,r4
        0x00000a44:    bd10        ..      POP      {r4,pc}
    $d
        0x00000a46:    0000        ..      DCW    0
        0x00000a48:    40000234    4..@    DCD    1073742388
        0x00000a4c:    20000000    ...     DCD    536870912
    $t
    i.CLK_GetPLLClockFreq
    CLK_GetPLLClockFreq
        0x00000a50:    b5f8        ..      PUSH     {r3-r7,lr}
        0x00000a52:    2000        .       MOVS     r0,#0
        0x00000a54:    a618        ..      ADR      r6,{pc}+0x64 ; 0xab8
        0x00000a56:    6836        6h      LDR      r6,[r6,#0]
        0x00000a58:    9600        ..      STR      r6,[sp,#0]
        0x00000a5a:    4e18        .N      LDR      r6,[pc,#96] ; [0xabc] = 0x40000240
        0x00000a5c:    6831        1h      LDR      r1,[r6,#0]
        0x00000a5e:    f40126a0    ...&    AND      r6,r1,#0x50000
        0x00000a62:    b106        ..      CBZ      r6,0xa66 ; CLK_GetPLLClockFreq + 22
        0x00000a64:    e027        '.      B        0xab6 ; CLK_GetPLLClockFreq + 102
        0x00000a66:    f4013600    ...6    AND      r6,r1,#0x20000
        0x00000a6a:    f5b63f00    ...?    CMP      r6,#0x20000
        0x00000a6e:    d109        ..      BNE      0xa84 ; CLK_GetPLLClockFreq + 52
        0x00000a70:    f4012600    ...&    AND      r6,r1,#0x80000
        0x00000a74:    f5b62f00    .../    CMP      r6,#0x80000
        0x00000a78:    d101        ..      BNE      0xa7e ; CLK_GetPLLClockFreq + 46
        0x00000a7a:    4a11        .J      LDR      r2,[pc,#68] ; [0xac0] = 0xb71b00
        0x00000a7c:    e000        ..      B        0xa80 ; CLK_GetPLLClockFreq + 48
        0x00000a7e:    4a10        .J      LDR      r2,[pc,#64] ; [0xac0] = 0xb71b00
        0x00000a80:    4610        .F      MOV      r0,r2
        0x00000a82:    e018        ..      B        0xab6 ; CLK_GetPLLClockFreq + 102
        0x00000a84:    f4012600    ...&    AND      r6,r1,#0x80000
        0x00000a88:    f5b62f00    .../    CMP      r6,#0x80000
        0x00000a8c:    d101        ..      BNE      0xa92 ; CLK_GetPLLClockFreq + 66
        0x00000a8e:    4a0c        .J      LDR      r2,[pc,#48] ; [0xac0] = 0xb71b00
        0x00000a90:    e000        ..      B        0xa94 ; CLK_GetPLLClockFreq + 68
        0x00000a92:    4a0b        .J      LDR      r2,[pc,#44] ; [0xac0] = 0xb71b00
        0x00000a94:    f3c13781    ...7    UBFX     r7,r1,#14,#2
        0x00000a98:    f81d4007    ...@    LDRB     r4,[sp,r7]
        0x00000a9c:    f3c10608    ....    UBFX     r6,r1,#0,#9
        0x00000aa0:    1cb3        ..      ADDS     r3,r6,#2
        0x00000aa2:    f3c12644    ..D&    UBFX     r6,r1,#9,#5
        0x00000aa6:    1c75        u.      ADDS     r5,r6,#1
        0x00000aa8:    0896        ..      LSRS     r6,r2,#2
        0x00000aaa:    435e        ^C      MULS     r6,r3,r6
        0x00000aac:    fb15f704    ....    SMULBB   r7,r5,r4
        0x00000ab0:    fbb6f6f7    ....    UDIV     r6,r6,r7
        0x00000ab4:    00f0        ..      LSLS     r0,r6,#3
        0x00000ab6:    bdf8        ..      POP      {r3-r7,pc}
    $d
        0x00000ab8:    04020201    ....    DCD    67240449
        0x00000abc:    40000240    @..@    DCD    1073742400
        0x00000ac0:    00b71b00    ....    DCD    12000000
    $t
    i.CLK_SetCoreClock
    CLK_SetCoreClock
        0x00000ac4:    b570        p.      PUSH     {r4-r6,lr}
        0x00000ac6:    4604        .F      MOV      r4,r0
        0x00000ac8:    4825        %H      LDR      r0,[pc,#148] ; [0xb60] = 0x40000250
        0x00000aca:    6800        .h      LDR      r0,[r0,#0]
        0x00000acc:    f0000510    ....    AND      r5,r0,#0x10
        0x00000ad0:    4824        $H      LDR      r0,[pc,#144] ; [0xb64] = 0xb71b000
        0x00000ad2:    4284        .B      CMP      r4,r0
        0x00000ad4:    d900        ..      BLS      0xad8 ; CLK_SetCoreClock + 20
        0x00000ad6:    4604        .F      MOV      r4,r0
        0x00000ad8:    4821        !H      LDR      r0,[pc,#132] ; [0xb60] = 0x40000250
        0x00000ada:    3850        P8      SUBS     r0,r0,#0x50
        0x00000adc:    6800        .h      LDR      r0,[r0,#0]
        0x00000ade:    f0400004    @...    ORR      r0,r0,#4
        0x00000ae2:    f04f4180    O..A    MOV      r1,#0x40000000
        0x00000ae6:    f8c10200    ....    STR      r0,[r1,#0x200]
        0x00000aea:    2010        .       MOVS     r0,#0x10
        0x00000aec:    f000f8b2    ....    BL       CLK_WaitClockReady ; 0xc54
        0x00000af0:    f04f4080    O..@    MOV      r0,#0x40000000
        0x00000af4:    f8d00210    ....    LDR      r0,[r0,#0x210]
        0x00000af8:    f0400007    @...    ORR      r0,r0,#7
        0x00000afc:    f04f4180    O..A    MOV      r1,#0x40000000
        0x00000b00:    f8c10210    ....    STR      r0,[r1,#0x210]
        0x00000b04:    4608        .F      MOV      r0,r1
        0x00000b06:    f8d00220    .. .    LDR      r0,[r0,#0x220]
        0x00000b0a:    f020000f     ...    BIC      r0,r0,#0xf
        0x00000b0e:    f8c10220    .. .    STR      r0,[r1,#0x220]
        0x00000b12:    4813        .H      LDR      r0,[pc,#76] ; [0xb60] = 0x40000250
        0x00000b14:    3850        P8      SUBS     r0,r0,#0x50
        0x00000b16:    6800        .h      LDR      r0,[r0,#0]
        0x00000b18:    f0000001    ....    AND      r0,r0,#1
        0x00000b1c:    b128        (.      CBZ      r0,0xb2a ; CLK_SetCoreClock + 102
        0x00000b1e:    4621        !F      MOV      r1,r4
        0x00000b20:    2000        .       MOVS     r0,#0
        0x00000b22:    f7fffe49    ..I.    BL       CLK_EnablePLL ; 0x7b8
        0x00000b26:    4604        .F      MOV      r4,r0
        0x00000b28:    e009        ..      B        0xb3e ; CLK_SetCoreClock + 122
        0x00000b2a:    4621        !F      MOV      r1,r4
        0x00000b2c:    f44f2000    O..     MOV      r0,#0x80000
        0x00000b30:    f7fffe42    ..B.    BL       CLK_EnablePLL ; 0x7b8
        0x00000b34:    4604        .F      MOV      r4,r0
        0x00000b36:    480a        .H      LDR      r0,[pc,#40] ; [0xb60] = 0x40000250
        0x00000b38:    6800        .h      LDR      r0,[r0,#0]
        0x00000b3a:    f0000510    ....    AND      r5,r0,#0x10
        0x00000b3e:    2100        .!      MOVS     r1,#0
        0x00000b40:    2002        .       MOVS     r0,#2
        0x00000b42:    f000f811    ....    BL       CLK_SetHCLK ; 0xb68
        0x00000b46:    b945        E.      CBNZ     r5,0xb5a ; CLK_SetCoreClock + 150
        0x00000b48:    4805        .H      LDR      r0,[pc,#20] ; [0xb60] = 0x40000250
        0x00000b4a:    3850        P8      SUBS     r0,r0,#0x50
        0x00000b4c:    6800        .h      LDR      r0,[r0,#0]
        0x00000b4e:    f0200004     ...    BIC      r0,r0,#4
        0x00000b52:    f04f4180    O..A    MOV      r1,#0x40000000
        0x00000b56:    f8c10200    ....    STR      r0,[r1,#0x200]
        0x00000b5a:    4620         F      MOV      r0,r4
        0x00000b5c:    bd70        p.      POP      {r4-r6,pc}
    $d
        0x00000b5e:    0000        ..      DCW    0
        0x00000b60:    40000250    P..@    DCD    1073742416
        0x00000b64:    0b71b000    ..q.    DCD    192000000
    $t
    i.CLK_SetHCLK
    CLK_SetHCLK
        0x00000b68:    b570        p.      PUSH     {r4-r6,lr}
        0x00000b6a:    4604        .F      MOV      r4,r0
        0x00000b6c:    460d        .F      MOV      r5,r1
        0x00000b6e:    481c        .H      LDR      r0,[pc,#112] ; [0xbe0] = 0x40000250
        0x00000b70:    6800        .h      LDR      r0,[r0,#0]
        0x00000b72:    f0000610    ....    AND      r6,r0,#0x10
        0x00000b76:    f04f4080    O..@    MOV      r0,#0x40000000
        0x00000b7a:    f8d00200    ....    LDR      r0,[r0,#0x200]
        0x00000b7e:    f0400004    @...    ORR      r0,r0,#4
        0x00000b82:    4917        .I      LDR      r1,[pc,#92] ; [0xbe0] = 0x40000250
        0x00000b84:    3950        P9      SUBS     r1,r1,#0x50
        0x00000b86:    6008        .`      STR      r0,[r1,#0]
        0x00000b88:    2010        .       MOVS     r0,#0x10
        0x00000b8a:    f000f863    ..c.    BL       CLK_WaitClockReady ; 0xc54
        0x00000b8e:    4814        .H      LDR      r0,[pc,#80] ; [0xbe0] = 0x40000250
        0x00000b90:    3840        @8      SUBS     r0,r0,#0x40
        0x00000b92:    6800        .h      LDR      r0,[r0,#0]
        0x00000b94:    f0200007     ...    BIC      r0,r0,#7
        0x00000b98:    1dc0        ..      ADDS     r0,r0,#7
        0x00000b9a:    f04f4180    O..A    MOV      r1,#0x40000000
        0x00000b9e:    f8c10210    ....    STR      r0,[r1,#0x210]
        0x00000ba2:    480f        .H      LDR      r0,[pc,#60] ; [0xbe0] = 0x40000250
        0x00000ba4:    3830        08      SUBS     r0,r0,#0x30
        0x00000ba6:    6800        .h      LDR      r0,[r0,#0]
        0x00000ba8:    f020000f     ...    BIC      r0,r0,#0xf
        0x00000bac:    4328        (C      ORRS     r0,r0,r5
        0x00000bae:    f8c10220    .. .    STR      r0,[r1,#0x220]
        0x00000bb2:    480b        .H      LDR      r0,[pc,#44] ; [0xbe0] = 0x40000250
        0x00000bb4:    3840        @8      SUBS     r0,r0,#0x40
        0x00000bb6:    6800        .h      LDR      r0,[r0,#0]
        0x00000bb8:    f0200007     ...    BIC      r0,r0,#7
        0x00000bbc:    4320         C      ORRS     r0,r0,r4
        0x00000bbe:    4908        .I      LDR      r1,[pc,#32] ; [0xbe0] = 0x40000250
        0x00000bc0:    3940        @9      SUBS     r1,r1,#0x40
        0x00000bc2:    6008        .`      STR      r0,[r1,#0]
        0x00000bc4:    f001fe02    ....    BL       SystemCoreClockUpdate ; 0x27cc
        0x00000bc8:    b946        F.      CBNZ     r6,0xbdc ; CLK_SetHCLK + 116
        0x00000bca:    4805        .H      LDR      r0,[pc,#20] ; [0xbe0] = 0x40000250
        0x00000bcc:    3850        P8      SUBS     r0,r0,#0x50
        0x00000bce:    6800        .h      LDR      r0,[r0,#0]
        0x00000bd0:    f0200004     ...    BIC      r0,r0,#4
        0x00000bd4:    f04f4180    O..A    MOV      r1,#0x40000000
        0x00000bd8:    f8c10200    ....    STR      r0,[r1,#0x200]
        0x00000bdc:    bd70        p.      POP      {r4-r6,pc}
    $d
        0x00000bde:    0000        ..      DCW    0
        0x00000be0:    40000250    P..@    DCD    1073742416
    $t
    i.CLK_SetModuleClock
    CLK_SetModuleClock
        0x00000be4:    b5f0        ..      PUSH     {r4-r7,lr}
        0x00000be6:    2300        .#      MOVS     r3,#0
        0x00000be8:    2400        .$      MOVS     r4,#0
        0x00000bea:    f3c02587    ...%    UBFX     r5,r0,#10,#8
        0x00000bee:    b1dd        ..      CBZ      r5,0xc28 ; CLK_SetModuleClock + 68
        0x00000bf0:    f3c04581    ...E    UBFX     r5,r0,#18,#2
        0x00000bf4:    2d02        .-      CMP      r5,#2
        0x00000bf6:    d101        ..      BNE      0xbfc ; CLK_SetModuleClock + 24
        0x00000bf8:    4c15        .L      LDR      r4,[pc,#84] ; [0xc50] = 0x4000022c
        0x00000bfa:    e00c        ..      B        0xc16 ; CLK_SetModuleClock + 50
        0x00000bfc:    f3c04581    ...E    UBFX     r5,r0,#18,#2
        0x00000c00:    2d03        .-      CMP      r5,#3
        0x00000c02:    d102        ..      BNE      0xc0a ; CLK_SetModuleClock + 38
        0x00000c04:    4c12        .L      LDR      r4,[pc,#72] ; [0xc50] = 0x4000022c
        0x00000c06:    1d24        $.      ADDS     r4,r4,#4
        0x00000c08:    e005        ..      B        0xc16 ; CLK_SetModuleClock + 50
        0x00000c0a:    f3c04581    ...E    UBFX     r5,r0,#18,#2
        0x00000c0e:    4e10        .N      LDR      r6,[pc,#64] ; [0xc50] = 0x4000022c
        0x00000c10:    3e0c        .>      SUBS     r6,r6,#0xc
        0x00000c12:    eb060485    ....    ADD      r4,r6,r5,LSL #2
        0x00000c16:    6825        %h      LDR      r5,[r4,#0]
        0x00000c18:    f3c02687    ...&    UBFX     r6,r0,#10,#8
        0x00000c1c:    f3c01744    ..D.    UBFX     r7,r0,#5,#5
        0x00000c20:    40be        .@      LSLS     r6,r6,r7
        0x00000c22:    43b5        .C      BICS     r5,r5,r6
        0x00000c24:    4315        .C      ORRS     r5,r5,r2
        0x00000c26:    6025        %`      STR      r5,[r4,#0]
        0x00000c28:    f3c06542    ..Be    UBFX     r5,r0,#25,#3
        0x00000c2c:    b175        u.      CBZ      r5,0xc4c ; CLK_SetModuleClock + 104
        0x00000c2e:    f3c07501    ...u    UBFX     r5,r0,#28,#2
        0x00000c32:    4e07        .N      LDR      r6,[pc,#28] ; [0xc50] = 0x4000022c
        0x00000c34:    3e1c        .>      SUBS     r6,r6,#0x1c
        0x00000c36:    eb060385    ....    ADD      r3,r6,r5,LSL #2
        0x00000c3a:    681d        .h      LDR      r5,[r3,#0]
        0x00000c3c:    f3c06642    ..Bf    UBFX     r6,r0,#25,#3
        0x00000c40:    f3c05704    ...W    UBFX     r7,r0,#20,#5
        0x00000c44:    40be        .@      LSLS     r6,r6,r7
        0x00000c46:    43b5        .C      BICS     r5,r5,r6
        0x00000c48:    430d        .C      ORRS     r5,r5,r1
        0x00000c4a:    601d        .`      STR      r5,[r3,#0]
        0x00000c4c:    bdf0        ..      POP      {r4-r7,pc}
    $d
        0x00000c4e:    0000        ..      DCW    0
        0x00000c50:    4000022c    ,..@    DCD    1073742380
    $t
    i.CLK_WaitClockReady
    CLK_WaitClockReady
        0x00000c54:    b510        ..      PUSH     {r4,lr}
        0x00000c56:    4601        .F      MOV      r1,r0
        0x00000c58:    4a07        .J      LDR      r2,[pc,#28] ; [0xc78] = 0x20f580
        0x00000c5a:    2001        .       MOVS     r0,#1
        0x00000c5c:    e005        ..      B        0xc6a ; CLK_WaitClockReady + 22
        0x00000c5e:    1e13        ..      SUBS     r3,r2,#0
        0x00000c60:    f1a20201    ....    SUB      r2,r2,#1
        0x00000c64:    dc01        ..      BGT      0xc6a ; CLK_WaitClockReady + 22
        0x00000c66:    2000        .       MOVS     r0,#0
        0x00000c68:    e004        ..      B        0xc74 ; CLK_WaitClockReady + 32
        0x00000c6a:    4b04        .K      LDR      r3,[pc,#16] ; [0xc7c] = 0x40000250
        0x00000c6c:    681b        .h      LDR      r3,[r3,#0]
        0x00000c6e:    400b        .@      ANDS     r3,r3,r1
        0x00000c70:    428b        .B      CMP      r3,r1
        0x00000c72:    d1f4        ..      BNE      0xc5e ; CLK_WaitClockReady + 10
        0x00000c74:    bf00        ..      NOP      
        0x00000c76:    bd10        ..      POP      {r4,pc}
    $d
        0x00000c78:    0020f580    .. .    DCD    2160000
        0x00000c7c:    40000250    P..@    DCD    1073742416
    $t
    i.EADC_ConfigSampleModule
    EADC_ConfigSampleModule
        0x00000c80:    b530        0.      PUSH     {r4,r5,lr}
        0x00000c82:    f1000480    ....    ADD      r4,r0,#0x80
        0x00000c86:    f8544021    T.!@    LDR      r4,[r4,r1,LSL #2]
        0x00000c8a:    4d08        .M      LDR      r5,[pc,#32] ; [0xcac] = 0xffe0ffc0
        0x00000c8c:    402c        ,@      ANDS     r4,r4,r5
        0x00000c8e:    f1000580    ....    ADD      r5,r0,#0x80
        0x00000c92:    f8454021    E.!@    STR      r4,[r5,r1,LSL #2]
        0x00000c96:    462c        ,F      MOV      r4,r5
        0x00000c98:    f8544021    T.!@    LDR      r4,[r4,r1,LSL #2]
        0x00000c9c:    ea420503    B...    ORR      r5,r2,r3
        0x00000ca0:    432c        ,C      ORRS     r4,r4,r5
        0x00000ca2:    f1000580    ....    ADD      r5,r0,#0x80
        0x00000ca6:    f8454021    E.!@    STR      r4,[r5,r1,LSL #2]
        0x00000caa:    bd30        0.      POP      {r4,r5,pc}
    $d
        0x00000cac:    ffe0ffc0    ....    DCD    4292935616
    $t
    i.EADC_FunctionTest
    EADC_FunctionTest
        0x00000cb0:    b510        ..      PUSH     {r4,lr}
        0x00000cb2:    4604        .F      MOV      r4,r0
        0x00000cb4:    f001fc90    ....    BL       ReloadPDMA ; 0x25d8
        0x00000cb8:    4623        #F      MOV      r3,r4
        0x00000cba:    f44f2200    O.."    MOV      r2,#0x80000
        0x00000cbe:    4810        .H      LDR      r0,[pc,#64] ; [0xd00] = 0x20000038
        0x00000cc0:    6801        .h      LDR      r1,[r0,#0]
        0x00000cc2:    4810        .H      LDR      r0,[pc,#64] ; [0xd04] = 0x40043000
        0x00000cc4:    f7ffffdc    ....    BL       EADC_ConfigSampleModule ; 0xc80
        0x00000cc8:    480e        .H      LDR      r0,[pc,#56] ; [0xd04] = 0x40043000
        0x00000cca:    6d00        .m      LDR      r0,[r0,#0x50]
        0x00000ccc:    f4406000    @..`    ORR      r0,r0,#0x800
        0x00000cd0:    490c        .I      LDR      r1,[pc,#48] ; [0xd04] = 0x40043000
        0x00000cd2:    6508        .e      STR      r0,[r1,#0x50]
        0x00000cd4:    2101        .!      MOVS     r1,#1
        0x00000cd6:    480c        .H      LDR      r0,[pc,#48] ; [0xd08] = 0x40058000
        0x00000cd8:    f000f8c3    ....    BL       EPWM_Start ; 0xe62
        0x00000cdc:    e005        ..      B        0xcea ; EADC_FunctionTest + 58
        0x00000cde:    bf00        ..      NOP      
        0x00000ce0:    480a        .H      LDR      r0,[pc,#40] ; [0xd0c] = 0x20000034
        0x00000ce2:    6800        .h      LDR      r0,[r0,#0]
        0x00000ce4:    2800        .(      CMP      r0,#0
        0x00000ce6:    d0fb        ..      BEQ      0xce0 ; EADC_FunctionTest + 48
        0x00000ce8:    e000        ..      B        0xcec ; EADC_FunctionTest + 60
        0x00000cea:    e7f8        ..      B        0xcde ; EADC_FunctionTest + 46
        0x00000cec:    bf00        ..      NOP      
        0x00000cee:    2000        .       MOVS     r0,#0
        0x00000cf0:    4906        .I      LDR      r1,[pc,#24] ; [0xd0c] = 0x20000034
        0x00000cf2:    6008        .`      STR      r0,[r1,#0]
        0x00000cf4:    2101        .!      MOVS     r1,#1
        0x00000cf6:    4804        .H      LDR      r0,[pc,#16] ; [0xd08] = 0x40058000
        0x00000cf8:    f000f8af    ....    BL       EPWM_ForceStop ; 0xe5a
        0x00000cfc:    bd10        ..      POP      {r4,pc}
    $d
        0x00000cfe:    0000        ..      DCW    0
        0x00000d00:    20000038    8..     DCD    536870968
        0x00000d04:    40043000    .0.@    DCD    1074016256
        0x00000d08:    40058000    ...@    DCD    1074102272
        0x00000d0c:    20000034    4..     DCD    536870964
    $t
    i.EADC_Open
    EADC_Open
        0x00000d10:    6d02        .m      LDR      r2,[r0,#0x50]
        0x00000d12:    f4227280    "..r    BIC      r2,r2,#0x100
        0x00000d16:    6502        .e      STR      r2,[r0,#0x50]
        0x00000d18:    6d02        .m      LDR      r2,[r0,#0x50]
        0x00000d1a:    f0410301    A...    ORR      r3,r1,#1
        0x00000d1e:    431a        .C      ORRS     r2,r2,r3
        0x00000d20:    6502        .e      STR      r2,[r0,#0x50]
        0x00000d22:    bf00        ..      NOP      
        0x00000d24:    f8d02110    ...!    LDR      r2,[r0,#0x110]
        0x00000d28:    f0020201    ....    AND      r2,r2,#1
        0x00000d2c:    2a00        .*      CMP      r2,#0
        0x00000d2e:    d0f9        ..      BEQ      0xd24 ; EADC_Open + 20
        0x00000d30:    4770        pG      BX       lr
        0x00000d32:    0000        ..      MOVS     r0,r0
    i.EPWM0_Init
    EPWM0_Init
        0x00000d34:    b510        ..      PUSH     {r4,lr}
        0x00000d36:    2000        .       MOVS     r0,#0
        0x00000d38:    4931        1I      LDR      r1,[pc,#196] ; [0xe00] = 0x40058000
        0x00000d3a:    6148        Ha      STR      r0,[r1,#0x14]
        0x00000d3c:    4608        .F      MOV      r0,r1
        0x00000d3e:    6840        @h      LDR      r0,[r0,#4]
        0x00000d40:    f0200003     ...    BIC      r0,r0,#3
        0x00000d44:    6048        H`      STR      r0,[r1,#4]
        0x00000d46:    206c        l       MOVS     r0,#0x6c
        0x00000d48:    6508        .e      STR      r0,[r1,#0x50]
        0x00000d4a:    20d8        .       MOVS     r0,#0xd8
        0x00000d4c:    6308        .c      STR      r0,[r1,#0x30]
        0x00000d4e:    2201        ."      MOVS     r2,#1
        0x00000d50:    2100        .!      MOVS     r1,#0
        0x00000d52:    482b        +H      LDR      r0,[pc,#172] ; [0xe00] = 0x40058000
        0x00000d54:    f000f856    ..V.    BL       EPWM_EnableADCTrigger ; 0xe04
        0x00000d58:    bf00        ..      NOP      
        0x00000d5a:    2000        .       MOVS     r0,#0
        0x00000d5c:    e047        G.      B        0xdee ; EPWM0_Init + 186
        0x00000d5e:    2101        .!      MOVS     r1,#1
        0x00000d60:    4081        .@      LSLS     r1,r1,r0
        0x00000d62:    f0010101    ....    AND      r1,r1,#1
        0x00000d66:    b3e9        ..      CBZ      r1,0xde4 ; EPWM0_Init + 176
        0x00000d68:    4925        %I      LDR      r1,[pc,#148] ; [0xe00] = 0x40058000
        0x00000d6a:    31b0        .1      ADDS     r1,r1,#0xb0
        0x00000d6c:    6809        .h      LDR      r1,[r1,#0]
        0x00000d6e:    0043        C.      LSLS     r3,r0,#1
        0x00000d70:    2203        ."      MOVS     r2,#3
        0x00000d72:    409a        .@      LSLS     r2,r2,r3
        0x00000d74:    4391        .C      BICS     r1,r1,r2
        0x00000d76:    0043        C.      LSLS     r3,r0,#1
        0x00000d78:    2202        ."      MOVS     r2,#2
        0x00000d7a:    409a        .@      LSLS     r2,r2,r3
        0x00000d7c:    4311        .C      ORRS     r1,r1,r2
        0x00000d7e:    4a20         J      LDR      r2,[pc,#128] ; [0xe00] = 0x40058000
        0x00000d80:    f8c210b0    ....    STR      r1,[r2,#0xb0]
        0x00000d84:    491e        .I      LDR      r1,[pc,#120] ; [0xe00] = 0x40058000
        0x00000d86:    31b0        .1      ADDS     r1,r1,#0xb0
        0x00000d88:    6809        .h      LDR      r1,[r1,#0]
        0x00000d8a:    2210        ."      MOVS     r2,#0x10
        0x00000d8c:    eb020340    ..@.    ADD      r3,r2,r0,LSL #1
        0x00000d90:    2203        ."      MOVS     r2,#3
        0x00000d92:    409a        .@      LSLS     r2,r2,r3
        0x00000d94:    4391        .C      BICS     r1,r1,r2
        0x00000d96:    2210        ."      MOVS     r2,#0x10
        0x00000d98:    eb020340    ..@.    ADD      r3,r2,r0,LSL #1
        0x00000d9c:    2200        ."      MOVS     r2,#0
        0x00000d9e:    409a        .@      LSLS     r2,r2,r3
        0x00000da0:    4311        .C      ORRS     r1,r1,r2
        0x00000da2:    4a17        .J      LDR      r2,[pc,#92] ; [0xe00] = 0x40058000
        0x00000da4:    f8c210b0    ....    STR      r1,[r2,#0xb0]
        0x00000da8:    4915        .I      LDR      r1,[pc,#84] ; [0xe00] = 0x40058000
        0x00000daa:    31b4        .1      ADDS     r1,r1,#0xb4
        0x00000dac:    6809        .h      LDR      r1,[r1,#0]
        0x00000dae:    0043        C.      LSLS     r3,r0,#1
        0x00000db0:    2203        ."      MOVS     r2,#3
        0x00000db2:    409a        .@      LSLS     r2,r2,r3
        0x00000db4:    4391        .C      BICS     r1,r1,r2
        0x00000db6:    0043        C.      LSLS     r3,r0,#1
        0x00000db8:    2201        ."      MOVS     r2,#1
        0x00000dba:    409a        .@      LSLS     r2,r2,r3
        0x00000dbc:    4311        .C      ORRS     r1,r1,r2
        0x00000dbe:    4a10        .J      LDR      r2,[pc,#64] ; [0xe00] = 0x40058000
        0x00000dc0:    f8c210b4    ....    STR      r1,[r2,#0xb4]
        0x00000dc4:    490e        .I      LDR      r1,[pc,#56] ; [0xe00] = 0x40058000
        0x00000dc6:    31b4        .1      ADDS     r1,r1,#0xb4
        0x00000dc8:    6809        .h      LDR      r1,[r1,#0]
        0x00000dca:    2210        ."      MOVS     r2,#0x10
        0x00000dcc:    eb020340    ..@.    ADD      r3,r2,r0,LSL #1
        0x00000dd0:    2203        ."      MOVS     r2,#3
        0x00000dd2:    409a        .@      LSLS     r2,r2,r3
        0x00000dd4:    4391        .C      BICS     r1,r1,r2
        0x00000dd6:    2210        ."      MOVS     r2,#0x10
        0x00000dd8:    eb020340    ..@.    ADD      r3,r2,r0,LSL #1
        0x00000ddc:    2200        ."      MOVS     r2,#0
        0x00000dde:    409a        .@      LSLS     r2,r2,r3
        0x00000de0:    4311        .C      ORRS     r1,r1,r2
        0x00000de2:    e000        ..      B        0xde6 ; EPWM0_Init + 178
        0x00000de4:    e002        ..      B        0xdec ; EPWM0_Init + 184
        0x00000de6:    4a06        .J      LDR      r2,[pc,#24] ; [0xe00] = 0x40058000
        0x00000de8:    f8c210b4    ....    STR      r1,[r2,#0xb4]
        0x00000dec:    1c40        @.      ADDS     r0,r0,#1
        0x00000dee:    2806        .(      CMP      r0,#6
        0x00000df0:    dbb5        ..      BLT      0xd5e ; EPWM0_Init + 42
        0x00000df2:    bf00        ..      NOP      
        0x00000df4:    2101        .!      MOVS     r1,#1
        0x00000df6:    4802        .H      LDR      r0,[pc,#8] ; [0xe00] = 0x40058000
        0x00000df8:    f000f829    ..).    BL       EPWM_EnableOutput ; 0xe4e
        0x00000dfc:    bd10        ..      POP      {r4,pc}
    $d
        0x00000dfe:    0000        ..      DCW    0
        0x00000e00:    40058000    ...@    DCD    1074102272
    $t
    i.EPWM_EnableADCTrigger
    EPWM_EnableADCTrigger
        0x00000e04:    b530        0.      PUSH     {r4,r5,lr}
        0x00000e06:    2904        .)      CMP      r1,#4
        0x00000e08:    d20f        ..      BCS      0xe2a ; EPWM_EnableADCTrigger + 38
        0x00000e0a:    f8503ff8    P..?    LDR      r3,[r0,#0xf8]!
        0x00000e0e:    00cd        ..      LSLS     r5,r1,#3
        0x00000e10:    240f        .$      MOVS     r4,#0xf
        0x00000e12:    40ac        .@      LSLS     r4,r4,r5
        0x00000e14:    43a3        .C      BICS     r3,r3,r4
        0x00000e16:    6003        .`      STR      r3,[r0,#0]
        0x00000e18:    f0420380    B...    ORR      r3,r2,#0x80
        0x00000e1c:    00cc        ..      LSLS     r4,r1,#3
        0x00000e1e:    40a3        .@      LSLS     r3,r3,r4
        0x00000e20:    6804        .h      LDR      r4,[r0,#0]
        0x00000e22:    4323        #C      ORRS     r3,r3,r4
        0x00000e24:    f84039f8    @..9    STR      r3,[r0],#-0xf8
        0x00000e28:    e010        ..      B        0xe4c ; EPWM_EnableADCTrigger + 72
        0x00000e2a:    f8503ffc    P..?    LDR      r3,[r0,#0xfc]!
        0x00000e2e:    1f0c        ..      SUBS     r4,r1,#4
        0x00000e30:    00e5        ..      LSLS     r5,r4,#3
        0x00000e32:    240f        .$      MOVS     r4,#0xf
        0x00000e34:    40ac        .@      LSLS     r4,r4,r5
        0x00000e36:    43a3        .C      BICS     r3,r3,r4
        0x00000e38:    6003        .`      STR      r3,[r0,#0]
        0x00000e3a:    f0420380    B...    ORR      r3,r2,#0x80
        0x00000e3e:    1f0c        ..      SUBS     r4,r1,#4
        0x00000e40:    00e4        ..      LSLS     r4,r4,#3
        0x00000e42:    40a3        .@      LSLS     r3,r3,r4
        0x00000e44:    6804        .h      LDR      r4,[r0,#0]
        0x00000e46:    4323        #C      ORRS     r3,r3,r4
        0x00000e48:    f84039fc    @..9    STR      r3,[r0],#-0xfc
        0x00000e4c:    bd30        0.      POP      {r4,r5,pc}
    i.EPWM_EnableOutput
    EPWM_EnableOutput
        0x00000e4e:    f8d020d8    ...     LDR      r2,[r0,#0xd8]
        0x00000e52:    430a        .C      ORRS     r2,r2,r1
        0x00000e54:    f8c020d8    ...     STR      r2,[r0,#0xd8]
        0x00000e58:    4770        pG      BX       lr
    i.EPWM_ForceStop
    EPWM_ForceStop
        0x00000e5a:    6a02        .j      LDR      r2,[r0,#0x20]
        0x00000e5c:    438a        .C      BICS     r2,r2,r1
        0x00000e5e:    6202        .b      STR      r2,[r0,#0x20]
        0x00000e60:    4770        pG      BX       lr
    i.EPWM_Start
    EPWM_Start
        0x00000e62:    6a02        .j      LDR      r2,[r0,#0x20]
        0x00000e64:    430a        .C      ORRS     r2,r2,r1
        0x00000e66:    6202        .b      STR      r2,[r0,#0x20]
        0x00000e68:    4770        pG      BX       lr
        0x00000e6a:    0000        ..      MOVS     r0,r0
    i.HSUSBD_ConfigEp
    HSUSBD_ConfigEp
        0x00000e6c:    b570        p.      PUSH     {r4-r6,lr}
        0x00000e6e:    2a02        .*      CMP      r2,#2
        0x00000e70:    d107        ..      BNE      0xe82 ; HSUSBD_ConfigEp + 22
        0x00000e72:    2501        .%      MOVS     r5,#1
        0x00000e74:    4c13        .L      LDR      r4,[pc,#76] ; [0xec4] = 0x40019064
        0x00000e76:    eb000680    ....    ADD      r6,r0,r0,LSL #2
        0x00000e7a:    eb0404c6    ....    ADD      r4,r4,r6,LSL #3
        0x00000e7e:    6125        %a      STR      r5,[r4,#0x10]
        0x00000e80:    e012        ..      B        0xea8 ; HSUSBD_ConfigEp + 60
        0x00000e82:    2a04        .*      CMP      r2,#4
        0x00000e84:    d107        ..      BNE      0xe96 ; HSUSBD_ConfigEp + 42
        0x00000e86:    2503        .%      MOVS     r5,#3
        0x00000e88:    4c0e        .L      LDR      r4,[pc,#56] ; [0xec4] = 0x40019064
        0x00000e8a:    eb000680    ....    ADD      r6,r0,r0,LSL #2
        0x00000e8e:    eb0404c6    ....    ADD      r4,r4,r6,LSL #3
        0x00000e92:    6125        %a      STR      r5,[r4,#0x10]
        0x00000e94:    e008        ..      B        0xea8 ; HSUSBD_ConfigEp + 60
        0x00000e96:    2a06        .*      CMP      r2,#6
        0x00000e98:    d106        ..      BNE      0xea8 ; HSUSBD_ConfigEp + 60
        0x00000e9a:    2505        .%      MOVS     r5,#5
        0x00000e9c:    4c09        .L      LDR      r4,[pc,#36] ; [0xec4] = 0x40019064
        0x00000e9e:    eb000680    ....    ADD      r6,r0,r0,LSL #2
        0x00000ea2:    eb0404c6    ....    ADD      r4,r4,r6,LSL #3
        0x00000ea6:    6125        %a      STR      r5,[r4,#0x10]
        0x00000ea8:    ea420403    B...    ORR      r4,r2,r3
        0x00000eac:    f0440401    D...    ORR      r4,r4,#1
        0x00000eb0:    ea441501    D...    ORR      r5,r4,r1,LSL #4
        0x00000eb4:    4c03        .L      LDR      r4,[pc,#12] ; [0xec4] = 0x40019064
        0x00000eb6:    eb000680    ....    ADD      r6,r0,r0,LSL #2
        0x00000eba:    eb0404c6    ....    ADD      r4,r4,r6,LSL #3
        0x00000ebe:    61e5        .a      STR      r5,[r4,#0x1c]
        0x00000ec0:    bd70        p.      POP      {r4-r6,pc}
    $d
        0x00000ec2:    0000        ..      DCW    0
        0x00000ec4:    40019064    d..@    DCD    1073844324
    $t
    i.HSUSBD_CtrlIn
    HSUSBD_CtrlIn
        0x00000ec8:    b50c        ..      PUSH     {r2,r3,lr}
        0x00000eca:    4930        0I      LDR      r1,[pc,#192] ; [0xf8c] = 0x20000244
        0x00000ecc:    6809        .h      LDR      r1,[r1,#0]
        0x00000ece:    4a30        0J      LDR      r2,[pc,#192] ; [0xf90] = 0x20000234
        0x00000ed0:    6812        .h      LDR      r2,[r2,#0]
        0x00000ed2:    4291        .B      CMP      r1,r2
        0x00000ed4:    d323        #.      BCC      0xf1e ; HSUSBD_CtrlIn + 86
        0x00000ed6:    492e        .I      LDR      r1,[pc,#184] ; [0xf90] = 0x20000234
        0x00000ed8:    6809        .h      LDR      r1,[r1,#0]
        0x00000eda:    0889        ..      LSRS     r1,r1,#2
        0x00000edc:    9100        ..      STR      r1,[sp,#0]
        0x00000ede:    2100        .!      MOVS     r1,#0
        0x00000ee0:    9101        ..      STR      r1,[sp,#4]
        0x00000ee2:    e00c        ..      B        0xefe ; HSUSBD_CtrlIn + 54
        0x00000ee4:    492b        +I      LDR      r1,[pc,#172] ; [0xf94] = 0x20000230
        0x00000ee6:    6809        .h      LDR      r1,[r1,#0]
        0x00000ee8:    6809        .h      LDR      r1,[r1,#0]
        0x00000eea:    4a2b        +J      LDR      r2,[pc,#172] ; [0xf98] = 0x40019000
        0x00000eec:    6291        .b      STR      r1,[r2,#0x28]
        0x00000eee:    4929        )I      LDR      r1,[pc,#164] ; [0xf94] = 0x20000230
        0x00000ef0:    6809        .h      LDR      r1,[r1,#0]
        0x00000ef2:    1d09        ..      ADDS     r1,r1,#4
        0x00000ef4:    4a27        'J      LDR      r2,[pc,#156] ; [0xf94] = 0x20000230
        0x00000ef6:    6011        .`      STR      r1,[r2,#0]
        0x00000ef8:    9901        ..      LDR      r1,[sp,#4]
        0x00000efa:    1c49        I.      ADDS     r1,r1,#1
        0x00000efc:    9101        ..      STR      r1,[sp,#4]
        0x00000efe:    e9dd2100    ...!    LDRD     r2,r1,[sp,#0]
        0x00000f02:    4291        .B      CMP      r1,r2
        0x00000f04:    d3ee        ..      BCC      0xee4 ; HSUSBD_CtrlIn + 28
        0x00000f06:    4922        "I      LDR      r1,[pc,#136] ; [0xf90] = 0x20000234
        0x00000f08:    6809        .h      LDR      r1,[r1,#0]
        0x00000f0a:    4a23        #J      LDR      r2,[pc,#140] ; [0xf98] = 0x40019000
        0x00000f0c:    6391        .c      STR      r1,[r2,#0x38]
        0x00000f0e:    491f        .I      LDR      r1,[pc,#124] ; [0xf8c] = 0x20000244
        0x00000f10:    6809        .h      LDR      r1,[r1,#0]
        0x00000f12:    4a1f        .J      LDR      r2,[pc,#124] ; [0xf90] = 0x20000234
        0x00000f14:    6812        .h      LDR      r2,[r2,#0]
        0x00000f16:    1a89        ..      SUBS     r1,r1,r2
        0x00000f18:    4a1c        .J      LDR      r2,[pc,#112] ; [0xf8c] = 0x20000244
        0x00000f1a:    6011        .`      STR      r1,[r2,#0]
        0x00000f1c:    e034        4.      B        0xf88 ; HSUSBD_CtrlIn + 192
        0x00000f1e:    491b        .I      LDR      r1,[pc,#108] ; [0xf8c] = 0x20000244
        0x00000f20:    6809        .h      LDR      r1,[r1,#0]
        0x00000f22:    0889        ..      LSRS     r1,r1,#2
        0x00000f24:    9100        ..      STR      r1,[sp,#0]
        0x00000f26:    2100        .!      MOVS     r1,#0
        0x00000f28:    9101        ..      STR      r1,[sp,#4]
        0x00000f2a:    e00c        ..      B        0xf46 ; HSUSBD_CtrlIn + 126
        0x00000f2c:    4919        .I      LDR      r1,[pc,#100] ; [0xf94] = 0x20000230
        0x00000f2e:    6809        .h      LDR      r1,[r1,#0]
        0x00000f30:    6809        .h      LDR      r1,[r1,#0]
        0x00000f32:    4a19        .J      LDR      r2,[pc,#100] ; [0xf98] = 0x40019000
        0x00000f34:    6291        .b      STR      r1,[r2,#0x28]
        0x00000f36:    4917        .I      LDR      r1,[pc,#92] ; [0xf94] = 0x20000230
        0x00000f38:    6809        .h      LDR      r1,[r1,#0]
        0x00000f3a:    1d09        ..      ADDS     r1,r1,#4
        0x00000f3c:    4a15        .J      LDR      r2,[pc,#84] ; [0xf94] = 0x20000230
        0x00000f3e:    6011        .`      STR      r1,[r2,#0]
        0x00000f40:    9901        ..      LDR      r1,[sp,#4]
        0x00000f42:    1c49        I.      ADDS     r1,r1,#1
        0x00000f44:    9101        ..      STR      r1,[sp,#4]
        0x00000f46:    e9dd2100    ...!    LDRD     r2,r1,[sp,#0]
        0x00000f4a:    4291        .B      CMP      r1,r2
        0x00000f4c:    d3ee        ..      BCC      0xf2c ; HSUSBD_CtrlIn + 100
        0x00000f4e:    2100        .!      MOVS     r1,#0
        0x00000f50:    9101        ..      STR      r1,[sp,#4]
        0x00000f52:    e009        ..      B        0xf68 ; HSUSBD_CtrlIn + 160
        0x00000f54:    490f        .I      LDR      r1,[pc,#60] ; [0xf94] = 0x20000230
        0x00000f56:    6809        .h      LDR      r1,[r1,#0]
        0x00000f58:    9a01        ..      LDR      r2,[sp,#4]
        0x00000f5a:    5c88        .\      LDRB     r0,[r1,r2]
        0x00000f5c:    490e        .I      LDR      r1,[pc,#56] ; [0xf98] = 0x40019000
        0x00000f5e:    3128        (1      ADDS     r1,r1,#0x28
        0x00000f60:    7008        .p      STRB     r0,[r1,#0]
        0x00000f62:    9901        ..      LDR      r1,[sp,#4]
        0x00000f64:    1c49        I.      ADDS     r1,r1,#1
        0x00000f66:    9101        ..      STR      r1,[sp,#4]
        0x00000f68:    4908        .I      LDR      r1,[pc,#32] ; [0xf8c] = 0x20000244
        0x00000f6a:    7809        .x      LDRB     r1,[r1,#0]
        0x00000f6c:    f0010103    ....    AND      r1,r1,#3
        0x00000f70:    9a01        ..      LDR      r2,[sp,#4]
        0x00000f72:    4291        .B      CMP      r1,r2
        0x00000f74:    d8ee        ..      BHI      0xf54 ; HSUSBD_CtrlIn + 140
        0x00000f76:    4905        .I      LDR      r1,[pc,#20] ; [0xf8c] = 0x20000244
        0x00000f78:    6809        .h      LDR      r1,[r1,#0]
        0x00000f7a:    4a07        .J      LDR      r2,[pc,#28] ; [0xf98] = 0x40019000
        0x00000f7c:    6391        .c      STR      r1,[r2,#0x38]
        0x00000f7e:    2100        .!      MOVS     r1,#0
        0x00000f80:    4a04        .J      LDR      r2,[pc,#16] ; [0xf94] = 0x20000230
        0x00000f82:    6011        .`      STR      r1,[r2,#0]
        0x00000f84:    4a01        .J      LDR      r2,[pc,#4] ; [0xf8c] = 0x20000244
        0x00000f86:    6011        .`      STR      r1,[r2,#0]
        0x00000f88:    bd0c        ..      POP      {r2,r3,pc}
    $d
        0x00000f8a:    0000        ..      DCW    0
        0x00000f8c:    20000244    D..     DCD    536871492
        0x00000f90:    20000234    4..     DCD    536871476
        0x00000f94:    20000230    0..     DCD    536871472
        0x00000f98:    40019000    ...@    DCD    1073844224
    $t
    i.HSUSBD_GetDescriptor
    HSUSBD_GetDescriptor
        0x00000f9c:    b5f0        ..      PUSH     {r4-r7,lr}
        0x00000f9e:    2500        .%      MOVS     r5,#0
        0x00000fa0:    48b3        .H      LDR      r0,[pc,#716] ; [0x1270] = 0x20000214
        0x00000fa2:    88c3        ..      LDRH     r3,[r0,#6]
        0x00000fa4:    2000        .       MOVS     r0,#0
        0x00000fa6:    49b3        .I      LDR      r1,[pc,#716] ; [0x1274] = 0x2000023d
        0x00000fa8:    7008        .p      STRB     r0,[r1,#0]
        0x00000faa:    48b1        .H      LDR      r0,[pc,#708] ; [0x1270] = 0x20000214
        0x00000fac:    8840        @.      LDRH     r0,[r0,#2]
        0x00000fae:    0a00        ..      LSRS     r0,r0,#8
        0x00000fb0:    2806        .(      CMP      r0,#6
        0x00000fb2:    d063        c.      BEQ      0x107c ; HSUSBD_GetDescriptor + 224
        0x00000fb4:    dc06        ..      BGT      0xfc4 ; HSUSBD_GetDescriptor + 40
        0x00000fb6:    2801        .(      CMP      r0,#1
        0x00000fb8:    d00b        ..      BEQ      0xfd2 ; HSUSBD_GetDescriptor + 54
        0x00000fba:    2802        .(      CMP      r0,#2
        0x00000fbc:    d016        ..      BEQ      0xfec ; HSUSBD_GetDescriptor + 80
        0x00000fbe:    2803        .(      CMP      r0,#3
        0x00000fc0:    d17d        }.      BNE      0x10be ; HSUSBD_GetDescriptor + 290
        0x00000fc2:    e11a        ..      B        0x11fa ; HSUSBD_GetDescriptor + 606
        0x00000fc4:    2807        .(      CMP      r0,#7
        0x00000fc6:    d066        f.      BEQ      0x1096 ; HSUSBD_GetDescriptor + 250
        0x00000fc8:    2821        !(      CMP      r0,#0x21
        0x00000fca:    d079        y.      BEQ      0x10c0 ; HSUSBD_GetDescriptor + 292
        0x00000fcc:    2822        "(      CMP      r0,#0x22
        0x00000fce:    d1f7        ..      BNE      0xfc0 ; HSUSBD_GetDescriptor + 36
        0x00000fd0:    e0c7        ..      B        0x1162 ; HSUSBD_GetDescriptor + 454
        0x00000fd2:    2b12        .+      CMP      r3,#0x12
        0x00000fd4:    d201        ..      BCS      0xfda ; HSUSBD_GetDescriptor + 62
        0x00000fd6:    4618        .F      MOV      r0,r3
        0x00000fd8:    e000        ..      B        0xfdc ; HSUSBD_GetDescriptor + 64
        0x00000fda:    2012        .       MOVS     r0,#0x12
        0x00000fdc:    4603        .F      MOV      r3,r0
        0x00000fde:    49a6        .I      LDR      r1,[pc,#664] ; [0x1278] = 0x2000021c
        0x00000fe0:    6809        .h      LDR      r1,[r1,#0]
        0x00000fe2:    6808        .h      LDR      r0,[r1,#0]
        0x00000fe4:    4619        .F      MOV      r1,r3
        0x00000fe6:    f000f98b    ....    BL       HSUSBD_PrepareCtrlIn ; 0x1300
        0x00000fea:    e13e        >.      B        0x126a ; HSUSBD_GetDescriptor + 718
        0x00000fec:    48a3        .H      LDR      r0,[pc,#652] ; [0x127c] = 0x40019000
        0x00000fee:    6980        .i      LDR      r0,[r0,#0x18]
        0x00000ff0:    f0000004    ....    AND      r0,r0,#4
        0x00000ff4:    2804        .(      CMP      r0,#4
        0x00000ff6:    d120         .      BNE      0x103a ; HSUSBD_GetDescriptor + 158
        0x00000ff8:    489f        .H      LDR      r0,[pc,#636] ; [0x1278] = 0x2000021c
        0x00000ffa:    6800        .h      LDR      r0,[r0,#0]
        0x00000ffc:    6840        @h      LDR      r0,[r0,#4]
        0x00000ffe:    78c4        .x      LDRB     r4,[r0,#3]
        0x00001000:    489d        .H      LDR      r0,[pc,#628] ; [0x1278] = 0x2000021c
        0x00001002:    6800        .h      LDR      r0,[r0,#0]
        0x00001004:    6840        @h      LDR      r0,[r0,#4]
        0x00001006:    7880        .x      LDRB     r0,[r0,#2]
        0x00001008:    eb002404    ...$    ADD      r4,r0,r4,LSL #8
        0x0000100c:    42a3        .B      CMP      r3,r4
        0x0000100e:    d201        ..      BCS      0x1014 ; HSUSBD_GetDescriptor + 120
        0x00001010:    4618        .F      MOV      r0,r3
        0x00001012:    e000        ..      B        0x1016 ; HSUSBD_GetDescriptor + 122
        0x00001014:    4620         F      MOV      r0,r4
        0x00001016:    4603        .F      MOV      r3,r0
        0x00001018:    4899        .H      LDR      r0,[pc,#612] ; [0x1280] = 0x20000234
        0x0000101a:    6800        .h      LDR      r0,[r0,#0]
        0x0000101c:    fbb3f1f0    ....    UDIV     r1,r3,r0
        0x00001020:    fb003011    ...0    MLS      r0,r0,r1,r3
        0x00001024:    b910        ..      CBNZ     r0,0x102c ; HSUSBD_GetDescriptor + 144
        0x00001026:    2001        .       MOVS     r0,#1
        0x00001028:    4992        .I      LDR      r1,[pc,#584] ; [0x1274] = 0x2000023d
        0x0000102a:    7008        .p      STRB     r0,[r1,#0]
        0x0000102c:    4992        .I      LDR      r1,[pc,#584] ; [0x1278] = 0x2000021c
        0x0000102e:    6809        .h      LDR      r1,[r1,#0]
        0x00001030:    6848        Hh      LDR      r0,[r1,#4]
        0x00001032:    4619        .F      MOV      r1,r3
        0x00001034:    f000f964    ..d.    BL       HSUSBD_PrepareCtrlIn ; 0x1300
        0x00001038:    e01f        ..      B        0x107a ; HSUSBD_GetDescriptor + 222
        0x0000103a:    488f        .H      LDR      r0,[pc,#572] ; [0x1278] = 0x2000021c
        0x0000103c:    6800        .h      LDR      r0,[r0,#0]
        0x0000103e:    6900        .i      LDR      r0,[r0,#0x10]
        0x00001040:    78c4        .x      LDRB     r4,[r0,#3]
        0x00001042:    488d        .H      LDR      r0,[pc,#564] ; [0x1278] = 0x2000021c
        0x00001044:    6800        .h      LDR      r0,[r0,#0]
        0x00001046:    6900        .i      LDR      r0,[r0,#0x10]
        0x00001048:    7880        .x      LDRB     r0,[r0,#2]
        0x0000104a:    eb002404    ...$    ADD      r4,r0,r4,LSL #8
        0x0000104e:    42a3        .B      CMP      r3,r4
        0x00001050:    d201        ..      BCS      0x1056 ; HSUSBD_GetDescriptor + 186
        0x00001052:    4618        .F      MOV      r0,r3
        0x00001054:    e000        ..      B        0x1058 ; HSUSBD_GetDescriptor + 188
        0x00001056:    4620         F      MOV      r0,r4
        0x00001058:    4603        .F      MOV      r3,r0
        0x0000105a:    4889        .H      LDR      r0,[pc,#548] ; [0x1280] = 0x20000234
        0x0000105c:    6800        .h      LDR      r0,[r0,#0]
        0x0000105e:    fbb3f1f0    ....    UDIV     r1,r3,r0
        0x00001062:    fb003011    ...0    MLS      r0,r0,r1,r3
        0x00001066:    b910        ..      CBNZ     r0,0x106e ; HSUSBD_GetDescriptor + 210
        0x00001068:    2001        .       MOVS     r0,#1
        0x0000106a:    4982        .I      LDR      r1,[pc,#520] ; [0x1274] = 0x2000023d
        0x0000106c:    7008        .p      STRB     r0,[r1,#0]
        0x0000106e:    4982        .I      LDR      r1,[pc,#520] ; [0x1278] = 0x2000021c
        0x00001070:    6809        .h      LDR      r1,[r1,#0]
        0x00001072:    6908        .i      LDR      r0,[r1,#0x10]
        0x00001074:    4619        .F      MOV      r1,r3
        0x00001076:    f000f943    ..C.    BL       HSUSBD_PrepareCtrlIn ; 0x1300
        0x0000107a:    e0f6        ..      B        0x126a ; HSUSBD_GetDescriptor + 718
        0x0000107c:    2b0a        .+      CMP      r3,#0xa
        0x0000107e:    d201        ..      BCS      0x1084 ; HSUSBD_GetDescriptor + 232
        0x00001080:    4618        .F      MOV      r0,r3
        0x00001082:    e000        ..      B        0x1086 ; HSUSBD_GetDescriptor + 234
        0x00001084:    200a        .       MOVS     r0,#0xa
        0x00001086:    4603        .F      MOV      r3,r0
        0x00001088:    497b        {I      LDR      r1,[pc,#492] ; [0x1278] = 0x2000021c
        0x0000108a:    6809        .h      LDR      r1,[r1,#0]
        0x0000108c:    68c8        .h      LDR      r0,[r1,#0xc]
        0x0000108e:    4619        .F      MOV      r1,r3
        0x00001090:    f000f936    ..6.    BL       HSUSBD_PrepareCtrlIn ; 0x1300
        0x00001094:    e0e9        ..      B        0x126a ; HSUSBD_GetDescriptor + 718
        0x00001096:    4879        yH      LDR      r0,[pc,#484] ; [0x127c] = 0x40019000
        0x00001098:    6980        .i      LDR      r0,[r0,#0x18]
        0x0000109a:    f0000004    ....    AND      r0,r0,#4
        0x0000109e:    2804        .(      CMP      r0,#4
        0x000010a0:    d122        ".      BNE      0x10e8 ; HSUSBD_GetDescriptor + 332
        0x000010a2:    4875        uH      LDR      r0,[pc,#468] ; [0x1278] = 0x2000021c
        0x000010a4:    6800        .h      LDR      r0,[r0,#0]
        0x000010a6:    6940        @i      LDR      r0,[r0,#0x14]
        0x000010a8:    78c4        .x      LDRB     r4,[r0,#3]
        0x000010aa:    4873        sH      LDR      r0,[pc,#460] ; [0x1278] = 0x2000021c
        0x000010ac:    6800        .h      LDR      r0,[r0,#0]
        0x000010ae:    6940        @i      LDR      r0,[r0,#0x14]
        0x000010b0:    7880        .x      LDRB     r0,[r0,#2]
        0x000010b2:    eb002404    ...$    ADD      r4,r0,r4,LSL #8
        0x000010b6:    42a3        .B      CMP      r3,r4
        0x000010b8:    d203        ..      BCS      0x10c2 ; HSUSBD_GetDescriptor + 294
        0x000010ba:    4618        .F      MOV      r0,r3
        0x000010bc:    e002        ..      B        0x10c4 ; HSUSBD_GetDescriptor + 296
        0x000010be:    e0cf        ..      B        0x1260 ; HSUSBD_GetDescriptor + 708
        0x000010c0:    e033        3.      B        0x112a ; HSUSBD_GetDescriptor + 398
        0x000010c2:    4620         F      MOV      r0,r4
        0x000010c4:    4603        .F      MOV      r3,r0
        0x000010c6:    486e        nH      LDR      r0,[pc,#440] ; [0x1280] = 0x20000234
        0x000010c8:    6800        .h      LDR      r0,[r0,#0]
        0x000010ca:    fbb3f1f0    ....    UDIV     r1,r3,r0
        0x000010ce:    fb003011    ...0    MLS      r0,r0,r1,r3
        0x000010d2:    b910        ..      CBNZ     r0,0x10da ; HSUSBD_GetDescriptor + 318
        0x000010d4:    2001        .       MOVS     r0,#1
        0x000010d6:    4967        gI      LDR      r1,[pc,#412] ; [0x1274] = 0x2000023d
        0x000010d8:    7008        .p      STRB     r0,[r1,#0]
        0x000010da:    4967        gI      LDR      r1,[pc,#412] ; [0x1278] = 0x2000021c
        0x000010dc:    6809        .h      LDR      r1,[r1,#0]
        0x000010de:    6948        Hi      LDR      r0,[r1,#0x14]
        0x000010e0:    4619        .F      MOV      r1,r3
        0x000010e2:    f000f90d    ....    BL       HSUSBD_PrepareCtrlIn ; 0x1300
        0x000010e6:    e01f        ..      B        0x1128 ; HSUSBD_GetDescriptor + 396
        0x000010e8:    4863        cH      LDR      r0,[pc,#396] ; [0x1278] = 0x2000021c
        0x000010ea:    6800        .h      LDR      r0,[r0,#0]
        0x000010ec:    6980        .i      LDR      r0,[r0,#0x18]
        0x000010ee:    78c4        .x      LDRB     r4,[r0,#3]
        0x000010f0:    4861        aH      LDR      r0,[pc,#388] ; [0x1278] = 0x2000021c
        0x000010f2:    6800        .h      LDR      r0,[r0,#0]
        0x000010f4:    6980        .i      LDR      r0,[r0,#0x18]
        0x000010f6:    7880        .x      LDRB     r0,[r0,#2]
        0x000010f8:    eb002404    ...$    ADD      r4,r0,r4,LSL #8
        0x000010fc:    42a3        .B      CMP      r3,r4
        0x000010fe:    d201        ..      BCS      0x1104 ; HSUSBD_GetDescriptor + 360
        0x00001100:    4618        .F      MOV      r0,r3
        0x00001102:    e000        ..      B        0x1106 ; HSUSBD_GetDescriptor + 362
        0x00001104:    4620         F      MOV      r0,r4
        0x00001106:    4603        .F      MOV      r3,r0
        0x00001108:    485d        ]H      LDR      r0,[pc,#372] ; [0x1280] = 0x20000234
        0x0000110a:    6800        .h      LDR      r0,[r0,#0]
        0x0000110c:    fbb3f1f0    ....    UDIV     r1,r3,r0
        0x00001110:    fb003011    ...0    MLS      r0,r0,r1,r3
        0x00001114:    b910        ..      CBNZ     r0,0x111c ; HSUSBD_GetDescriptor + 384
        0x00001116:    2001        .       MOVS     r0,#1
        0x00001118:    4956        VI      LDR      r1,[pc,#344] ; [0x1274] = 0x2000023d
        0x0000111a:    7008        .p      STRB     r0,[r1,#0]
        0x0000111c:    4956        VI      LDR      r1,[pc,#344] ; [0x1278] = 0x2000021c
        0x0000111e:    6809        .h      LDR      r1,[r1,#0]
        0x00001120:    6988        .i      LDR      r0,[r1,#0x18]
        0x00001122:    4619        .F      MOV      r1,r3
        0x00001124:    f000f8ec    ....    BL       HSUSBD_PrepareCtrlIn ; 0x1300
        0x00001128:    e09f        ..      B        0x126a ; HSUSBD_GetDescriptor + 718
        0x0000112a:    2b09        .+      CMP      r3,#9
        0x0000112c:    d201        ..      BCS      0x1132 ; HSUSBD_GetDescriptor + 406
        0x0000112e:    4618        .F      MOV      r0,r3
        0x00001130:    e000        ..      B        0x1134 ; HSUSBD_GetDescriptor + 408
        0x00001132:    2009        .       MOVS     r0,#9
        0x00001134:    4603        .F      MOV      r3,r0
        0x00001136:    4953        SI      LDR      r1,[pc,#332] ; [0x1284] = 0x200002b0
        0x00001138:    484f        OH      LDR      r0,[pc,#316] ; [0x1278] = 0x2000021c
        0x0000113a:    6800        .h      LDR      r0,[r0,#0]
        0x0000113c:    6840        @h      LDR      r0,[r0,#4]
        0x0000113e:    f1000212    ....    ADD      r2,r0,#0x12
        0x00001142:    461c        .F      MOV      r4,r3
        0x00001144:    2000        .       MOVS     r0,#0
        0x00001146:    e002        ..      B        0x114e ; HSUSBD_GetDescriptor + 434
        0x00001148:    5c16        .\      LDRB     r6,[r2,r0]
        0x0000114a:    540e        .T      STRB     r6,[r1,r0]
        0x0000114c:    1c40        @.      ADDS     r0,r0,#1
        0x0000114e:    1e26        &.      SUBS     r6,r4,#0
        0x00001150:    f1a40401    ....    SUB      r4,r4,#1
        0x00001154:    d1f8        ..      BNE      0x1148 ; HSUSBD_GetDescriptor + 428
        0x00001156:    bf00        ..      NOP      
        0x00001158:    4619        .F      MOV      r1,r3
        0x0000115a:    484a        JH      LDR      r0,[pc,#296] ; [0x1284] = 0x200002b0
        0x0000115c:    f000f8d0    ....    BL       HSUSBD_PrepareCtrlIn ; 0x1300
        0x00001160:    e083        ..      B        0x126a ; HSUSBD_GetDescriptor + 718
        0x00001162:    4847        GH      LDR      r0,[pc,#284] ; [0x1280] = 0x20000234
        0x00001164:    6800        .h      LDR      r0,[r0,#0]
        0x00001166:    fbb3f1f0    ....    UDIV     r1,r3,r0
        0x0000116a:    fb003011    ...0    MLS      r0,r0,r1,r3
        0x0000116e:    b910        ..      CBNZ     r0,0x1176 ; HSUSBD_GetDescriptor + 474
        0x00001170:    2001        .       MOVS     r0,#1
        0x00001172:    4940        @I      LDR      r1,[pc,#256] ; [0x1274] = 0x2000023d
        0x00001174:    7008        .p      STRB     r0,[r1,#0]
        0x00001176:    4841        AH      LDR      r0,[pc,#260] ; [0x127c] = 0x40019000
        0x00001178:    6980        .i      LDR      r0,[r0,#0x18]
        0x0000117a:    f0000004    ....    AND      r0,r0,#4
        0x0000117e:    2804        .(      CMP      r0,#4
        0x00001180:    d11d        ..      BNE      0x11be ; HSUSBD_GetDescriptor + 546
        0x00001182:    483d        =H      LDR      r0,[pc,#244] ; [0x1278] = 0x2000021c
        0x00001184:    6800        .h      LDR      r0,[r0,#0]
        0x00001186:    6a00        .j      LDR      r0,[r0,#0x20]
        0x00001188:    4939        9I      LDR      r1,[pc,#228] ; [0x1270] = 0x20000214
        0x0000118a:    7909        .y      LDRB     r1,[r1,#4]
        0x0000118c:    f8500021    P.!.    LDR      r0,[r0,r1,LSL #2]
        0x00001190:    4298        .B      CMP      r0,r3
        0x00001192:    d901        ..      BLS      0x1198 ; HSUSBD_GetDescriptor + 508
        0x00001194:    4618        .F      MOV      r0,r3
        0x00001196:    e006        ..      B        0x11a6 ; HSUSBD_GetDescriptor + 522
        0x00001198:    4837        7H      LDR      r0,[pc,#220] ; [0x1278] = 0x2000021c
        0x0000119a:    6800        .h      LDR      r0,[r0,#0]
        0x0000119c:    6a00        .j      LDR      r0,[r0,#0x20]
        0x0000119e:    4934        4I      LDR      r1,[pc,#208] ; [0x1270] = 0x20000214
        0x000011a0:    7909        .y      LDRB     r1,[r1,#4]
        0x000011a2:    f8500021    P.!.    LDR      r0,[r0,r1,LSL #2]
        0x000011a6:    4603        .F      MOV      r3,r0
        0x000011a8:    4933        3I      LDR      r1,[pc,#204] ; [0x1278] = 0x2000021c
        0x000011aa:    6809        .h      LDR      r1,[r1,#0]
        0x000011ac:    69c9        .i      LDR      r1,[r1,#0x1c]
        0x000011ae:    4a30        0J      LDR      r2,[pc,#192] ; [0x1270] = 0x20000214
        0x000011b0:    7912        .y      LDRB     r2,[r2,#4]
        0x000011b2:    f8510022    Q.".    LDR      r0,[r1,r2,LSL #2]
        0x000011b6:    4619        .F      MOV      r1,r3
        0x000011b8:    f000f8a2    ....    BL       HSUSBD_PrepareCtrlIn ; 0x1300
        0x000011bc:    e01c        ..      B        0x11f8 ; HSUSBD_GetDescriptor + 604
        0x000011be:    482e        .H      LDR      r0,[pc,#184] ; [0x1278] = 0x2000021c
        0x000011c0:    6800        .h      LDR      r0,[r0,#0]
        0x000011c2:    6a80        .j      LDR      r0,[r0,#0x28]
        0x000011c4:    492a        *I      LDR      r1,[pc,#168] ; [0x1270] = 0x20000214
        0x000011c6:    7909        .y      LDRB     r1,[r1,#4]
        0x000011c8:    f8500021    P.!.    LDR      r0,[r0,r1,LSL #2]
        0x000011cc:    4298        .B      CMP      r0,r3
        0x000011ce:    d901        ..      BLS      0x11d4 ; HSUSBD_GetDescriptor + 568
        0x000011d0:    4618        .F      MOV      r0,r3
        0x000011d2:    e006        ..      B        0x11e2 ; HSUSBD_GetDescriptor + 582
        0x000011d4:    4828        (H      LDR      r0,[pc,#160] ; [0x1278] = 0x2000021c
        0x000011d6:    6800        .h      LDR      r0,[r0,#0]
        0x000011d8:    6a80        .j      LDR      r0,[r0,#0x28]
        0x000011da:    4925        %I      LDR      r1,[pc,#148] ; [0x1270] = 0x20000214
        0x000011dc:    7909        .y      LDRB     r1,[r1,#4]
        0x000011de:    f8500021    P.!.    LDR      r0,[r0,r1,LSL #2]
        0x000011e2:    4603        .F      MOV      r3,r0
        0x000011e4:    4924        $I      LDR      r1,[pc,#144] ; [0x1278] = 0x2000021c
        0x000011e6:    6809        .h      LDR      r1,[r1,#0]
        0x000011e8:    6a49        Ij      LDR      r1,[r1,#0x24]
        0x000011ea:    4a21        !J      LDR      r2,[pc,#132] ; [0x1270] = 0x20000214
        0x000011ec:    7912        .y      LDRB     r2,[r2,#4]
        0x000011ee:    f8510022    Q.".    LDR      r0,[r1,r2,LSL #2]
        0x000011f2:    4619        .F      MOV      r1,r3
        0x000011f4:    f000f884    ....    BL       HSUSBD_PrepareCtrlIn ; 0x1300
        0x000011f8:    e037        7.      B        0x126a ; HSUSBD_GetDescriptor + 718
        0x000011fa:    481d        .H      LDR      r0,[pc,#116] ; [0x1270] = 0x20000214
        0x000011fc:    7880        .x      LDRB     r0,[r0,#2]
        0x000011fe:    2808        .(      CMP      r0,#8
        0x00001200:    d229        ).      BCS      0x1256 ; HSUSBD_GetDescriptor + 698
        0x00001202:    481d        .H      LDR      r0,[pc,#116] ; [0x1278] = 0x2000021c
        0x00001204:    6800        .h      LDR      r0,[r0,#0]
        0x00001206:    6880        .h      LDR      r0,[r0,#8]
        0x00001208:    4919        .I      LDR      r1,[pc,#100] ; [0x1270] = 0x20000214
        0x0000120a:    7889        .x      LDRB     r1,[r1,#2]
        0x0000120c:    f8500021    P.!.    LDR      r0,[r0,r1,LSL #2]
        0x00001210:    7800        .x      LDRB     r0,[r0,#0]
        0x00001212:    4298        .B      CMP      r0,r3
        0x00001214:    d901        ..      BLS      0x121a ; HSUSBD_GetDescriptor + 638
        0x00001216:    4618        .F      MOV      r0,r3
        0x00001218:    e007        ..      B        0x122a ; HSUSBD_GetDescriptor + 654
        0x0000121a:    4817        .H      LDR      r0,[pc,#92] ; [0x1278] = 0x2000021c
        0x0000121c:    6800        .h      LDR      r0,[r0,#0]
        0x0000121e:    6880        .h      LDR      r0,[r0,#8]
        0x00001220:    4913        .I      LDR      r1,[pc,#76] ; [0x1270] = 0x20000214
        0x00001222:    7889        .x      LDRB     r1,[r1,#2]
        0x00001224:    f8500021    P.!.    LDR      r0,[r0,r1,LSL #2]
        0x00001228:    7800        .x      LDRB     r0,[r0,#0]
        0x0000122a:    4603        .F      MOV      r3,r0
        0x0000122c:    4814        .H      LDR      r0,[pc,#80] ; [0x1280] = 0x20000234
        0x0000122e:    6800        .h      LDR      r0,[r0,#0]
        0x00001230:    fbb3f1f0    ....    UDIV     r1,r3,r0
        0x00001234:    fb003011    ...0    MLS      r0,r0,r1,r3
        0x00001238:    b910        ..      CBNZ     r0,0x1240 ; HSUSBD_GetDescriptor + 676
        0x0000123a:    2001        .       MOVS     r0,#1
        0x0000123c:    490d        .I      LDR      r1,[pc,#52] ; [0x1274] = 0x2000023d
        0x0000123e:    7008        .p      STRB     r0,[r1,#0]
        0x00001240:    490d        .I      LDR      r1,[pc,#52] ; [0x1278] = 0x2000021c
        0x00001242:    6809        .h      LDR      r1,[r1,#0]
        0x00001244:    6889        .h      LDR      r1,[r1,#8]
        0x00001246:    4a0a        .J      LDR      r2,[pc,#40] ; [0x1270] = 0x20000214
        0x00001248:    7892        .x      LDRB     r2,[r2,#2]
        0x0000124a:    f8510022    Q.".    LDR      r0,[r1,r2,LSL #2]
        0x0000124e:    4619        .F      MOV      r1,r3
        0x00001250:    f000f856    ..V.    BL       HSUSBD_PrepareCtrlIn ; 0x1300
        0x00001254:    e003        ..      B        0x125e ; HSUSBD_GetDescriptor + 706
        0x00001256:    2002        .       MOVS     r0,#2
        0x00001258:    4908        .I      LDR      r1,[pc,#32] ; [0x127c] = 0x40019000
        0x0000125a:    62c8        .b      STR      r0,[r1,#0x2c]
        0x0000125c:    2501        .%      MOVS     r5,#1
        0x0000125e:    e004        ..      B        0x126a ; HSUSBD_GetDescriptor + 718
        0x00001260:    2002        .       MOVS     r0,#2
        0x00001262:    4906        .I      LDR      r1,[pc,#24] ; [0x127c] = 0x40019000
        0x00001264:    62c8        .b      STR      r0,[r1,#0x2c]
        0x00001266:    2501        .%      MOVS     r5,#1
        0x00001268:    bf00        ..      NOP      
        0x0000126a:    bf00        ..      NOP      
        0x0000126c:    4628        (F      MOV      r0,r5
        0x0000126e:    bdf0        ..      POP      {r4-r7,pc}
    $d
        0x00001270:    20000214    ...     DCD    536871444
        0x00001274:    2000023d    =..     DCD    536871485
        0x00001278:    2000021c    ...     DCD    536871452
        0x0000127c:    40019000    ...@    DCD    1073844224
        0x00001280:    20000234    4..     DCD    536871476
        0x00001284:    200002b0    ...     DCD    536871600
    $t
    i.HSUSBD_MemCopy
    HSUSBD_MemCopy
        0x00001288:    b530        0.      PUSH     {r4,r5,lr}
        0x0000128a:    4603        .F      MOV      r3,r0
        0x0000128c:    2000        .       MOVS     r0,#0
        0x0000128e:    e002        ..      B        0x1296 ; HSUSBD_MemCopy + 14
        0x00001290:    5c0c        .\      LDRB     r4,[r1,r0]
        0x00001292:    541c        .T      STRB     r4,[r3,r0]
        0x00001294:    1c40        @.      ADDS     r0,r0,#1
        0x00001296:    1e14        ..      SUBS     r4,r2,#0
        0x00001298:    f1a20201    ....    SUB      r2,r2,#1
        0x0000129c:    d1f8        ..      BNE      0x1290 ; HSUSBD_MemCopy + 8
        0x0000129e:    bd30        0.      POP      {r4,r5,pc}
    i.HSUSBD_Open
    HSUSBD_Open
        0x000012a0:    b510        ..      PUSH     {r4,lr}
        0x000012a2:    4b11        .K      LDR      r3,[pc,#68] ; [0x12e8] = 0x2000021c
        0x000012a4:    6018        .`      STR      r0,[r3,#0]
        0x000012a6:    4b11        .K      LDR      r3,[pc,#68] ; [0x12ec] = 0x20000224
        0x000012a8:    6019        .`      STR      r1,[r3,#0]
        0x000012aa:    4b11        .K      LDR      r3,[pc,#68] ; [0x12f0] = 0x20000228
        0x000012ac:    601a        .`      STR      r2,[r3,#0]
        0x000012ae:    4b0e        .K      LDR      r3,[pc,#56] ; [0x12e8] = 0x2000021c
        0x000012b0:    681b        .h      LDR      r3,[r3,#0]
        0x000012b2:    681b        .h      LDR      r3,[r3,#0]
        0x000012b4:    79db        .y      LDRB     r3,[r3,#7]
        0x000012b6:    4c0f        .L      LDR      r4,[pc,#60] ; [0x12f4] = 0x20000234
        0x000012b8:    6023        #`      STR      r3,[r4,#0]
        0x000012ba:    4b0f        .K      LDR      r3,[pc,#60] ; [0x12f8] = 0x40019704
        0x000012bc:    681b        .h      LDR      r3,[r3,#0]
        0x000012be:    f4437300    C..s    ORR      r3,r3,#0x200
        0x000012c2:    4c0d        .L      LDR      r4,[pc,#52] ; [0x12f8] = 0x40019704
        0x000012c4:    6023        #`      STR      r3,[r4,#0]
        0x000012c6:    e006        ..      B        0x12d6 ; HSUSBD_Open + 54
        0x000012c8:    2420         $      MOVS     r4,#0x20
        0x000012ca:    4b0c        .K      LDR      r3,[pc,#48] ; [0x12fc] = 0x40019000
        0x000012cc:    679c        .g      STR      r4,[r3,#0x78]
        0x000012ce:    6f9b        .o      LDR      r3,[r3,#0x78]
        0x000012d0:    2b20         +      CMP      r3,#0x20
        0x000012d2:    d100        ..      BNE      0x12d6 ; HSUSBD_Open + 54
        0x000012d4:    e000        ..      B        0x12d8 ; HSUSBD_Open + 56
        0x000012d6:    e7f7        ..      B        0x12c8 ; HSUSBD_Open + 40
        0x000012d8:    bf00        ..      NOP      
        0x000012da:    4b07        .K      LDR      r3,[pc,#28] ; [0x12f8] = 0x40019704
        0x000012dc:    681b        .h      LDR      r3,[r3,#0]
        0x000012de:    f4237380    #..s    BIC      r3,r3,#0x100
        0x000012e2:    4c05        .L      LDR      r4,[pc,#20] ; [0x12f8] = 0x40019704
        0x000012e4:    6023        #`      STR      r3,[r4,#0]
        0x000012e6:    bd10        ..      POP      {r4,pc}
    $d
        0x000012e8:    2000021c    ...     DCD    536871452
        0x000012ec:    20000224    $..     DCD    536871460
        0x000012f0:    20000228    (..     DCD    536871464
        0x000012f4:    20000234    4..     DCD    536871476
        0x000012f8:    40019704    ...@    DCD    1073846020
        0x000012fc:    40019000    ...@    DCD    1073844224
    $t
    i.HSUSBD_PrepareCtrlIn
    HSUSBD_PrepareCtrlIn
        0x00001300:    4a02        .J      LDR      r2,[pc,#8] ; [0x130c] = 0x20000230
        0x00001302:    6010        .`      STR      r0,[r2,#0]
        0x00001304:    4a02        .J      LDR      r2,[pc,#8] ; [0x1310] = 0x20000244
        0x00001306:    6011        .`      STR      r1,[r2,#0]
        0x00001308:    4770        pG      BX       lr
    $d
        0x0000130a:    0000        ..      DCW    0
        0x0000130c:    20000230    0..     DCD    536871472
        0x00001310:    20000244    D..     DCD    536871492
    $t
    i.HSUSBD_ProcessSetupPacket
    HSUSBD_ProcessSetupPacket
        0x00001314:    b510        ..      PUSH     {r4,lr}
        0x00001316:    4819        .H      LDR      r0,[pc,#100] ; [0x137c] = 0x40019000
        0x00001318:    6c40        @l      LDR      r0,[r0,#0x44]
        0x0000131a:    4919        .I      LDR      r1,[pc,#100] ; [0x1380] = 0x20000214
        0x0000131c:    7008        .p      STRB     r0,[r1,#0]
        0x0000131e:    4817        .H      LDR      r0,[pc,#92] ; [0x137c] = 0x40019000
        0x00001320:    6c40        @l      LDR      r0,[r0,#0x44]
        0x00001322:    0a00        ..      LSRS     r0,r0,#8
        0x00001324:    7048        Hp      STRB     r0,[r1,#1]
        0x00001326:    4815        .H      LDR      r0,[pc,#84] ; [0x137c] = 0x40019000
        0x00001328:    6c80        .l      LDR      r0,[r0,#0x48]
        0x0000132a:    8048        H.      STRH     r0,[r1,#2]
        0x0000132c:    4813        .H      LDR      r0,[pc,#76] ; [0x137c] = 0x40019000
        0x0000132e:    6cc0        .l      LDR      r0,[r0,#0x4c]
        0x00001330:    8088        ..      STRH     r0,[r1,#4]
        0x00001332:    4812        .H      LDR      r0,[pc,#72] ; [0x137c] = 0x40019000
        0x00001334:    6d00        .m      LDR      r0,[r0,#0x50]
        0x00001336:    80c8        ..      STRH     r0,[r1,#6]
        0x00001338:    4608        .F      MOV      r0,r1
        0x0000133a:    7800        .x      LDRB     r0,[r0,#0]
        0x0000133c:    f0000060    ..`.    AND      r0,r0,#0x60
        0x00001340:    b120         .      CBZ      r0,0x134c ; HSUSBD_ProcessSetupPacket + 56
        0x00001342:    2820         (      CMP      r0,#0x20
        0x00001344:    d005        ..      BEQ      0x1352 ; HSUSBD_ProcessSetupPacket + 62
        0x00001346:    2840        @(      CMP      r0,#0x40
        0x00001348:    d111        ..      BNE      0x136e ; HSUSBD_ProcessSetupPacket + 90
        0x0000134a:    e009        ..      B        0x1360 ; HSUSBD_ProcessSetupPacket + 76
        0x0000134c:    f000f83c    ..<.    BL       HSUSBD_StandardRequest ; 0x13c8
        0x00001350:    e011        ..      B        0x1376 ; HSUSBD_ProcessSetupPacket + 98
        0x00001352:    480c        .H      LDR      r0,[pc,#48] ; [0x1384] = 0x20000224
        0x00001354:    6800        .h      LDR      r0,[r0,#0]
        0x00001356:    b110        ..      CBZ      r0,0x135e ; HSUSBD_ProcessSetupPacket + 74
        0x00001358:    480a        .H      LDR      r0,[pc,#40] ; [0x1384] = 0x20000224
        0x0000135a:    6800        .h      LDR      r0,[r0,#0]
        0x0000135c:    4780        .G      BLX      r0
        0x0000135e:    e00a        ..      B        0x1376 ; HSUSBD_ProcessSetupPacket + 98
        0x00001360:    4809        .H      LDR      r0,[pc,#36] ; [0x1388] = 0x20000220
        0x00001362:    6800        .h      LDR      r0,[r0,#0]
        0x00001364:    b110        ..      CBZ      r0,0x136c ; HSUSBD_ProcessSetupPacket + 88
        0x00001366:    4808        .H      LDR      r0,[pc,#32] ; [0x1388] = 0x20000220
        0x00001368:    6800        .h      LDR      r0,[r0,#0]
        0x0000136a:    4780        .G      BLX      r0
        0x0000136c:    e003        ..      B        0x1376 ; HSUSBD_ProcessSetupPacket + 98
        0x0000136e:    2002        .       MOVS     r0,#2
        0x00001370:    4902        .I      LDR      r1,[pc,#8] ; [0x137c] = 0x40019000
        0x00001372:    62c8        .b      STR      r0,[r1,#0x2c]
        0x00001374:    bf00        ..      NOP      
        0x00001376:    bf00        ..      NOP      
        0x00001378:    bd10        ..      POP      {r4,pc}
    $d
        0x0000137a:    0000        ..      DCW    0
        0x0000137c:    40019000    ...@    DCD    1073844224
        0x00001380:    20000214    ...     DCD    536871444
        0x00001384:    20000224    $..     DCD    536871460
        0x00001388:    20000220     ..     DCD    536871456
    $t
    i.HSUSBD_SetEpBufAddr
    HSUSBD_SetEpBufAddr
        0x0000138c:    b530        0.      PUSH     {r4,r5,lr}
        0x0000138e:    28ff        .(      CMP      r0,#0xff
        0x00001390:    d106        ..      BNE      0x13a0 ; HSUSBD_SetEpBufAddr + 20
        0x00001392:    4b0c        .K      LDR      r3,[pc,#48] ; [0x13c4] = 0x40019000
        0x00001394:    6559        Ye      STR      r1,[r3,#0x54]
        0x00001396:    188b        ..      ADDS     r3,r1,r2
        0x00001398:    1e5b        [.      SUBS     r3,r3,#1
        0x0000139a:    4c0a        .L      LDR      r4,[pc,#40] ; [0x13c4] = 0x40019000
        0x0000139c:    65a3        .e      STR      r3,[r4,#0x58]
        0x0000139e:    e00f        ..      B        0x13c0 ; HSUSBD_SetEpBufAddr + 52
        0x000013a0:    4b08        .K      LDR      r3,[pc,#32] ; [0x13c4] = 0x40019000
        0x000013a2:    3364        d3      ADDS     r3,r3,#0x64
        0x000013a4:    eb000480    ....    ADD      r4,r0,r0,LSL #2
        0x000013a8:    eb0303c4    ....    ADD      r3,r3,r4,LSL #3
        0x000013ac:    6219        .b      STR      r1,[r3,#0x20]
        0x000013ae:    188b        ..      ADDS     r3,r1,r2
        0x000013b0:    1e5b        [.      SUBS     r3,r3,#1
        0x000013b2:    4c04        .L      LDR      r4,[pc,#16] ; [0x13c4] = 0x40019000
        0x000013b4:    3464        d4      ADDS     r4,r4,#0x64
        0x000013b6:    eb000580    ....    ADD      r5,r0,r0,LSL #2
        0x000013ba:    eb0404c5    ....    ADD      r4,r4,r5,LSL #3
        0x000013be:    6263        cb      STR      r3,[r4,#0x24]
        0x000013c0:    bd30        0.      POP      {r4,r5,pc}
    $d
        0x000013c2:    0000        ..      DCW    0
        0x000013c4:    40019000    ...@    DCD    1073844224
    $t
    i.HSUSBD_StandardRequest
    HSUSBD_StandardRequest
        0x000013c8:    b570        p.      PUSH     {r4-r6,lr}
        0x000013ca:    2000        .       MOVS     r0,#0
        0x000013cc:    4996        .I      LDR      r1,[pc,#600] ; [0x1628] = 0x20000230
        0x000013ce:    6008        .`      STR      r0,[r1,#0]
        0x000013d0:    4996        .I      LDR      r1,[pc,#600] ; [0x162c] = 0x20000244
        0x000013d2:    6008        .`      STR      r0,[r1,#0]
        0x000013d4:    4896        .H      LDR      r0,[pc,#600] ; [0x1630] = 0x20000214
        0x000013d6:    7800        .x      LDRB     r0,[r0,#0]
        0x000013d8:    f0000080    ....    AND      r0,r0,#0x80
        0x000013dc:    2880        .(      CMP      r0,#0x80
        0x000013de:    d17f        ..      BNE      0x14e0 ; HSUSBD_StandardRequest + 280
        0x000013e0:    4893        .H      LDR      r0,[pc,#588] ; [0x1630] = 0x20000214
        0x000013e2:    7840        @x      LDRB     r0,[r0,#1]
        0x000013e4:    b300        ..      CBZ      r0,0x1428 ; HSUSBD_StandardRequest + 96
        0x000013e6:    2806        .(      CMP      r0,#6
        0x000013e8:    d00d        ..      BEQ      0x1406 ; HSUSBD_StandardRequest + 62
        0x000013ea:    2808        .(      CMP      r0,#8
        0x000013ec:    d002        ..      BEQ      0x13f4 ; HSUSBD_StandardRequest + 44
        0x000013ee:    280a        .(      CMP      r0,#0xa
        0x000013f0:    d171        q.      BNE      0x14d6 ; HSUSBD_StandardRequest + 270
        0x000013f2:    e010        ..      B        0x1416 ; HSUSBD_StandardRequest + 78
        0x000013f4:    2101        .!      MOVS     r1,#1
        0x000013f6:    488f        .H      LDR      r0,[pc,#572] ; [0x1634] = 0x20000238
        0x000013f8:    f7ffff82    ....    BL       HSUSBD_PrepareCtrlIn ; 0x1300
        0x000013fc:    2008        .       MOVS     r0,#8
        0x000013fe:    498e        .I      LDR      r1,[pc,#568] ; [0x1638] = 0x40019000
        0x00001400:    6348        Hc      STR      r0,[r1,#0x34]
        0x00001402:    6308        .c      STR      r0,[r1,#0x30]
        0x00001404:    e06b        k.      B        0x14de ; HSUSBD_StandardRequest + 278
        0x00001406:    f7fffdc9    ....    BL       HSUSBD_GetDescriptor ; 0xf9c
        0x0000140a:    b918        ..      CBNZ     r0,0x1414 ; HSUSBD_StandardRequest + 76
        0x0000140c:    2008        .       MOVS     r0,#8
        0x0000140e:    498a        .I      LDR      r1,[pc,#552] ; [0x1638] = 0x40019000
        0x00001410:    6348        Hc      STR      r0,[r1,#0x34]
        0x00001412:    6308        .c      STR      r0,[r1,#0x30]
        0x00001414:    e063        c.      B        0x14de ; HSUSBD_StandardRequest + 278
        0x00001416:    2101        .!      MOVS     r1,#1
        0x00001418:    4888        .H      LDR      r0,[pc,#544] ; [0x163c] = 0x20000239
        0x0000141a:    f7ffff71    ..q.    BL       HSUSBD_PrepareCtrlIn ; 0x1300
        0x0000141e:    2008        .       MOVS     r0,#8
        0x00001420:    4985        .I      LDR      r1,[pc,#532] ; [0x1638] = 0x40019000
        0x00001422:    6348        Hc      STR      r0,[r1,#0x34]
        0x00001424:    6308        .c      STR      r0,[r1,#0x30]
        0x00001426:    e05a        Z.      B        0x14de ; HSUSBD_StandardRequest + 278
        0x00001428:    4881        .H      LDR      r0,[pc,#516] ; [0x1630] = 0x20000214
        0x0000142a:    7800        .x      LDRB     r0,[r0,#0]
        0x0000142c:    2880        .(      CMP      r0,#0x80
        0x0000142e:    d10f        ..      BNE      0x1450 ; HSUSBD_StandardRequest + 136
        0x00001430:    4883        .H      LDR      r0,[pc,#524] ; [0x1640] = 0x2000021c
        0x00001432:    6800        .h      LDR      r0,[r0,#0]
        0x00001434:    6840        @h      LDR      r0,[r0,#4]
        0x00001436:    79c0        .y      LDRB     r0,[r0,#7]
        0x00001438:    f0000040    ..@.    AND      r0,r0,#0x40
        0x0000143c:    2840        @(      CMP      r0,#0x40
        0x0000143e:    d103        ..      BNE      0x1448 ; HSUSBD_StandardRequest + 128
        0x00001440:    2001        .       MOVS     r0,#1
        0x00001442:    4980        .I      LDR      r1,[pc,#512] ; [0x1644] = 0x200002b0
        0x00001444:    7008        .p      STRB     r0,[r1,#0]
        0x00001446:    e038        8.      B        0x14ba ; HSUSBD_StandardRequest + 242
        0x00001448:    2000        .       MOVS     r0,#0
        0x0000144a:    497e        ~I      LDR      r1,[pc,#504] ; [0x1644] = 0x200002b0
        0x0000144c:    7008        .p      STRB     r0,[r1,#0]
        0x0000144e:    e034        4.      B        0x14ba ; HSUSBD_StandardRequest + 242
        0x00001450:    4877        wH      LDR      r0,[pc,#476] ; [0x1630] = 0x20000214
        0x00001452:    7800        .x      LDRB     r0,[r0,#0]
        0x00001454:    2881        .(      CMP      r0,#0x81
        0x00001456:    d103        ..      BNE      0x1460 ; HSUSBD_StandardRequest + 152
        0x00001458:    2000        .       MOVS     r0,#0
        0x0000145a:    497a        zI      LDR      r1,[pc,#488] ; [0x1644] = 0x200002b0
        0x0000145c:    7008        .p      STRB     r0,[r1,#0]
        0x0000145e:    e02c        ,.      B        0x14ba ; HSUSBD_StandardRequest + 242
        0x00001460:    4873        sH      LDR      r0,[pc,#460] ; [0x1630] = 0x20000214
        0x00001462:    7800        .x      LDRB     r0,[r0,#0]
        0x00001464:    2882        .(      CMP      r0,#0x82
        0x00001466:    d128        (.      BNE      0x14ba ; HSUSBD_StandardRequest + 242
        0x00001468:    4871        qH      LDR      r0,[pc,#452] ; [0x1630] = 0x20000214
        0x0000146a:    7900        .y      LDRB     r0,[r0,#4]
        0x0000146c:    f000020f    ....    AND      r2,r0,#0xf
        0x00001470:    4611        .F      MOV      r1,r2
        0x00001472:    2300        .#      MOVS     r3,#0
        0x00001474:    2000        .       MOVS     r0,#0
        0x00001476:    e015        ..      B        0x14a4 ; HSUSBD_StandardRequest + 220
        0x00001478:    4c6f        oL      LDR      r4,[pc,#444] ; [0x1638] = 0x40019000
        0x0000147a:    3464        d4      ADDS     r4,r4,#0x64
        0x0000147c:    eb000580    ....    ADD      r5,r0,r0,LSL #2
        0x00001480:    eb0404c5    ....    ADD      r4,r4,r5,LSL #3
        0x00001484:    69e4        .i      LDR      r4,[r4,#0x1c]
        0x00001486:    f3c41403    ....    UBFX     r4,r4,#4,#4
        0x0000148a:    428c        .B      CMP      r4,r1
        0x0000148c:    d109        ..      BNE      0x14a2 ; HSUSBD_StandardRequest + 218
        0x0000148e:    4c6a        jL      LDR      r4,[pc,#424] ; [0x1638] = 0x40019000
        0x00001490:    3464        d4      ADDS     r4,r4,#0x64
        0x00001492:    eb000580    ....    ADD      r5,r0,r0,LSL #2
        0x00001496:    eb0404c5    ....    ADD      r4,r4,r5,LSL #3
        0x0000149a:    6924        $i      LDR      r4,[r4,#0x10]
        0x0000149c:    f0040310    ....    AND      r3,r4,#0x10
        0x000014a0:    e002        ..      B        0x14a8 ; HSUSBD_StandardRequest + 224
        0x000014a2:    1c40        @.      ADDS     r0,r0,#1
        0x000014a4:    280c        .(      CMP      r0,#0xc
        0x000014a6:    d3e7        ..      BCC      0x1478 ; HSUSBD_StandardRequest + 176
        0x000014a8:    bf00        ..      NOP      
        0x000014aa:    b2d8        ..      UXTB     r0,r3
        0x000014ac:    b108        ..      CBZ      r0,0x14b2 ; HSUSBD_StandardRequest + 234
        0x000014ae:    2001        .       MOVS     r0,#1
        0x000014b0:    e000        ..      B        0x14b4 ; HSUSBD_StandardRequest + 236
        0x000014b2:    2000        .       MOVS     r0,#0
        0x000014b4:    4963        cI      LDR      r1,[pc,#396] ; [0x1644] = 0x200002b0
        0x000014b6:    7008        .p      STRB     r0,[r1,#0]
        0x000014b8:    bf00        ..      NOP      
        0x000014ba:    2000        .       MOVS     r0,#0
        0x000014bc:    4961        aI      LDR      r1,[pc,#388] ; [0x1644] = 0x200002b0
        0x000014be:    7048        Hp      STRB     r0,[r1,#1]
        0x000014c0:    2102        .!      MOVS     r1,#2
        0x000014c2:    4860        `H      LDR      r0,[pc,#384] ; [0x1644] = 0x200002b0
        0x000014c4:    f7ffff1c    ....    BL       HSUSBD_PrepareCtrlIn ; 0x1300
        0x000014c8:    2008        .       MOVS     r0,#8
        0x000014ca:    495b        [I      LDR      r1,[pc,#364] ; [0x1638] = 0x40019000
        0x000014cc:    6348        Hc      STR      r0,[r1,#0x34]
        0x000014ce:    6308        .c      STR      r0,[r1,#0x30]
        0x000014d0:    e005        ..      B        0x14de ; HSUSBD_StandardRequest + 278
        0x000014d2:    e005        ..      B        0x14e0 ; HSUSBD_StandardRequest + 280
        0x000014d4:    e7ff        ..      B        0x14d6 ; HSUSBD_StandardRequest + 270
        0x000014d6:    2002        .       MOVS     r0,#2
        0x000014d8:    4957        WI      LDR      r1,[pc,#348] ; [0x1638] = 0x40019000
        0x000014da:    62c8        .b      STR      r0,[r1,#0x2c]
        0x000014dc:    bf00        ..      NOP      
        0x000014de:    e0a1        ..      B        0x1624 ; HSUSBD_StandardRequest + 604
        0x000014e0:    4853        SH      LDR      r0,[pc,#332] ; [0x1630] = 0x20000214
        0x000014e2:    7840        @x      LDRB     r0,[r0,#1]
        0x000014e4:    2805        .(      CMP      r0,#5
        0x000014e6:    d043        C.      BEQ      0x1570 ; HSUSBD_StandardRequest + 424
        0x000014e8:    dc04        ..      BGT      0x14f4 ; HSUSBD_StandardRequest + 300
        0x000014ea:    2801        .(      CMP      r0,#1
        0x000014ec:    d007        ..      BEQ      0x14fe ; HSUSBD_StandardRequest + 310
        0x000014ee:    2803        .(      CMP      r0,#3
        0x000014f0:    d17d        }.      BNE      0x15ee ; HSUSBD_StandardRequest + 550
        0x000014f2:    e059        Y.      B        0x15a8 ; HSUSBD_StandardRequest + 480
        0x000014f4:    2809        .(      CMP      r0,#9
        0x000014f6:    d048        H.      BEQ      0x158a ; HSUSBD_StandardRequest + 450
        0x000014f8:    280b        .(      CMP      r0,#0xb
        0x000014fa:    d1f9        ..      BNE      0x14f0 ; HSUSBD_StandardRequest + 296
        0x000014fc:    e078        x.      B        0x15f0 ; HSUSBD_StandardRequest + 552
        0x000014fe:    484c        LH      LDR      r0,[pc,#304] ; [0x1630] = 0x20000214
        0x00001500:    7880        .x      LDRB     r0,[r0,#2]
        0x00001502:    bb60        `.      CBNZ     r0,0x155e ; HSUSBD_StandardRequest + 406
        0x00001504:    4a4a        JJ      LDR      r2,[pc,#296] ; [0x1630] = 0x20000214
        0x00001506:    7912        .y      LDRB     r2,[r2,#4]
        0x00001508:    f002010f    ....    AND      r1,r2,#0xf
        0x0000150c:    2000        .       MOVS     r0,#0
        0x0000150e:    e023        #.      B        0x1558 ; HSUSBD_StandardRequest + 400
        0x00001510:    4a49        IJ      LDR      r2,[pc,#292] ; [0x1638] = 0x40019000
        0x00001512:    3264        d2      ADDS     r2,r2,#0x64
        0x00001514:    eb000380    ....    ADD      r3,r0,r0,LSL #2
        0x00001518:    eb0202c3    ....    ADD      r2,r2,r3,LSL #3
        0x0000151c:    69d2        .i      LDR      r2,[r2,#0x1c]
        0x0000151e:    f3c21203    ....    UBFX     r2,r2,#4,#4
        0x00001522:    428a        .B      CMP      r2,r1
        0x00001524:    d117        ..      BNE      0x1556 ; HSUSBD_StandardRequest + 398
        0x00001526:    2201        ."      MOVS     r2,#1
        0x00001528:    4082        .@      LSLS     r2,r2,r0
        0x0000152a:    4b47        GK      LDR      r3,[pc,#284] ; [0x1648] = 0x2000022c
        0x0000152c:    681b        .h      LDR      r3,[r3,#0]
        0x0000152e:    401a        .@      ANDS     r2,r2,r3
        0x00001530:    b98a        ..      CBNZ     r2,0x1556 ; HSUSBD_StandardRequest + 398
        0x00001532:    4a41        AJ      LDR      r2,[pc,#260] ; [0x1638] = 0x40019000
        0x00001534:    3264        d2      ADDS     r2,r2,#0x64
        0x00001536:    eb000380    ....    ADD      r3,r0,r0,LSL #2
        0x0000153a:    eb0202c3    ....    ADD      r2,r2,r3,LSL #3
        0x0000153e:    6912        .i      LDR      r2,[r2,#0x10]
        0x00001540:    f00202ef    ....    AND      r2,r2,#0xef
        0x00001544:    f0420308    B...    ORR      r3,r2,#8
        0x00001548:    4a3b        ;J      LDR      r2,[pc,#236] ; [0x1638] = 0x40019000
        0x0000154a:    3264        d2      ADDS     r2,r2,#0x64
        0x0000154c:    eb000480    ....    ADD      r4,r0,r0,LSL #2
        0x00001550:    eb0202c4    ....    ADD      r2,r2,r4,LSL #3
        0x00001554:    6113        .a      STR      r3,[r2,#0x10]
        0x00001556:    1c40        @.      ADDS     r0,r0,#1
        0x00001558:    280c        .(      CMP      r0,#0xc
        0x0000155a:    d3d9        ..      BCC      0x1510 ; HSUSBD_StandardRequest + 328
        0x0000155c:    bf00        ..      NOP      
        0x0000155e:    f44f6080    O..`    MOV      r0,#0x400
        0x00001562:    4935        5I      LDR      r1,[pc,#212] ; [0x1638] = 0x40019000
        0x00001564:    6348        Hc      STR      r0,[r1,#0x34]
        0x00001566:    2000        .       MOVS     r0,#0
        0x00001568:    62c8        .b      STR      r0,[r1,#0x2c]
        0x0000156a:    1508        ..      ASRS     r0,r1,#20
        0x0000156c:    6308        .c      STR      r0,[r1,#0x30]
        0x0000156e:    e058        X.      B        0x1622 ; HSUSBD_StandardRequest + 602
        0x00001570:    482f        /H      LDR      r0,[pc,#188] ; [0x1630] = 0x20000214
        0x00001572:    7880        .x      LDRB     r0,[r0,#2]
        0x00001574:    4935        5I      LDR      r1,[pc,#212] ; [0x164c] = 0x2000023e
        0x00001576:    7008        .p      STRB     r0,[r1,#0]
        0x00001578:    f44f6080    O..`    MOV      r0,#0x400
        0x0000157c:    492e        .I      LDR      r1,[pc,#184] ; [0x1638] = 0x40019000
        0x0000157e:    6348        Hc      STR      r0,[r1,#0x34]
        0x00001580:    2000        .       MOVS     r0,#0
        0x00001582:    62c8        .b      STR      r0,[r1,#0x2c]
        0x00001584:    1508        ..      ASRS     r0,r1,#20
        0x00001586:    6308        .c      STR      r0,[r1,#0x30]
        0x00001588:    e04b        K.      B        0x1622 ; HSUSBD_StandardRequest + 602
        0x0000158a:    4829        )H      LDR      r0,[pc,#164] ; [0x1630] = 0x20000214
        0x0000158c:    7880        .x      LDRB     r0,[r0,#2]
        0x0000158e:    4929        )I      LDR      r1,[pc,#164] ; [0x1634] = 0x20000238
        0x00001590:    7008        .p      STRB     r0,[r1,#0]
        0x00001592:    2001        .       MOVS     r0,#1
        0x00001594:    492e        .I      LDR      r1,[pc,#184] ; [0x1650] = 0x2000023c
        0x00001596:    7008        .p      STRB     r0,[r1,#0]
        0x00001598:    0280        ..      LSLS     r0,r0,#10
        0x0000159a:    4927        'I      LDR      r1,[pc,#156] ; [0x1638] = 0x40019000
        0x0000159c:    6348        Hc      STR      r0,[r1,#0x34]
        0x0000159e:    2000        .       MOVS     r0,#0
        0x000015a0:    62c8        .b      STR      r0,[r1,#0x2c]
        0x000015a2:    1508        ..      ASRS     r0,r1,#20
        0x000015a4:    6308        .c      STR      r0,[r1,#0x30]
        0x000015a6:    e03c        <.      B        0x1622 ; HSUSBD_StandardRequest + 602
        0x000015a8:    4821        !H      LDR      r0,[pc,#132] ; [0x1630] = 0x20000214
        0x000015aa:    7880        .x      LDRB     r0,[r0,#2]
        0x000015ac:    f0000003    ....    AND      r0,r0,#3
        0x000015b0:    2802        .(      CMP      r0,#2
        0x000015b2:    d107        ..      BNE      0x15c4 ; HSUSBD_StandardRequest + 508
        0x000015b4:    2001        .       MOVS     r0,#1
        0x000015b6:    4927        'I      LDR      r1,[pc,#156] ; [0x1654] = 0x2000023a
        0x000015b8:    7008        .p      STRB     r0,[r1,#0]
        0x000015ba:    481d        .H      LDR      r0,[pc,#116] ; [0x1630] = 0x20000214
        0x000015bc:    8880        ..      LDRH     r0,[r0,#4]
        0x000015be:    1200        ..      ASRS     r0,r0,#8
        0x000015c0:    4925        %I      LDR      r1,[pc,#148] ; [0x1658] = 0x2000023b
        0x000015c2:    7008        .p      STRB     r0,[r1,#0]
        0x000015c4:    481a        .H      LDR      r0,[pc,#104] ; [0x1630] = 0x20000214
        0x000015c6:    7880        .x      LDRB     r0,[r0,#2]
        0x000015c8:    f0000003    ....    AND      r0,r0,#3
        0x000015cc:    2803        .(      CMP      r0,#3
        0x000015ce:    d105        ..      BNE      0x15dc ; HSUSBD_StandardRequest + 532
        0x000015d0:    4822        "H      LDR      r0,[pc,#136] ; [0x165c] = 0x4004f000
        0x000015d2:    6800        .h      LDR      r0,[r0,#0]
        0x000015d4:    f0400006    @...    ORR      r0,r0,#6
        0x000015d8:    4920         I      LDR      r1,[pc,#128] ; [0x165c] = 0x4004f000
        0x000015da:    6008        .`      STR      r0,[r1,#0]
        0x000015dc:    f44f6080    O..`    MOV      r0,#0x400
        0x000015e0:    4915        .I      LDR      r1,[pc,#84] ; [0x1638] = 0x40019000
        0x000015e2:    6348        Hc      STR      r0,[r1,#0x34]
        0x000015e4:    2000        .       MOVS     r0,#0
        0x000015e6:    62c8        .b      STR      r0,[r1,#0x2c]
        0x000015e8:    1508        ..      ASRS     r0,r1,#20
        0x000015ea:    6308        .c      STR      r0,[r1,#0x30]
        0x000015ec:    e019        ..      B        0x1622 ; HSUSBD_StandardRequest + 602
        0x000015ee:    e014        ..      B        0x161a ; HSUSBD_StandardRequest + 594
        0x000015f0:    480f        .H      LDR      r0,[pc,#60] ; [0x1630] = 0x20000214
        0x000015f2:    7880        .x      LDRB     r0,[r0,#2]
        0x000015f4:    4911        .I      LDR      r1,[pc,#68] ; [0x163c] = 0x20000239
        0x000015f6:    7008        .p      STRB     r0,[r1,#0]
        0x000015f8:    4819        .H      LDR      r0,[pc,#100] ; [0x1660] = 0x20000228
        0x000015fa:    6800        .h      LDR      r0,[r0,#0]
        0x000015fc:    b120         .      CBZ      r0,0x1608 ; HSUSBD_StandardRequest + 576
        0x000015fe:    4608        .F      MOV      r0,r1
        0x00001600:    7800        .x      LDRB     r0,[r0,#0]
        0x00001602:    4917        .I      LDR      r1,[pc,#92] ; [0x1660] = 0x20000228
        0x00001604:    6809        .h      LDR      r1,[r1,#0]
        0x00001606:    4788        .G      BLX      r1
        0x00001608:    f44f6080    O..`    MOV      r0,#0x400
        0x0000160c:    490a        .I      LDR      r1,[pc,#40] ; [0x1638] = 0x40019000
        0x0000160e:    6348        Hc      STR      r0,[r1,#0x34]
        0x00001610:    2000        .       MOVS     r0,#0
        0x00001612:    62c8        .b      STR      r0,[r1,#0x2c]
        0x00001614:    1508        ..      ASRS     r0,r1,#20
        0x00001616:    6308        .c      STR      r0,[r1,#0x30]
        0x00001618:    e003        ..      B        0x1622 ; HSUSBD_StandardRequest + 602
        0x0000161a:    2002        .       MOVS     r0,#2
        0x0000161c:    4906        .I      LDR      r1,[pc,#24] ; [0x1638] = 0x40019000
        0x0000161e:    62c8        .b      STR      r0,[r1,#0x2c]
        0x00001620:    bf00        ..      NOP      
        0x00001622:    bf00        ..      NOP      
        0x00001624:    bd70        p.      POP      {r4-r6,pc}
    $d
        0x00001626:    0000        ..      DCW    0
        0x00001628:    20000230    0..     DCD    536871472
        0x0000162c:    20000244    D..     DCD    536871492
        0x00001630:    20000214    ...     DCD    536871444
        0x00001634:    20000238    8..     DCD    536871480
        0x00001638:    40019000    ...@    DCD    1073844224
        0x0000163c:    20000239    9..     DCD    536871481
        0x00001640:    2000021c    ...     DCD    536871452
        0x00001644:    200002b0    ...     DCD    536871600
        0x00001648:    2000022c    ,..     DCD    536871468
        0x0000164c:    2000023e    >..     DCD    536871486
        0x00001650:    2000023c    <..     DCD    536871484
        0x00001654:    2000023a    :..     DCD    536871482
        0x00001658:    2000023b    ;..     DCD    536871483
        0x0000165c:    4004f000    ...@    DCD    1074065408
        0x00001660:    20000228    (..     DCD    536871464
    $t
    i.HSUSBD_Start
    HSUSBD_Start
        0x00001664:    4803        .H      LDR      r0,[pc,#12] ; [0x1674] = 0x40019704
        0x00001666:    6800        .h      LDR      r0,[r0,#0]
        0x00001668:    f4407080    @..p    ORR      r0,r0,#0x100
        0x0000166c:    4901        .I      LDR      r1,[pc,#4] ; [0x1674] = 0x40019704
        0x0000166e:    6008        .`      STR      r0,[r1,#0]
        0x00001670:    4770        pG      BX       lr
    $d
        0x00001672:    0000        ..      DCW    0
        0x00001674:    40019704    ...@    DCD    1073846020
    $t
    i.HSUSBD_SwReset
    HSUSBD_SwReset
        0x00001678:    2000        .       MOVS     r0,#0
        0x0000167a:    4905        .I      LDR      r1,[pc,#20] ; [0x1690] = 0x2000023e
        0x0000167c:    7008        .p      STRB     r0,[r1,#0]
        0x0000167e:    4905        .I      LDR      r1,[pc,#20] ; [0x1694] = 0x20000240
        0x00001680:    6008        .`      STR      r0,[r1,#0]
        0x00001682:    4905        .I      LDR      r1,[pc,#20] ; [0x1698] = 0x2000023f
        0x00001684:    7008        .p      STRB     r0,[r1,#0]
        0x00001686:    4905        .I      LDR      r1,[pc,#20] ; [0x169c] = 0x2000023c
        0x00001688:    7008        .p      STRB     r0,[r1,#0]
        0x0000168a:    4905        .I      LDR      r1,[pc,#20] ; [0x16a0] = 0x40019000
        0x0000168c:    6208        .b      STR      r0,[r1,#0x20]
        0x0000168e:    4770        pG      BX       lr
    $d
        0x00001690:    2000023e    >..     DCD    536871486
        0x00001694:    20000240    @..     DCD    536871488
        0x00001698:    2000023f    ?..     DCD    536871487
        0x0000169c:    2000023c    <..     DCD    536871484
        0x000016a0:    40019000    ...@    DCD    1073844224
    $t
    i.HSUSBD_UpdateDeviceState
    HSUSBD_UpdateDeviceState
        0x000016a4:    b538        8.      PUSH     {r3-r5,lr}
        0x000016a6:    485b        [H      LDR      r0,[pc,#364] ; [0x1814] = 0x20000214
        0x000016a8:    7840        @x      LDRB     r0,[r0,#1]
        0x000016aa:    2801        .(      CMP      r0,#1
        0x000016ac:    d074        t.      BEQ      0x1798 ; HSUSBD_UpdateDeviceState + 244
        0x000016ae:    2803        .(      CMP      r0,#3
        0x000016b0:    d02b        +.      BEQ      0x170a ; HSUSBD_UpdateDeviceState + 102
        0x000016b2:    2805        .(      CMP      r0,#5
        0x000016b4:    d002        ..      BEQ      0x16bc ; HSUSBD_UpdateDeviceState + 24
        0x000016b6:    2809        .(      CMP      r0,#9
        0x000016b8:    d16f        o.      BNE      0x179a ; HSUSBD_UpdateDeviceState + 246
        0x000016ba:    e004        ..      B        0x16c6 ; HSUSBD_UpdateDeviceState + 34
        0x000016bc:    4856        VH      LDR      r0,[pc,#344] ; [0x1818] = 0x2000023e
        0x000016be:    7800        .x      LDRB     r0,[r0,#0]
        0x000016c0:    4956        VI      LDR      r1,[pc,#344] ; [0x181c] = 0x40019000
        0x000016c2:    6208        .b      STR      r0,[r1,#0x20]
        0x000016c4:    e0a3        ..      B        0x180e ; HSUSBD_UpdateDeviceState + 362
        0x000016c6:    4856        VH      LDR      r0,[pc,#344] ; [0x1820] = 0x20000238
        0x000016c8:    7800        .x      LDRB     r0,[r0,#0]
        0x000016ca:    b9e8        ..      CBNZ     r0,0x1708 ; HSUSBD_UpdateDeviceState + 100
        0x000016cc:    2000        .       MOVS     r0,#0
        0x000016ce:    9000        ..      STR      r0,[sp,#0]
        0x000016d0:    e016        ..      B        0x1700 ; HSUSBD_UpdateDeviceState + 92
        0x000016d2:    4852        RH      LDR      r0,[pc,#328] ; [0x181c] = 0x40019000
        0x000016d4:    3064        d0      ADDS     r0,r0,#0x64
        0x000016d6:    9900        ..      LDR      r1,[sp,#0]
        0x000016d8:    eb010181    ....    ADD      r1,r1,r1,LSL #2
        0x000016dc:    eb0000c1    ....    ADD      r0,r0,r1,LSL #3
        0x000016e0:    69c0        .i      LDR      r0,[r0,#0x1c]
        0x000016e2:    f0000001    ....    AND      r0,r0,#1
        0x000016e6:    b140        @.      CBZ      r0,0x16fa ; HSUSBD_UpdateDeviceState + 86
        0x000016e8:    2108        .!      MOVS     r1,#8
        0x000016ea:    484c        LH      LDR      r0,[pc,#304] ; [0x181c] = 0x40019000
        0x000016ec:    3064        d0      ADDS     r0,r0,#0x64
        0x000016ee:    9a00        ..      LDR      r2,[sp,#0]
        0x000016f0:    eb020282    ....    ADD      r2,r2,r2,LSL #2
        0x000016f4:    eb0000c2    ....    ADD      r0,r0,r2,LSL #3
        0x000016f8:    6101        .a      STR      r1,[r0,#0x10]
        0x000016fa:    9800        ..      LDR      r0,[sp,#0]
        0x000016fc:    1c40        @.      ADDS     r0,r0,#1
        0x000016fe:    9000        ..      STR      r0,[sp,#0]
        0x00001700:    9800        ..      LDR      r0,[sp,#0]
        0x00001702:    280c        .(      CMP      r0,#0xc
        0x00001704:    d3e5        ..      BCC      0x16d2 ; HSUSBD_UpdateDeviceState + 46
        0x00001706:    bf00        ..      NOP      
        0x00001708:    e081        ..      B        0x180e ; HSUSBD_UpdateDeviceState + 362
        0x0000170a:    4842        BH      LDR      r0,[pc,#264] ; [0x1814] = 0x20000214
        0x0000170c:    8840        @.      LDRH     r0,[r0,#2]
        0x0000170e:    bb70        p.      CBNZ     r0,0x176e ; HSUSBD_UpdateDeviceState + 202
        0x00001710:    4840        @H      LDR      r0,[pc,#256] ; [0x1814] = 0x20000214
        0x00001712:    7900        .y      LDRB     r0,[r0,#4]
        0x00001714:    f000000f    ....    AND      r0,r0,#0xf
        0x00001718:    4602        .F      MOV      r2,r0
        0x0000171a:    4611        .F      MOV      r1,r2
        0x0000171c:    b919        ..      CBNZ     r1,0x1726 ; HSUSBD_UpdateDeviceState + 130
        0x0000171e:    2302        .#      MOVS     r3,#2
        0x00001720:    4c3e        >L      LDR      r4,[pc,#248] ; [0x181c] = 0x40019000
        0x00001722:    62e3        .b      STR      r3,[r4,#0x2c]
        0x00001724:    e021        !.      B        0x176a ; HSUSBD_UpdateDeviceState + 198
        0x00001726:    2000        .       MOVS     r0,#0
        0x00001728:    e01d        ..      B        0x1766 ; HSUSBD_UpdateDeviceState + 194
        0x0000172a:    4b3c        <K      LDR      r3,[pc,#240] ; [0x181c] = 0x40019000
        0x0000172c:    3364        d3      ADDS     r3,r3,#0x64
        0x0000172e:    eb000480    ....    ADD      r4,r0,r0,LSL #2
        0x00001732:    eb0303c4    ....    ADD      r3,r3,r4,LSL #3
        0x00001736:    69db        .i      LDR      r3,[r3,#0x1c]
        0x00001738:    f3c31303    ....    UBFX     r3,r3,#4,#4
        0x0000173c:    428b        .B      CMP      r3,r1
        0x0000173e:    d111        ..      BNE      0x1764 ; HSUSBD_UpdateDeviceState + 192
        0x00001740:    4b36        6K      LDR      r3,[pc,#216] ; [0x181c] = 0x40019000
        0x00001742:    3364        d3      ADDS     r3,r3,#0x64
        0x00001744:    eb000480    ....    ADD      r4,r0,r0,LSL #2
        0x00001748:    eb0303c4    ....    ADD      r3,r3,r4,LSL #3
        0x0000174c:    691b        .i      LDR      r3,[r3,#0x10]
        0x0000174e:    f00303f7    ....    AND      r3,r3,#0xf7
        0x00001752:    f0430410    C...    ORR      r4,r3,#0x10
        0x00001756:    4b31        1K      LDR      r3,[pc,#196] ; [0x181c] = 0x40019000
        0x00001758:    3364        d3      ADDS     r3,r3,#0x64
        0x0000175a:    eb000580    ....    ADD      r5,r0,r0,LSL #2
        0x0000175e:    eb0303c5    ....    ADD      r3,r3,r5,LSL #3
        0x00001762:    611c        .a      STR      r4,[r3,#0x10]
        0x00001764:    1c40        @.      ADDS     r0,r0,#1
        0x00001766:    280c        .(      CMP      r0,#0xc
        0x00001768:    d3df        ..      BCC      0x172a ; HSUSBD_UpdateDeviceState + 134
        0x0000176a:    bf00        ..      NOP      
        0x0000176c:    e02a        *.      B        0x17c4 ; HSUSBD_UpdateDeviceState + 288
        0x0000176e:    e7ff        ..      B        0x1770 ; HSUSBD_UpdateDeviceState + 204
        0x00001770:    482c        ,H      LDR      r0,[pc,#176] ; [0x1824] = 0x2000023a
        0x00001772:    7800        .x      LDRB     r0,[r0,#0]
        0x00001774:    b1f8        ..      CBZ      r0,0x17b6 ; HSUSBD_UpdateDeviceState + 274
        0x00001776:    2000        .       MOVS     r0,#0
        0x00001778:    492a        *I      LDR      r1,[pc,#168] ; [0x1824] = 0x2000023a
        0x0000177a:    7008        .p      STRB     r0,[r1,#0]
        0x0000177c:    482a        *H      LDR      r0,[pc,#168] ; [0x1828] = 0x2000023b
        0x0000177e:    7800        .x      LDRB     r0,[r0,#0]
        0x00001780:    2801        .(      CMP      r0,#1
        0x00001782:    d102        ..      BNE      0x178a ; HSUSBD_UpdateDeviceState + 230
        0x00001784:    4925        %I      LDR      r1,[pc,#148] ; [0x181c] = 0x40019000
        0x00001786:    6248        Hb      STR      r0,[r1,#0x24]
        0x00001788:    e01c        ..      B        0x17c4 ; HSUSBD_UpdateDeviceState + 288
        0x0000178a:    4827        'H      LDR      r0,[pc,#156] ; [0x1828] = 0x2000023b
        0x0000178c:    7800        .x      LDRB     r0,[r0,#0]
        0x0000178e:    2802        .(      CMP      r0,#2
        0x00001790:    d104        ..      BNE      0x179c ; HSUSBD_UpdateDeviceState + 248
        0x00001792:    4922        "I      LDR      r1,[pc,#136] ; [0x181c] = 0x40019000
        0x00001794:    6248        Hb      STR      r0,[r1,#0x24]
        0x00001796:    e015        ..      B        0x17c4 ; HSUSBD_UpdateDeviceState + 288
        0x00001798:    e015        ..      B        0x17c6 ; HSUSBD_UpdateDeviceState + 290
        0x0000179a:    e037        7.      B        0x180c ; HSUSBD_UpdateDeviceState + 360
        0x0000179c:    4822        "H      LDR      r0,[pc,#136] ; [0x1828] = 0x2000023b
        0x0000179e:    7800        .x      LDRB     r0,[r0,#0]
        0x000017a0:    2803        .(      CMP      r0,#3
        0x000017a2:    d102        ..      BNE      0x17aa ; HSUSBD_UpdateDeviceState + 262
        0x000017a4:    491d        .I      LDR      r1,[pc,#116] ; [0x181c] = 0x40019000
        0x000017a6:    6248        Hb      STR      r0,[r1,#0x24]
        0x000017a8:    e00c        ..      B        0x17c4 ; HSUSBD_UpdateDeviceState + 288
        0x000017aa:    481f        .H      LDR      r0,[pc,#124] ; [0x1828] = 0x2000023b
        0x000017ac:    7800        .x      LDRB     r0,[r0,#0]
        0x000017ae:    2804        .(      CMP      r0,#4
        0x000017b0:    d102        ..      BNE      0x17b8 ; HSUSBD_UpdateDeviceState + 276
        0x000017b2:    491a        .I      LDR      r1,[pc,#104] ; [0x181c] = 0x40019000
        0x000017b4:    6248        Hb      STR      r0,[r1,#0x24]
        0x000017b6:    e005        ..      B        0x17c4 ; HSUSBD_UpdateDeviceState + 288
        0x000017b8:    481b        .H      LDR      r0,[pc,#108] ; [0x1828] = 0x2000023b
        0x000017ba:    7800        .x      LDRB     r0,[r0,#0]
        0x000017bc:    2805        .(      CMP      r0,#5
        0x000017be:    d101        ..      BNE      0x17c4 ; HSUSBD_UpdateDeviceState + 288
        0x000017c0:    4916        .I      LDR      r1,[pc,#88] ; [0x181c] = 0x40019000
        0x000017c2:    6248        Hb      STR      r0,[r1,#0x24]
        0x000017c4:    e023        #.      B        0x180e ; HSUSBD_UpdateDeviceState + 362
        0x000017c6:    4813        .H      LDR      r0,[pc,#76] ; [0x1814] = 0x20000214
        0x000017c8:    8840        @.      LDRH     r0,[r0,#2]
        0x000017ca:    b9f0        ..      CBNZ     r0,0x180a ; HSUSBD_UpdateDeviceState + 358
        0x000017cc:    4811        .H      LDR      r0,[pc,#68] ; [0x1814] = 0x20000214
        0x000017ce:    7900        .y      LDRB     r0,[r0,#4]
        0x000017d0:    f000020f    ....    AND      r2,r0,#0xf
        0x000017d4:    4611        .F      MOV      r1,r2
        0x000017d6:    2000        .       MOVS     r0,#0
        0x000017d8:    e013        ..      B        0x1802 ; HSUSBD_UpdateDeviceState + 350
        0x000017da:    4b10        .K      LDR      r3,[pc,#64] ; [0x181c] = 0x40019000
        0x000017dc:    3364        d3      ADDS     r3,r3,#0x64
        0x000017de:    eb000480    ....    ADD      r4,r0,r0,LSL #2
        0x000017e2:    eb0303c4    ....    ADD      r3,r3,r4,LSL #3
        0x000017e6:    69db        .i      LDR      r3,[r3,#0x1c]
        0x000017e8:    f3c31303    ....    UBFX     r3,r3,#4,#4
        0x000017ec:    428b        .B      CMP      r3,r1
        0x000017ee:    d107        ..      BNE      0x1800 ; HSUSBD_UpdateDeviceState + 348
        0x000017f0:    2408        .$      MOVS     r4,#8
        0x000017f2:    4b0a        .K      LDR      r3,[pc,#40] ; [0x181c] = 0x40019000
        0x000017f4:    3364        d3      ADDS     r3,r3,#0x64
        0x000017f6:    eb000580    ....    ADD      r5,r0,r0,LSL #2
        0x000017fa:    eb0303c5    ....    ADD      r3,r3,r5,LSL #3
        0x000017fe:    611c        .a      STR      r4,[r3,#0x10]
        0x00001800:    1c40        @.      ADDS     r0,r0,#1
        0x00001802:    280c        .(      CMP      r0,#0xc
        0x00001804:    d3e9        ..      BCC      0x17da ; HSUSBD_UpdateDeviceState + 310
        0x00001806:    bf00        ..      NOP      
        0x00001808:    bf00        ..      NOP      
        0x0000180a:    e000        ..      B        0x180e ; HSUSBD_UpdateDeviceState + 362
        0x0000180c:    bf00        ..      NOP      
        0x0000180e:    bf00        ..      NOP      
        0x00001810:    bd38        8.      POP      {r3-r5,pc}
    $d
        0x00001812:    0000        ..      DCW    0
        0x00001814:    20000214    ...     DCD    536871444
        0x00001818:    2000023e    >..     DCD    536871486
        0x0000181c:    40019000    ...@    DCD    1073844224
        0x00001820:    20000238    8..     DCD    536871480
        0x00001824:    2000023a    :..     DCD    536871482
        0x00001828:    2000023b    ;..     DCD    536871483
    $t
    i.Hard_Fault_Handler
    Hard_Fault_Handler
    __tagsym$$used
        0x0000182c:    4604        .F      MOV      r4,r0
        0x0000182e:    a004        ..      ADR      r0,{pc}+0x12 ; 0x1840
        0x00001830:    f7fefda2    ....    BL       __2printf ; 0x378
        0x00001834:    4620         F      MOV      r0,r4
        0x00001836:    f001fd37    ..7.    BL       stackDump ; 0x32a8
        0x0000183a:    bf00        ..      NOP      
        0x0000183c:    e7fe        ..      B        0x183c ; Hard_Fault_Handler + 16
    $d
        0x0000183e:    0000        ..      DCW    0
        0x00001840:    48206e49    In H    DCD    1210084937
        0x00001844:    20647261    ard     DCD    543453793
        0x00001848:    6c756146    Faul    DCD    1819631942
        0x0000184c:    61482074    t Ha    DCD    1632116852
        0x00001850:    656c646e    ndle    DCD    1701602414
        0x00001854:    00000a72    r...    DCD    2674
    $t
    i.I2C_Open
    I2C_Open
        0x00001858:    e92d41f0    -..A    PUSH     {r4-r8,lr}
        0x0000185c:    4604        .F      MOV      r4,r0
        0x0000185e:    460f        .F      MOV      r7,r1
        0x00001860:    480f        .H      LDR      r0,[pc,#60] ; [0x18a0] = 0x40081000
        0x00001862:    4284        .B      CMP      r4,r0
        0x00001864:    d103        ..      BNE      0x186e ; I2C_Open + 22
        0x00001866:    f7fff8b7    ....    BL       CLK_GetPCLK1Freq ; 0x9d8
        0x0000186a:    4605        .F      MOV      r5,r0
        0x0000186c:    e002        ..      B        0x1874 ; I2C_Open + 28
        0x0000186e:    f7fff877    ..w.    BL       CLK_GetPCLK0Freq ; 0x960
        0x00001872:    4605        .F      MOV      r5,r0
        0x00001874:    eb050085    ....    ADD      r0,r5,r5,LSL #2
        0x00001878:    0040        @.      LSLS     r0,r0,#1
        0x0000187a:    00b9        ..      LSLS     r1,r7,#2
        0x0000187c:    fbb0f0f1    ....    UDIV     r0,r0,r1
        0x00001880:    1d40        @.      ADDS     r0,r0,#5
        0x00001882:    210a        .!      MOVS     r1,#0xa
        0x00001884:    fbb0f0f1    ....    UDIV     r0,r0,r1
        0x00001888:    1e46        F.      SUBS     r6,r0,#1
        0x0000188a:    6126        &a      STR      r6,[r4,#0x10]
        0x0000188c:    6820         h      LDR      r0,[r4,#0]
        0x0000188e:    f0400040    @.@.    ORR      r0,r0,#0x40
        0x00001892:    6020         `      STR      r0,[r4,#0]
        0x00001894:    1c70        p.      ADDS     r0,r6,#1
        0x00001896:    0080        ..      LSLS     r0,r0,#2
        0x00001898:    fbb5f0f0    ....    UDIV     r0,r5,r0
        0x0000189c:    e8bd81f0    ....    POP      {r4-r8,pc}
    $d
        0x000018a0:    40081000    ...@    DCD    1074270208
    $t
    i.I2C_WriteMultiBytes
    I2C_WriteMultiBytes
        0x000018a4:    e92d41f0    -..A    PUSH     {r4-r8,lr}
        0x000018a8:    4604        .F      MOV      r4,r0
        0x000018aa:    2501        .%      MOVS     r5,#1
        0x000018ac:    2600        .&      MOVS     r6,#0
        0x000018ae:    2700        .'      MOVS     r7,#0
        0x000018b0:    2000        .       MOVS     r0,#0
        0x000018b2:    f8d4c000    ....    LDR      r12,[r4,#0]
        0x000018b6:    f02c0c08    ,...    BIC      r12,r12,#8
        0x000018ba:    f04c0c20    L. .    ORR      r12,r12,#0x20
        0x000018be:    f8c4c000    ....    STR      r12,[r4,#0]
        0x000018c2:    e046        F.      B        0x1952 ; I2C_WriteMultiBytes + 174
        0x000018c4:    bf00        ..      NOP      
        0x000018c6:    f8d4c000    ....    LDR      r12,[r4,#0]
        0x000018ca:    f00c0c08    ....    AND      r12,r12,#8
        0x000018ce:    f1bc0f00    ....    CMP      r12,#0
        0x000018d2:    d0f8        ..      BEQ      0x18c6 ; I2C_WriteMultiBytes + 34
        0x000018d4:    f8d4c00c    ....    LDR      r12,[r4,#0xc]
        0x000018d8:    f1bc0f28    ..(.    CMP      r12,#0x28
        0x000018dc:    d01c        ..      BEQ      0x1918 ; I2C_WriteMultiBytes + 116
        0x000018de:    dc09        ..      BGT      0x18f4 ; I2C_WriteMultiBytes + 80
        0x000018e0:    f1bc0f08    ....    CMP      r12,#8
        0x000018e4:    d00d        ..      BEQ      0x1902 ; I2C_WriteMultiBytes + 94
        0x000018e6:    f1bc0f18    ....    CMP      r12,#0x18
        0x000018ea:    d014        ..      BEQ      0x1916 ; I2C_WriteMultiBytes + 114
        0x000018ec:    f1bc0f20    .. .    CMP      r12,#0x20
        0x000018f0:    d122        ".      BNE      0x1938 ; I2C_WriteMultiBytes + 148
        0x000018f2:    e01d        ..      B        0x1930 ; I2C_WriteMultiBytes + 140
        0x000018f4:    f1bc0f30    ..0.    CMP      r12,#0x30
        0x000018f8:    d01b        ..      BEQ      0x1932 ; I2C_WriteMultiBytes + 142
        0x000018fa:    f1bc0f38    ..8.    CMP      r12,#0x38
        0x000018fe:    d11b        ..      BNE      0x1938 ; I2C_WriteMultiBytes + 148
        0x00001900:    e01b        ..      B        0x193a ; I2C_WriteMultiBytes + 150
        0x00001902:    f04f0c00    O...    MOV      r12,#0
        0x00001906:    ea4c0c41    L.A.    ORR      r12,r12,r1,LSL #1
        0x0000190a:    f00c0cff    ....    AND      r12,r12,#0xff
        0x0000190e:    f8c4c008    ....    STR      r12,[r4,#8]
        0x00001912:    2708        .'      MOVS     r7,#8
        0x00001914:    e014        ..      B        0x1940 ; I2C_WriteMultiBytes + 156
        0x00001916:    bf00        ..      NOP      
        0x00001918:    4298        .B      CMP      r0,r3
        0x0000191a:    d206        ..      BCS      0x192a ; I2C_WriteMultiBytes + 134
        0x0000191c:    4684        .F      MOV      r12,r0
        0x0000191e:    1c40        @.      ADDS     r0,r0,#1
        0x00001920:    f812c00c    ....    LDRB     r12,[r2,r12]
        0x00001924:    f8c4c008    ....    STR      r12,[r4,#8]
        0x00001928:    e001        ..      B        0x192e ; I2C_WriteMultiBytes + 138
        0x0000192a:    2718        .'      MOVS     r7,#0x18
        0x0000192c:    2500        .%      MOVS     r5,#0
        0x0000192e:    e007        ..      B        0x1940 ; I2C_WriteMultiBytes + 156
        0x00001930:    bf00        ..      NOP      
        0x00001932:    2718        .'      MOVS     r7,#0x18
        0x00001934:    2601        .&      MOVS     r6,#1
        0x00001936:    e003        ..      B        0x1940 ; I2C_WriteMultiBytes + 156
        0x00001938:    bf00        ..      NOP      
        0x0000193a:    2718        .'      MOVS     r7,#0x18
        0x0000193c:    2601        .&      MOVS     r6,#1
        0x0000193e:    bf00        ..      NOP      
        0x00001940:    bf00        ..      NOP      
        0x00001942:    f8d4c000    ....    LDR      r12,[r4,#0]
        0x00001946:    f02c0c3c    ,.<.    BIC      r12,r12,#0x3c
        0x0000194a:    ea4c0c07    L...    ORR      r12,r12,r7
        0x0000194e:    f8c4c000    ....    STR      r12,[r4,#0]
        0x00001952:    b10d        ..      CBZ      r5,0x1958 ; I2C_WriteMultiBytes + 180
        0x00001954:    2e00        ..      CMP      r6,#0
        0x00001956:    d0b5        ..      BEQ      0x18c4 ; I2C_WriteMultiBytes + 32
        0x00001958:    e8bd81f0    ....    POP      {r4-r8,pc}
    i.IsDebugFifoEmpty
    IsDebugFifoEmpty
        0x0000195c:    2001        .       MOVS     r0,#1
        0x0000195e:    4770        pG      BX       lr
    i.MSC_AckCmd
    MSC_AckCmd
        0x00001960:    b510        ..      PUSH     {r4,lr}
        0x00001962:    4604        .F      MOV      r4,r0
        0x00001964:    4809        .H      LDR      r0,[pc,#36] ; [0x198c] = 0x20000280
        0x00001966:    6084        .`      STR      r4,[r0,#8]
        0x00001968:    4809        .H      LDR      r0,[pc,#36] ; [0x1990] = 0x20000171
        0x0000196a:    7800        .x      LDRB     r0,[r0,#0]
        0x0000196c:    4907        .I      LDR      r1,[pc,#28] ; [0x198c] = 0x20000280
        0x0000196e:    7308        .s      STRB     r0,[r1,#0xc]
        0x00001970:    2210        ."      MOVS     r2,#0x10
        0x00001972:    4808        .H      LDR      r0,[pc,#32] ; [0x1994] = 0x2000017c
        0x00001974:    6800        .h      LDR      r0,[r0,#0]
        0x00001976:    f7fffc87    ....    BL       HSUSBD_MemCopy ; 0x1288
        0x0000197a:    210d        .!      MOVS     r1,#0xd
        0x0000197c:    4805        .H      LDR      r0,[pc,#20] ; [0x1994] = 0x2000017c
        0x0000197e:    6800        .h      LDR      r0,[r0,#0]
        0x00001980:    f000f838    ..8.    BL       MSC_BulkIn ; 0x19f4
        0x00001984:    20ff        .       MOVS     r0,#0xff
        0x00001986:    4904        .I      LDR      r1,[pc,#16] ; [0x1998] = 0x20000170
        0x00001988:    7008        .p      STRB     r0,[r1,#0]
        0x0000198a:    bd10        ..      POP      {r4,pc}
    $d
        0x0000198c:    20000280    ...     DCD    536871552
        0x00001990:    20000171    q..     DCD    536871281
        0x00001994:    2000017c    |..     DCD    536871292
        0x00001998:    20000170    p..     DCD    536871280
    $t
    i.MSC_ActiveDMA
    MSC_ActiveDMA
        0x0000199c:    f44f7295    O..r    MOV      r2,#0x12a
        0x000019a0:    4b10        .K      LDR      r3,[pc,#64] ; [0x19e4] = 0x40019000
        0x000019a2:    615a        Za      STR      r2,[r3,#0x14]
        0x000019a4:    4a10        .J      LDR      r2,[pc,#64] ; [0x19e8] = 0x40019700
        0x000019a6:    6010        .`      STR      r0,[r2,#0]
        0x000019a8:    461a        .F      MOV      r2,r3
        0x000019aa:    6611        .f      STR      r1,[r2,#0x60]
        0x000019ac:    2200        ."      MOVS     r2,#0
        0x000019ae:    4b0f        .K      LDR      r3,[pc,#60] ; [0x19ec] = 0x20000240
        0x000019b0:    601a        .`      STR      r2,[r3,#0]
        0x000019b2:    4a0c        .J      LDR      r2,[pc,#48] ; [0x19e4] = 0x40019000
        0x000019b4:    6dd2        .m      LDR      r2,[r2,#0x5c]
        0x000019b6:    f0420220    B. .    ORR      r2,r2,#0x20
        0x000019ba:    4b0a        .K      LDR      r3,[pc,#40] ; [0x19e4] = 0x40019000
        0x000019bc:    65da        .e      STR      r2,[r3,#0x5c]
        0x000019be:    e00a        ..      B        0x19d6 ; MSC_ActiveDMA + 58
        0x000019c0:    4a0a        .J      LDR      r2,[pc,#40] ; [0x19ec] = 0x20000240
        0x000019c2:    6812        .h      LDR      r2,[r2,#0]
        0x000019c4:    b102        ..      CBZ      r2,0x19c8 ; MSC_ActiveDMA + 44
        0x000019c6:    e00a        ..      B        0x19de ; MSC_ActiveDMA + 66
        0x000019c8:    4a07        .J      LDR      r2,[pc,#28] ; [0x19e8] = 0x40019700
        0x000019ca:    1d12        ..      ADDS     r2,r2,#4
        0x000019cc:    6812        .h      LDR      r2,[r2,#0]
        0x000019ce:    f0024200    ...B    AND      r2,r2,#0x80000000
        0x000019d2:    b902        ..      CBNZ     r2,0x19d6 ; MSC_ActiveDMA + 58
        0x000019d4:    e003        ..      B        0x19de ; MSC_ActiveDMA + 66
        0x000019d6:    4a06        .J      LDR      r2,[pc,#24] ; [0x19f0] = 0x20000172
        0x000019d8:    7812        .x      LDRB     r2,[r2,#0]
        0x000019da:    2a00        .*      CMP      r2,#0
        0x000019dc:    d1f0        ..      BNE      0x19c0 ; MSC_ActiveDMA + 36
        0x000019de:    bf00        ..      NOP      
        0x000019e0:    4770        pG      BX       lr
    $d
        0x000019e2:    0000        ..      DCW    0
        0x000019e4:    40019000    ...@    DCD    1073844224
        0x000019e8:    40019700    ...@    DCD    1073846016
        0x000019ec:    20000240    @..     DCD    536871488
        0x000019f0:    20000172    r..     DCD    536871282
    $t
    i.MSC_BulkIn
    MSC_BulkIn
        0x000019f4:    e92d43f0    -..C    PUSH     {r4-r9,lr}
        0x000019f8:    4607        .F      MOV      r7,r0
        0x000019fa:    4688        .F      MOV      r8,r1
        0x000019fc:    4833        3H      LDR      r0,[pc,#204] ; [0x1acc] = 0x40019000
        0x000019fe:    6dc0        .m      LDR      r0,[r0,#0x5c]
        0x00001a00:    f020000f     ...    BIC      r0,r0,#0xf
        0x00001a04:    f0400010    @...    ORR      r0,r0,#0x10
        0x00001a08:    1c40        @.      ADDS     r0,r0,#1
        0x00001a0a:    f4407080    @..p    ORR      r0,r0,#0x100
        0x00001a0e:    492f        /I      LDR      r1,[pc,#188] ; [0x1acc] = 0x40019000
        0x00001a10:    65c8        .e      STR      r0,[r1,#0x5c]
        0x00001a12:    ea4f3618    O..6    LSR      r6,r8,#12
        0x00001a16:    2400        .$      MOVS     r4,#0
        0x00001a18:    e015        ..      B        0x1a46 ; MSC_BulkIn + 82
        0x00001a1a:    2108        .!      MOVS     r1,#8
        0x00001a1c:    482b        +H      LDR      r0,[pc,#172] ; [0x1acc] = 0x40019000
        0x00001a1e:    66c1        .f      STR      r1,[r0,#0x6c]
        0x00001a20:    2000        .       MOVS     r0,#0
        0x00001a22:    492b        +I      LDR      r1,[pc,#172] ; [0x1ad0] = 0x2000023f
        0x00001a24:    7008        .p      STRB     r0,[r1,#0]
        0x00001a26:    e00b        ..      B        0x1a40 ; MSC_BulkIn + 76
        0x00001a28:    4828        (H      LDR      r0,[pc,#160] ; [0x1acc] = 0x40019000
        0x00001a2a:    6e80        .n      LDR      r0,[r0,#0x68]
        0x00001a2c:    f0000002    ....    AND      r0,r0,#2
        0x00001a30:    b130        0.      CBZ      r0,0x1a40 ; MSC_BulkIn + 76
        0x00001a32:    eb073004    ...0    ADD      r0,r7,r4,LSL #12
        0x00001a36:    f44f5180    O..Q    MOV      r1,#0x1000
        0x00001a3a:    f7ffffaf    ....    BL       MSC_ActiveDMA ; 0x199c
        0x00001a3e:    e000        ..      B        0x1a42 ; MSC_BulkIn + 78
        0x00001a40:    e7f2        ..      B        0x1a28 ; MSC_BulkIn + 52
        0x00001a42:    bf00        ..      NOP      
        0x00001a44:    1c64        d.      ADDS     r4,r4,#1
        0x00001a46:    42b4        .B      CMP      r4,r6
        0x00001a48:    d3e7        ..      BCC      0x1a1a ; MSC_BulkIn + 38
        0x00001a4a:    eb073904    ...9    ADD      r9,r7,r4,LSL #12
        0x00001a4e:    f3c8060b    ....    UBFX     r6,r8,#0,#12
        0x00001a52:    2e00        ..      CMP      r6,#0
        0x00001a54:    d038        8.      BEQ      0x1ac8 ; MSC_BulkIn + 212
        0x00001a56:    481f        .H      LDR      r0,[pc,#124] ; [0x1ad4] = 0x20000184
        0x00001a58:    6800        .h      LDR      r0,[r0,#0]
        0x00001a5a:    fbb6f5f0    ....    UDIV     r5,r6,r0
        0x00001a5e:    b1cd        ..      CBZ      r5,0x1a94 ; MSC_BulkIn + 160
        0x00001a60:    2108        .!      MOVS     r1,#8
        0x00001a62:    481a        .H      LDR      r0,[pc,#104] ; [0x1acc] = 0x40019000
        0x00001a64:    66c1        .f      STR      r1,[r0,#0x6c]
        0x00001a66:    2000        .       MOVS     r0,#0
        0x00001a68:    4919        .I      LDR      r1,[pc,#100] ; [0x1ad0] = 0x2000023f
        0x00001a6a:    7008        .p      STRB     r0,[r1,#0]
        0x00001a6c:    e00c        ..      B        0x1a88 ; MSC_BulkIn + 148
        0x00001a6e:    4817        .H      LDR      r0,[pc,#92] ; [0x1acc] = 0x40019000
        0x00001a70:    6e80        .n      LDR      r0,[r0,#0x68]
        0x00001a72:    f0000002    ....    AND      r0,r0,#2
        0x00001a76:    b138        8.      CBZ      r0,0x1a88 ; MSC_BulkIn + 148
        0x00001a78:    4816        .H      LDR      r0,[pc,#88] ; [0x1ad4] = 0x20000184
        0x00001a7a:    6800        .h      LDR      r0,[r0,#0]
        0x00001a7c:    fb05f100    ....    MUL      r1,r5,r0
        0x00001a80:    4648        HF      MOV      r0,r9
        0x00001a82:    f7ffff8b    ....    BL       MSC_ActiveDMA ; 0x199c
        0x00001a86:    e000        ..      B        0x1a8a ; MSC_BulkIn + 150
        0x00001a88:    e7f1        ..      B        0x1a6e ; MSC_BulkIn + 122
        0x00001a8a:    bf00        ..      NOP      
        0x00001a8c:    4811        .H      LDR      r0,[pc,#68] ; [0x1ad4] = 0x20000184
        0x00001a8e:    6800        .h      LDR      r0,[r0,#0]
        0x00001a90:    fb059900    ....    MLA      r9,r5,r0,r9
        0x00001a94:    480f        .H      LDR      r0,[pc,#60] ; [0x1ad4] = 0x20000184
        0x00001a96:    6800        .h      LDR      r0,[r0,#0]
        0x00001a98:    fbb6f1f0    ....    UDIV     r1,r6,r0
        0x00001a9c:    fb006511    ...e    MLS      r5,r0,r1,r6
        0x00001aa0:    b195        ..      CBZ      r5,0x1ac8 ; MSC_BulkIn + 212
        0x00001aa2:    2108        .!      MOVS     r1,#8
        0x00001aa4:    4809        .H      LDR      r0,[pc,#36] ; [0x1acc] = 0x40019000
        0x00001aa6:    66c1        .f      STR      r1,[r0,#0x6c]
        0x00001aa8:    2001        .       MOVS     r0,#1
        0x00001aaa:    4909        .I      LDR      r1,[pc,#36] ; [0x1ad0] = 0x2000023f
        0x00001aac:    7008        .p      STRB     r0,[r1,#0]
        0x00001aae:    e009        ..      B        0x1ac4 ; MSC_BulkIn + 208
        0x00001ab0:    4806        .H      LDR      r0,[pc,#24] ; [0x1acc] = 0x40019000
        0x00001ab2:    6e80        .n      LDR      r0,[r0,#0x68]
        0x00001ab4:    f0000002    ....    AND      r0,r0,#2
        0x00001ab8:    b120         .      CBZ      r0,0x1ac4 ; MSC_BulkIn + 208
        0x00001aba:    4629        )F      MOV      r1,r5
        0x00001abc:    4648        HF      MOV      r0,r9
        0x00001abe:    f7ffff6d    ..m.    BL       MSC_ActiveDMA ; 0x199c
        0x00001ac2:    e000        ..      B        0x1ac6 ; MSC_BulkIn + 210
        0x00001ac4:    e7f4        ..      B        0x1ab0 ; MSC_BulkIn + 188
        0x00001ac6:    bf00        ..      NOP      
        0x00001ac8:    e8bd83f0    ....    POP      {r4-r9,pc}
    $d
        0x00001acc:    40019000    ...@    DCD    1073844224
        0x00001ad0:    2000023f    ?..     DCD    536871487
        0x00001ad4:    20000184    ...     DCD    536871300
    $t
    i.MSC_BulkOut
    MSC_BulkOut
        0x00001ad8:    b5f0        ..      PUSH     {r4-r7,lr}
        0x00001ada:    4605        .F      MOV      r5,r0
        0x00001adc:    460e        .F      MOV      r6,r1
        0x00001ade:    4810        .H      LDR      r0,[pc,#64] ; [0x1b20] = 0x40019000
        0x00001ae0:    6dc0        .m      LDR      r0,[r0,#0x5c]
        0x00001ae2:    f240111f    @...    MOV      r1,#0x11f
        0x00001ae6:    4388        .C      BICS     r0,r0,r1
        0x00001ae8:    1c40        @.      ADDS     r0,r0,#1
        0x00001aea:    490d        .I      LDR      r1,[pc,#52] ; [0x1b20] = 0x40019000
        0x00001aec:    65c8        .e      STR      r0,[r1,#0x5c]
        0x00001aee:    2000        .       MOVS     r0,#0
        0x00001af0:    490c        .I      LDR      r1,[pc,#48] ; [0x1b24] = 0x2000023f
        0x00001af2:    7008        .p      STRB     r0,[r1,#0]
        0x00001af4:    0b37        7.      LSRS     r7,r6,#12
        0x00001af6:    2400        .$      MOVS     r4,#0
        0x00001af8:    e006        ..      B        0x1b08 ; MSC_BulkOut + 48
        0x00001afa:    eb053004    ...0    ADD      r0,r5,r4,LSL #12
        0x00001afe:    f44f5180    O..Q    MOV      r1,#0x1000
        0x00001b02:    f7ffff4b    ..K.    BL       MSC_ActiveDMA ; 0x199c
        0x00001b06:    1c64        d.      ADDS     r4,r4,#1
        0x00001b08:    42bc        .B      CMP      r4,r7
        0x00001b0a:    d3f6        ..      BCC      0x1afa ; MSC_BulkOut + 34
        0x00001b0c:    f3c6070b    ....    UBFX     r7,r6,#0,#12
        0x00001b10:    b127        '.      CBZ      r7,0x1b1c ; MSC_BulkOut + 68
        0x00001b12:    eb053004    ...0    ADD      r0,r5,r4,LSL #12
        0x00001b16:    4639        9F      MOV      r1,r7
        0x00001b18:    f7ffff40    ..@.    BL       MSC_ActiveDMA ; 0x199c
        0x00001b1c:    bdf0        ..      POP      {r4-r7,pc}
    $d
        0x00001b1e:    0000        ..      DCW    0
        0x00001b20:    40019000    ...@    DCD    1073844224
        0x00001b24:    2000023f    ?..     DCD    536871487
    $t
    i.MSC_ClassRequest
    MSC_ClassRequest
        0x00001b28:    b510        ..      PUSH     {r4,lr}
        0x00001b2a:    2001        .       MOVS     r0,#1
        0x00001b2c:    4915        .I      LDR      r1,[pc,#84] ; [0x1b84] = 0x20000172
        0x00001b2e:    7008        .p      STRB     r0,[r1,#0]
        0x00001b30:    4815        .H      LDR      r0,[pc,#84] ; [0x1b88] = 0x20000214
        0x00001b32:    7800        .x      LDRB     r0,[r0,#0]
        0x00001b34:    f0000080    ....    AND      r0,r0,#0x80
        0x00001b38:    b188        ..      CBZ      r0,0x1b5e ; MSC_ClassRequest + 54
        0x00001b3a:    4813        .H      LDR      r0,[pc,#76] ; [0x1b88] = 0x20000214
        0x00001b3c:    7840        @x      LDRB     r0,[r0,#1]
        0x00001b3e:    28fe        .(      CMP      r0,#0xfe
        0x00001b40:    d108        ..      BNE      0x1b54 ; MSC_ClassRequest + 44
        0x00001b42:    2101        .!      MOVS     r1,#1
        0x00001b44:    4811        .H      LDR      r0,[pc,#68] ; [0x1b8c] = 0x20000178
        0x00001b46:    f7fffbdb    ....    BL       HSUSBD_PrepareCtrlIn ; 0x1300
        0x00001b4a:    2008        .       MOVS     r0,#8
        0x00001b4c:    4910        .I      LDR      r1,[pc,#64] ; [0x1b90] = 0x40019000
        0x00001b4e:    6348        Hc      STR      r0,[r1,#0x34]
        0x00001b50:    6308        .c      STR      r0,[r1,#0x30]
        0x00001b52:    e003        ..      B        0x1b5c ; MSC_ClassRequest + 52
        0x00001b54:    2002        .       MOVS     r0,#2
        0x00001b56:    490e        .I      LDR      r1,[pc,#56] ; [0x1b90] = 0x40019000
        0x00001b58:    62c8        .b      STR      r0,[r1,#0x2c]
        0x00001b5a:    bf00        ..      NOP      
        0x00001b5c:    e011        ..      B        0x1b82 ; MSC_ClassRequest + 90
        0x00001b5e:    480a        .H      LDR      r0,[pc,#40] ; [0x1b88] = 0x20000214
        0x00001b60:    7840        @x      LDRB     r0,[r0,#1]
        0x00001b62:    28ff        .(      CMP      r0,#0xff
        0x00001b64:    d108        ..      BNE      0x1b78 ; MSC_ClassRequest + 80
        0x00001b66:    f44f6080    O..`    MOV      r0,#0x400
        0x00001b6a:    4909        .I      LDR      r1,[pc,#36] ; [0x1b90] = 0x40019000
        0x00001b6c:    6348        Hc      STR      r0,[r1,#0x34]
        0x00001b6e:    2000        .       MOVS     r0,#0
        0x00001b70:    62c8        .b      STR      r0,[r1,#0x2c]
        0x00001b72:    1508        ..      ASRS     r0,r1,#20
        0x00001b74:    6308        .c      STR      r0,[r1,#0x30]
        0x00001b76:    e003        ..      B        0x1b80 ; MSC_ClassRequest + 88
        0x00001b78:    2002        .       MOVS     r0,#2
        0x00001b7a:    4905        .I      LDR      r1,[pc,#20] ; [0x1b90] = 0x40019000
        0x00001b7c:    62c8        .b      STR      r0,[r1,#0x2c]
        0x00001b7e:    bf00        ..      NOP      
        0x00001b80:    bf00        ..      NOP      
        0x00001b82:    bd10        ..      POP      {r4,pc}
    $d
        0x00001b84:    20000172    r..     DCD    536871282
        0x00001b88:    20000214    ...     DCD    536871444
        0x00001b8c:    20000178    x..     DCD    536871288
        0x00001b90:    40019000    ...@    DCD    1073844224
    $t
    i.MSC_Init
    MSC_Init
        0x00001b94:    b510        ..      PUSH     {r4,lr}
        0x00001b96:    200f        .       MOVS     r0,#0xf
        0x00001b98:    490f        .I      LDR      r1,[pc,#60] ; [0x1bd8] = 0x40019000
        0x00001b9a:    6088        .`      STR      r0,[r1,#8]
        0x00001b9c:    f44f7093    O..p    MOV      r0,#0x126
        0x00001ba0:    6148        Ha      STR      r0,[r1,#0x14]
        0x00001ba2:    2000        .       MOVS     r0,#0
        0x00001ba4:    6208        .b      STR      r0,[r1,#0x20]
        0x00001ba6:    2240        @"      MOVS     r2,#0x40
        0x00001ba8:    2100        .!      MOVS     r1,#0
        0x00001baa:    20ff        .       MOVS     r0,#0xff
        0x00001bac:    f7fffbee    ....    BL       HSUSBD_SetEpBufAddr ; 0x138c
        0x00001bb0:    f2404002    @..@    MOV      r0,#0x402
        0x00001bb4:    4908        .I      LDR      r1,[pc,#32] ; [0x1bd8] = 0x40019000
        0x00001bb6:    6308        .c      STR      r0,[r1,#0x30]
        0x00001bb8:    f000f84a    ..J.    BL       MSC_InitForHighSpeed ; 0x1c50
        0x00001bbc:    4807        .H      LDR      r0,[pc,#28] ; [0x1bdc] = 0x53425355
        0x00001bbe:    4908        .I      LDR      r1,[pc,#32] ; [0x1be0] = 0x20000280
        0x00001bc0:    6008        .`      STR      r0,[r1,#0]
        0x00001bc2:    2040        @       MOVS     r0,#0x40
        0x00001bc4:    4907        .I      LDR      r1,[pc,#28] ; [0x1be4] = 0x2000016c
        0x00001bc6:    6008        .`      STR      r0,[r1,#0]
        0x00001bc8:    4807        .H      LDR      r0,[pc,#28] ; [0x1be8] = 0x20001000
        0x00001bca:    4908        .I      LDR      r1,[pc,#32] ; [0x1bec] = 0x2000017c
        0x00001bcc:    6008        .`      STR      r0,[r1,#0]
        0x00001bce:    4808        .H      LDR      r0,[pc,#32] ; [0x1bf0] = 0x20002300
        0x00001bd0:    4908        .I      LDR      r1,[pc,#32] ; [0x1bf4] = 0x20000180
        0x00001bd2:    6008        .`      STR      r0,[r1,#0]
        0x00001bd4:    bd10        ..      POP      {r4,pc}
    $d
        0x00001bd6:    0000        ..      DCW    0
        0x00001bd8:    40019000    ...@    DCD    1073844224
        0x00001bdc:    53425355    USBS    DCD    1396855637
        0x00001be0:    20000280    ...     DCD    536871552
        0x00001be4:    2000016c    l..     DCD    536871276
        0x00001be8:    20001000    ...     DCD    536875008
        0x00001bec:    2000017c    |..     DCD    536871292
        0x00001bf0:    20002300    .#.     DCD    536879872
        0x00001bf4:    20000180    ...     DCD    536871296
    $t
    i.MSC_InitForFullSpeed
    MSC_InitForFullSpeed
        0x00001bf8:    b510        ..      PUSH     {r4,lr}
        0x00001bfa:    f44f7200    O..r    MOV      r2,#0x200
        0x00001bfe:    4611        .F      MOV      r1,r2
        0x00001c00:    2000        .       MOVS     r0,#0
        0x00001c02:    f7fffbc3    ....    BL       HSUSBD_SetEpBufAddr ; 0x138c
        0x00001c06:    2140        @!      MOVS     r1,#0x40
        0x00001c08:    480f        .H      LDR      r0,[pc,#60] ; [0x1c48] = 0x40019000
        0x00001c0a:    6781        .g      STR      r1,[r0,#0x78]
        0x00001c0c:    2308        .#      MOVS     r3,#8
        0x00001c0e:    2202        ."      MOVS     r2,#2
        0x00001c10:    2101        .!      MOVS     r1,#1
        0x00001c12:    2000        .       MOVS     r0,#0
        0x00001c14:    f7fff92a    ..*.    BL       HSUSBD_ConfigEp ; 0xe6c
        0x00001c18:    f44f7200    O..r    MOV      r2,#0x200
        0x00001c1c:    0051        Q.      LSLS     r1,r2,#1
        0x00001c1e:    2001        .       MOVS     r0,#1
        0x00001c20:    f7fffbb4    ....    BL       HSUSBD_SetEpBufAddr ; 0x138c
        0x00001c24:    2140        @!      MOVS     r1,#0x40
        0x00001c26:    4808        .H      LDR      r0,[pc,#32] ; [0x1c48] = 0x40019000
        0x00001c28:    30a0        .0      ADDS     r0,r0,#0xa0
        0x00001c2a:    6001        .`      STR      r1,[r0,#0]
        0x00001c2c:    2300        .#      MOVS     r3,#0
        0x00001c2e:    2202        ."      MOVS     r2,#2
        0x00001c30:    2101        .!      MOVS     r1,#1
        0x00001c32:    4608        .F      MOV      r0,r1
        0x00001c34:    f7fff91a    ....    BL       HSUSBD_ConfigEp ; 0xe6c
        0x00001c38:    2110        .!      MOVS     r1,#0x10
        0x00001c3a:    4803        .H      LDR      r0,[pc,#12] ; [0x1c48] = 0x40019000
        0x00001c3c:    3094        .0      ADDS     r0,r0,#0x94
        0x00001c3e:    6001        .`      STR      r1,[r0,#0]
        0x00001c40:    2040        @       MOVS     r0,#0x40
        0x00001c42:    4902        .I      LDR      r1,[pc,#8] ; [0x1c4c] = 0x20000184
        0x00001c44:    6008        .`      STR      r0,[r1,#0]
        0x00001c46:    bd10        ..      POP      {r4,pc}
    $d
        0x00001c48:    40019000    ...@    DCD    1073844224
        0x00001c4c:    20000184    ...     DCD    536871300
    $t
    i.MSC_InitForHighSpeed
    MSC_InitForHighSpeed
        0x00001c50:    b510        ..      PUSH     {r4,lr}
        0x00001c52:    f44f7200    O..r    MOV      r2,#0x200
        0x00001c56:    4611        .F      MOV      r1,r2
        0x00001c58:    2000        .       MOVS     r0,#0
        0x00001c5a:    f7fffb97    ....    BL       HSUSBD_SetEpBufAddr ; 0x138c
        0x00001c5e:    f44f7100    O..q    MOV      r1,#0x200
        0x00001c62:    4810        .H      LDR      r0,[pc,#64] ; [0x1ca4] = 0x40019000
        0x00001c64:    6781        .g      STR      r1,[r0,#0x78]
        0x00001c66:    2308        .#      MOVS     r3,#8
        0x00001c68:    2202        ."      MOVS     r2,#2
        0x00001c6a:    2101        .!      MOVS     r1,#1
        0x00001c6c:    2000        .       MOVS     r0,#0
        0x00001c6e:    f7fff8fd    ....    BL       HSUSBD_ConfigEp ; 0xe6c
        0x00001c72:    f44f7200    O..r    MOV      r2,#0x200
        0x00001c76:    0051        Q.      LSLS     r1,r2,#1
        0x00001c78:    2001        .       MOVS     r0,#1
        0x00001c7a:    f7fffb87    ....    BL       HSUSBD_SetEpBufAddr ; 0x138c
        0x00001c7e:    f44f7100    O..q    MOV      r1,#0x200
        0x00001c82:    4808        .H      LDR      r0,[pc,#32] ; [0x1ca4] = 0x40019000
        0x00001c84:    30a0        .0      ADDS     r0,r0,#0xa0
        0x00001c86:    6001        .`      STR      r1,[r0,#0]
        0x00001c88:    2300        .#      MOVS     r3,#0
        0x00001c8a:    2202        ."      MOVS     r2,#2
        0x00001c8c:    2101        .!      MOVS     r1,#1
        0x00001c8e:    4608        .F      MOV      r0,r1
        0x00001c90:    f7fff8ec    ....    BL       HSUSBD_ConfigEp ; 0xe6c
        0x00001c94:    2110        .!      MOVS     r1,#0x10
        0x00001c96:    4803        .H      LDR      r0,[pc,#12] ; [0x1ca4] = 0x40019000
        0x00001c98:    3094        .0      ADDS     r0,r0,#0x94
        0x00001c9a:    6001        .`      STR      r1,[r0,#0]
        0x00001c9c:    1540        @.      ASRS     r0,r0,#21
        0x00001c9e:    4902        .I      LDR      r1,[pc,#8] ; [0x1ca8] = 0x20000184
        0x00001ca0:    6008        .`      STR      r0,[r1,#0]
        0x00001ca2:    bd10        ..      POP      {r4,pc}
    $d
        0x00001ca4:    40019000    ...@    DCD    1073844224
        0x00001ca8:    20000184    ...     DCD    536871300
    $t
    i.MSC_ModeSense10
    MSC_ModeSense10
        0x00001cac:    e92d41f0    -..A    PUSH     {r4-r8,lr}
        0x00001cb0:    f04f0800    O...    MOV      r8,#0
        0x00001cb4:    2000        .       MOVS     r0,#0
        0x00001cb6:    496e        nI      LDR      r1,[pc,#440] ; [0x1e70] = 0x2000017c
        0x00001cb8:    6809        .h      LDR      r1,[r1,#0]
        0x00001cba:    6008        .`      STR      r0,[r1,#0]
        0x00001cbc:    496c        lI      LDR      r1,[pc,#432] ; [0x1e70] = 0x2000017c
        0x00001cbe:    6809        .h      LDR      r1,[r1,#0]
        0x00001cc0:    6048        H`      STR      r0,[r1,#4]
        0x00001cc2:    486c        lH      LDR      r0,[pc,#432] ; [0x1e74] = 0x20000260
        0x00001cc4:    7c40        @|      LDRB     r0,[r0,#0x11]
        0x00001cc6:    281b        .(      CMP      r0,#0x1b
        0x00001cc8:    d048        H.      BEQ      0x1d5c ; MSC_ModeSense10 + 176
        0x00001cca:    dc04        ..      BGT      0x1cd6 ; MSC_ModeSense10 + 42
        0x00001ccc:    2801        .(      CMP      r0,#1
        0x00001cce:    d007        ..      BEQ      0x1ce0 ; MSC_ModeSense10 + 52
        0x00001cd0:    2805        .(      CMP      r0,#5
        0x00001cd2:    d170        p.      BNE      0x1db6 ; MSC_ModeSense10 + 266
        0x00001cd4:    e017        ..      B        0x1d06 ; MSC_ModeSense10 + 90
        0x00001cd6:    281c        .(      CMP      r0,#0x1c
        0x00001cd8:    d053        S.      BEQ      0x1d82 ; MSC_ModeSense10 + 214
        0x00001cda:    283f        ?(      CMP      r0,#0x3f
        0x00001cdc:    d1f9        ..      BNE      0x1cd2 ; MSC_ModeSense10 + 38
        0x00001cde:    e063        c.      B        0x1da8 ; MSC_ModeSense10 + 252
        0x00001ce0:    2013        .       MOVS     r0,#0x13
        0x00001ce2:    4963        cI      LDR      r1,[pc,#396] ; [0x1e70] = 0x2000017c
        0x00001ce4:    6809        .h      LDR      r1,[r1,#0]
        0x00001ce6:    7008        .p      STRB     r0,[r1,#0]
        0x00001ce8:    2508        .%      MOVS     r5,#8
        0x00001cea:    2400        .$      MOVS     r4,#0
        0x00001cec:    e008        ..      B        0x1d00 ; MSC_ModeSense10 + 84
        0x00001cee:    4862        bH      LDR      r0,[pc,#392] ; [0x1e78] = 0x200001b0
        0x00001cf0:    5d00        .]      LDRB     r0,[r0,r4]
        0x00001cf2:    495f        _I      LDR      r1,[pc,#380] ; [0x1e70] = 0x2000017c
        0x00001cf4:    6809        .h      LDR      r1,[r1,#0]
        0x00001cf6:    5548        HU      STRB     r0,[r1,r5]
        0x00001cf8:    1c60        `.      ADDS     r0,r4,#1
        0x00001cfa:    b2c4        ..      UXTB     r4,r0
        0x00001cfc:    1c68        h.      ADDS     r0,r5,#1
        0x00001cfe:    b2c5        ..      UXTB     r5,r0
        0x00001d00:    2c0c        .,      CMP      r4,#0xc
        0x00001d02:    dbf4        ..      BLT      0x1cee ; MSC_ModeSense10 + 66
        0x00001d04:    e0ab        ..      B        0x1e5e ; MSC_ModeSense10 + 434
        0x00001d06:    2027        '       MOVS     r0,#0x27
        0x00001d08:    4959        YI      LDR      r1,[pc,#356] ; [0x1e70] = 0x2000017c
        0x00001d0a:    6809        .h      LDR      r1,[r1,#0]
        0x00001d0c:    7008        .p      STRB     r0,[r1,#0]
        0x00001d0e:    2508        .%      MOVS     r5,#8
        0x00001d10:    2400        .$      MOVS     r4,#0
        0x00001d12:    e008        ..      B        0x1d26 ; MSC_ModeSense10 + 122
        0x00001d14:    4859        YH      LDR      r0,[pc,#356] ; [0x1e7c] = 0x200001bc
        0x00001d16:    5d00        .]      LDRB     r0,[r0,r4]
        0x00001d18:    4955        UI      LDR      r1,[pc,#340] ; [0x1e70] = 0x2000017c
        0x00001d1a:    6809        .h      LDR      r1,[r1,#0]
        0x00001d1c:    5548        HU      STRB     r0,[r1,r5]
        0x00001d1e:    1c60        `.      ADDS     r0,r4,#1
        0x00001d20:    b2c4        ..      UXTB     r4,r0
        0x00001d22:    1c68        h.      ADDS     r0,r5,#1
        0x00001d24:    b2c5        ..      UXTB     r5,r0
        0x00001d26:    2c20         ,      CMP      r4,#0x20
        0x00001d28:    dbf4        ..      BLT      0x1d14 ; MSC_ModeSense10 + 104
        0x00001d2a:    2602        .&      MOVS     r6,#2
        0x00001d2c:    2740        @'      MOVS     r7,#0x40
        0x00001d2e:    4954        TI      LDR      r1,[pc,#336] ; [0x1e80] = 0x2000016c
        0x00001d30:    6808        .h      LDR      r0,[r1,#0]
        0x00001d32:    17c1        ..      ASRS     r1,r0,#31
        0x00001d34:    eb006151    ..Qa    ADD      r1,r0,r1,LSR #25
        0x00001d38:    f3c118cf    ....    UBFX     r8,r1,#7,#16
        0x00001d3c:    484c        LH      LDR      r0,[pc,#304] ; [0x1e70] = 0x2000017c
        0x00001d3e:    6800        .h      LDR      r0,[r0,#0]
        0x00001d40:    7306        .s      STRB     r6,[r0,#0xc]
        0x00001d42:    484b        KH      LDR      r0,[pc,#300] ; [0x1e70] = 0x2000017c
        0x00001d44:    6800        .h      LDR      r0,[r0,#0]
        0x00001d46:    7347        Gs      STRB     r7,[r0,#0xd]
        0x00001d48:    ea4f2028    O.(     ASR      r0,r8,#8
        0x00001d4c:    4948        HI      LDR      r1,[pc,#288] ; [0x1e70] = 0x2000017c
        0x00001d4e:    6809        .h      LDR      r1,[r1,#0]
        0x00001d50:    7408        .t      STRB     r0,[r1,#0x10]
        0x00001d52:    4947        GI      LDR      r1,[pc,#284] ; [0x1e70] = 0x2000017c
        0x00001d54:    6809        .h      LDR      r1,[r1,#0]
        0x00001d56:    f8818011    ....    STRB     r8,[r1,#0x11]
        0x00001d5a:    e080        ..      B        0x1e5e ; MSC_ModeSense10 + 434
        0x00001d5c:    2013        .       MOVS     r0,#0x13
        0x00001d5e:    4944        DI      LDR      r1,[pc,#272] ; [0x1e70] = 0x2000017c
        0x00001d60:    6809        .h      LDR      r1,[r1,#0]
        0x00001d62:    7008        .p      STRB     r0,[r1,#0]
        0x00001d64:    2508        .%      MOVS     r5,#8
        0x00001d66:    2400        .$      MOVS     r4,#0
        0x00001d68:    e008        ..      B        0x1d7c ; MSC_ModeSense10 + 208
        0x00001d6a:    4846        FH      LDR      r0,[pc,#280] ; [0x1e84] = 0x200001dc
        0x00001d6c:    5d00        .]      LDRB     r0,[r0,r4]
        0x00001d6e:    4940        @I      LDR      r1,[pc,#256] ; [0x1e70] = 0x2000017c
        0x00001d70:    6809        .h      LDR      r1,[r1,#0]
        0x00001d72:    5548        HU      STRB     r0,[r1,r5]
        0x00001d74:    1c60        `.      ADDS     r0,r4,#1
        0x00001d76:    b2c4        ..      UXTB     r4,r0
        0x00001d78:    1c68        h.      ADDS     r0,r5,#1
        0x00001d7a:    b2c5        ..      UXTB     r5,r0
        0x00001d7c:    2c0c        .,      CMP      r4,#0xc
        0x00001d7e:    dbf4        ..      BLT      0x1d6a ; MSC_ModeSense10 + 190
        0x00001d80:    e06d        m.      B        0x1e5e ; MSC_ModeSense10 + 434
        0x00001d82:    200f        .       MOVS     r0,#0xf
        0x00001d84:    493a        :I      LDR      r1,[pc,#232] ; [0x1e70] = 0x2000017c
        0x00001d86:    6809        .h      LDR      r1,[r1,#0]
        0x00001d88:    7008        .p      STRB     r0,[r1,#0]
        0x00001d8a:    2508        .%      MOVS     r5,#8
        0x00001d8c:    2400        .$      MOVS     r4,#0
        0x00001d8e:    e008        ..      B        0x1da2 ; MSC_ModeSense10 + 246
        0x00001d90:    483d        =H      LDR      r0,[pc,#244] ; [0x1e88] = 0x200001e8
        0x00001d92:    5d00        .]      LDRB     r0,[r0,r4]
        0x00001d94:    4936        6I      LDR      r1,[pc,#216] ; [0x1e70] = 0x2000017c
        0x00001d96:    6809        .h      LDR      r1,[r1,#0]
        0x00001d98:    5548        HU      STRB     r0,[r1,r5]
        0x00001d9a:    1c60        `.      ADDS     r0,r4,#1
        0x00001d9c:    b2c4        ..      UXTB     r4,r0
        0x00001d9e:    1c68        h.      ADDS     r0,r5,#1
        0x00001da0:    b2c5        ..      UXTB     r5,r0
        0x00001da2:    2c08        .,      CMP      r4,#8
        0x00001da4:    dbf4        ..      BLT      0x1d90 ; MSC_ModeSense10 + 228
        0x00001da6:    e05a        Z.      B        0x1e5e ; MSC_ModeSense10 + 434
        0x00001da8:    2047        G       MOVS     r0,#0x47
        0x00001daa:    4931        1I      LDR      r1,[pc,#196] ; [0x1e70] = 0x2000017c
        0x00001dac:    6809        .h      LDR      r1,[r1,#0]
        0x00001dae:    7008        .p      STRB     r0,[r1,#0]
        0x00001db0:    2508        .%      MOVS     r5,#8
        0x00001db2:    2400        .$      MOVS     r4,#0
        0x00001db4:    e009        ..      B        0x1dca ; MSC_ModeSense10 + 286
        0x00001db6:    e04a        J.      B        0x1e4e ; MSC_ModeSense10 + 418
        0x00001db8:    482f        /H      LDR      r0,[pc,#188] ; [0x1e78] = 0x200001b0
        0x00001dba:    5d00        .]      LDRB     r0,[r0,r4]
        0x00001dbc:    492c        ,I      LDR      r1,[pc,#176] ; [0x1e70] = 0x2000017c
        0x00001dbe:    6809        .h      LDR      r1,[r1,#0]
        0x00001dc0:    5548        HU      STRB     r0,[r1,r5]
        0x00001dc2:    1c60        `.      ADDS     r0,r4,#1
        0x00001dc4:    b2c4        ..      UXTB     r4,r0
        0x00001dc6:    1c68        h.      ADDS     r0,r5,#1
        0x00001dc8:    b2c5        ..      UXTB     r5,r0
        0x00001dca:    2c0c        .,      CMP      r4,#0xc
        0x00001dcc:    dbf4        ..      BLT      0x1db8 ; MSC_ModeSense10 + 268
        0x00001dce:    2400        .$      MOVS     r4,#0
        0x00001dd0:    e008        ..      B        0x1de4 ; MSC_ModeSense10 + 312
        0x00001dd2:    482a        *H      LDR      r0,[pc,#168] ; [0x1e7c] = 0x200001bc
        0x00001dd4:    5d00        .]      LDRB     r0,[r0,r4]
        0x00001dd6:    4926        &I      LDR      r1,[pc,#152] ; [0x1e70] = 0x2000017c
        0x00001dd8:    6809        .h      LDR      r1,[r1,#0]
        0x00001dda:    5548        HU      STRB     r0,[r1,r5]
        0x00001ddc:    1c60        `.      ADDS     r0,r4,#1
        0x00001dde:    b2c4        ..      UXTB     r4,r0
        0x00001de0:    1c68        h.      ADDS     r0,r5,#1
        0x00001de2:    b2c5        ..      UXTB     r5,r0
        0x00001de4:    2c20         ,      CMP      r4,#0x20
        0x00001de6:    dbf4        ..      BLT      0x1dd2 ; MSC_ModeSense10 + 294
        0x00001de8:    2400        .$      MOVS     r4,#0
        0x00001dea:    e008        ..      B        0x1dfe ; MSC_ModeSense10 + 338
        0x00001dec:    4825        %H      LDR      r0,[pc,#148] ; [0x1e84] = 0x200001dc
        0x00001dee:    5d00        .]      LDRB     r0,[r0,r4]
        0x00001df0:    491f        .I      LDR      r1,[pc,#124] ; [0x1e70] = 0x2000017c
        0x00001df2:    6809        .h      LDR      r1,[r1,#0]
        0x00001df4:    5548        HU      STRB     r0,[r1,r5]
        0x00001df6:    1c60        `.      ADDS     r0,r4,#1
        0x00001df8:    b2c4        ..      UXTB     r4,r0
        0x00001dfa:    1c68        h.      ADDS     r0,r5,#1
        0x00001dfc:    b2c5        ..      UXTB     r5,r0
        0x00001dfe:    2c0c        .,      CMP      r4,#0xc
        0x00001e00:    dbf4        ..      BLT      0x1dec ; MSC_ModeSense10 + 320
        0x00001e02:    2400        .$      MOVS     r4,#0
        0x00001e04:    e008        ..      B        0x1e18 ; MSC_ModeSense10 + 364
        0x00001e06:    4820         H      LDR      r0,[pc,#128] ; [0x1e88] = 0x200001e8
        0x00001e08:    5d00        .]      LDRB     r0,[r0,r4]
        0x00001e0a:    4919        .I      LDR      r1,[pc,#100] ; [0x1e70] = 0x2000017c
        0x00001e0c:    6809        .h      LDR      r1,[r1,#0]
        0x00001e0e:    5548        HU      STRB     r0,[r1,r5]
        0x00001e10:    1c60        `.      ADDS     r0,r4,#1
        0x00001e12:    b2c4        ..      UXTB     r4,r0
        0x00001e14:    1c68        h.      ADDS     r0,r5,#1
        0x00001e16:    b2c5        ..      UXTB     r5,r0
        0x00001e18:    2c08        .,      CMP      r4,#8
        0x00001e1a:    dbf4        ..      BLT      0x1e06 ; MSC_ModeSense10 + 346
        0x00001e1c:    2602        .&      MOVS     r6,#2
        0x00001e1e:    2740        @'      MOVS     r7,#0x40
        0x00001e20:    4917        .I      LDR      r1,[pc,#92] ; [0x1e80] = 0x2000016c
        0x00001e22:    6808        .h      LDR      r0,[r1,#0]
        0x00001e24:    17c1        ..      ASRS     r1,r0,#31
        0x00001e26:    eb006151    ..Qa    ADD      r1,r0,r1,LSR #25
        0x00001e2a:    f3c118cf    ....    UBFX     r8,r1,#7,#16
        0x00001e2e:    4810        .H      LDR      r0,[pc,#64] ; [0x1e70] = 0x2000017c
        0x00001e30:    6800        .h      LDR      r0,[r0,#0]
        0x00001e32:    7606        .v      STRB     r6,[r0,#0x18]
        0x00001e34:    480e        .H      LDR      r0,[pc,#56] ; [0x1e70] = 0x2000017c
        0x00001e36:    6800        .h      LDR      r0,[r0,#0]
        0x00001e38:    7647        Gv      STRB     r7,[r0,#0x19]
        0x00001e3a:    ea4f2028    O.(     ASR      r0,r8,#8
        0x00001e3e:    490c        .I      LDR      r1,[pc,#48] ; [0x1e70] = 0x2000017c
        0x00001e40:    6809        .h      LDR      r1,[r1,#0]
        0x00001e42:    7708        .w      STRB     r0,[r1,#0x1c]
        0x00001e44:    490a        .I      LDR      r1,[pc,#40] ; [0x1e70] = 0x2000017c
        0x00001e46:    6809        .h      LDR      r1,[r1,#0]
        0x00001e48:    f881801d    ....    STRB     r8,[r1,#0x1d]
        0x00001e4c:    e007        ..      B        0x1e5e ; MSC_ModeSense10 + 434
        0x00001e4e:    2005        .       MOVS     r0,#5
        0x00001e50:    490e        .I      LDR      r1,[pc,#56] ; [0x1e8c] = 0x20000173
        0x00001e52:    7008        .p      STRB     r0,[r1,#0]
        0x00001e54:    2024        $       MOVS     r0,#0x24
        0x00001e56:    7048        Hp      STRB     r0,[r1,#1]
        0x00001e58:    2000        .       MOVS     r0,#0
        0x00001e5a:    7088        .p      STRB     r0,[r1,#2]
        0x00001e5c:    bf00        ..      NOP      
        0x00001e5e:    bf00        ..      NOP      
        0x00001e60:    4804        .H      LDR      r0,[pc,#16] ; [0x1e74] = 0x20000260
        0x00001e62:    6881        .h      LDR      r1,[r0,#8]
        0x00001e64:    4802        .H      LDR      r0,[pc,#8] ; [0x1e70] = 0x2000017c
        0x00001e66:    6800        .h      LDR      r0,[r0,#0]
        0x00001e68:    f7fffdc4    ....    BL       MSC_BulkIn ; 0x19f4
        0x00001e6c:    e8bd81f0    ....    POP      {r4-r8,pc}
    $d
        0x00001e70:    2000017c    |..     DCD    536871292
        0x00001e74:    20000260    `..     DCD    536871520
        0x00001e78:    200001b0    ...     DCD    536871344
        0x00001e7c:    200001bc    ...     DCD    536871356
        0x00001e80:    2000016c    l..     DCD    536871276
        0x00001e84:    200001dc    ...     DCD    536871388
        0x00001e88:    200001e8    ...     DCD    536871400
        0x00001e8c:    20000173    s..     DCD    536871283
    $t
    i.MSC_ModeSense6
    MSC_ModeSense6
        0x00001e90:    b510        ..      PUSH     {r4,lr}
        0x00001e92:    2400        .$      MOVS     r4,#0
        0x00001e94:    e006        ..      B        0x1ea4 ; MSC_ModeSense6 + 20
        0x00001e96:    4808        .H      LDR      r0,[pc,#32] ; [0x1eb8] = 0x200001f0
        0x00001e98:    5d00        .]      LDRB     r0,[r0,r4]
        0x00001e9a:    4908        .I      LDR      r1,[pc,#32] ; [0x1ebc] = 0x2000017c
        0x00001e9c:    6809        .h      LDR      r1,[r1,#0]
        0x00001e9e:    5508        .U      STRB     r0,[r1,r4]
        0x00001ea0:    1c60        `.      ADDS     r0,r4,#1
        0x00001ea2:    b2c4        ..      UXTB     r4,r0
        0x00001ea4:    2c04        .,      CMP      r4,#4
        0x00001ea6:    dbf6        ..      BLT      0x1e96 ; MSC_ModeSense6 + 6
        0x00001ea8:    4805        .H      LDR      r0,[pc,#20] ; [0x1ec0] = 0x20000260
        0x00001eaa:    6881        .h      LDR      r1,[r0,#8]
        0x00001eac:    4803        .H      LDR      r0,[pc,#12] ; [0x1ebc] = 0x2000017c
        0x00001eae:    6800        .h      LDR      r0,[r0,#0]
        0x00001eb0:    f7fffda0    ....    BL       MSC_BulkIn ; 0x19f4
        0x00001eb4:    bd10        ..      POP      {r4,pc}
    $d
        0x00001eb6:    0000        ..      DCW    0
        0x00001eb8:    200001f0    ...     DCD    536871408
        0x00001ebc:    2000017c    |..     DCD    536871292
        0x00001ec0:    20000260    `..     DCD    536871520
    $t
    i.MSC_ProcessCmd
    MSC_ProcessCmd
        0x00001ec4:    b510        ..      PUSH     {r4,lr}
        0x00001ec6:    4870        pH      LDR      r0,[pc,#448] ; [0x2088] = 0x20000170
        0x00001ec8:    7800        .x      LDRB     r0,[r0,#0]
        0x00001eca:    28ff        .(      CMP      r0,#0xff
        0x00001ecc:    d106        ..      BNE      0x1edc ; MSC_ProcessCmd + 24
        0x00001ece:    2002        .       MOVS     r0,#2
        0x00001ed0:    496d        mI      LDR      r1,[pc,#436] ; [0x2088] = 0x20000170
        0x00001ed2:    7008        .p      STRB     r0,[r1,#0]
        0x00001ed4:    486d        mH      LDR      r0,[pc,#436] ; [0x208c] = 0x2000017c
        0x00001ed6:    6800        .h      LDR      r0,[r0,#0]
        0x00001ed8:    f000f964    ..d.    BL       MSC_ReceiveCBW ; 0x21a4
        0x00001edc:    486a        jH      LDR      r0,[pc,#424] ; [0x2088] = 0x20000170
        0x00001ede:    7800        .x      LDRB     r0,[r0,#0]
        0x00001ee0:    2800        .(      CMP      r0,#0
        0x00001ee2:    d172        r.      BNE      0x1fca ; MSC_ProcessCmd + 262
        0x00001ee4:    4869        iH      LDR      r0,[pc,#420] ; [0x208c] = 0x2000017c
        0x00001ee6:    6800        .h      LDR      r0,[r0,#0]
        0x00001ee8:    6800        .h      LDR      r0,[r0,#0]
        0x00001eea:    4969        iI      LDR      r1,[pc,#420] ; [0x2090] = 0x43425355
        0x00001eec:    4288        .B      CMP      r0,r1
        0x00001eee:    d003        ..      BEQ      0x1ef8 ; MSC_ProcessCmd + 52
        0x00001ef0:    20ff        .       MOVS     r0,#0xff
        0x00001ef2:    4965        eI      LDR      r1,[pc,#404] ; [0x2088] = 0x20000170
        0x00001ef4:    7008        .p      STRB     r0,[r1,#0]
        0x00001ef6:    bd10        ..      POP      {r4,pc}
        0x00001ef8:    2400        .$      MOVS     r4,#0
        0x00001efa:    e005        ..      B        0x1f08 ; MSC_ProcessCmd + 68
        0x00001efc:    4863        cH      LDR      r0,[pc,#396] ; [0x208c] = 0x2000017c
        0x00001efe:    6800        .h      LDR      r0,[r0,#0]
        0x00001f00:    5d00        .]      LDRB     r0,[r0,r4]
        0x00001f02:    4964        dI      LDR      r1,[pc,#400] ; [0x2094] = 0x20000260
        0x00001f04:    5508        .U      STRB     r0,[r1,r4]
        0x00001f06:    1c64        d.      ADDS     r4,r4,#1
        0x00001f08:    2c1f        .,      CMP      r4,#0x1f
        0x00001f0a:    d3f7        ..      BCC      0x1efc ; MSC_ProcessCmd + 56
        0x00001f0c:    4861        aH      LDR      r0,[pc,#388] ; [0x2094] = 0x20000260
        0x00001f0e:    6840        @h      LDR      r0,[r0,#4]
        0x00001f10:    4961        aI      LDR      r1,[pc,#388] ; [0x2098] = 0x20000280
        0x00001f12:    6048        H`      STR      r0,[r1,#4]
        0x00001f14:    485f        _H      LDR      r0,[pc,#380] ; [0x2094] = 0x20000260
        0x00001f16:    7bc0        .{      LDRB     r0,[r0,#0xf]
        0x00001f18:    2823        #(      CMP      r0,#0x23
        0x00001f1a:    d06a        j.      BEQ      0x1ff2 ; MSC_ProcessCmd + 302
        0x00001f1c:    dc0e        ..      BGT      0x1f3c ; MSC_ProcessCmd + 120
        0x00001f1e:    281a        .(      CMP      r0,#0x1a
        0x00001f20:    d073        s.      BEQ      0x200a ; MSC_ProcessCmd + 326
        0x00001f22:    dc06        ..      BGT      0x1f32 ; MSC_ProcessCmd + 110
        0x00001f24:    2800        .(      CMP      r0,#0
        0x00001f26:    d05a        Z.      BEQ      0x1fde ; MSC_ProcessCmd + 282
        0x00001f28:    2803        .(      CMP      r0,#3
        0x00001f2a:    d05c        \.      BEQ      0x1fe6 ; MSC_ProcessCmd + 290
        0x00001f2c:    2812        .(      CMP      r0,#0x12
        0x00001f2e:    d16d        m.      BNE      0x200c ; MSC_ProcessCmd + 328
        0x00001f30:    e083        ..      B        0x203a ; MSC_ProcessCmd + 374
        0x00001f32:    281b        .(      CMP      r0,#0x1b
        0x00001f34:    d052        R.      BEQ      0x1fdc ; MSC_ProcessCmd + 280
        0x00001f36:    281e        .(      CMP      r0,#0x1e
        0x00001f38:    d1f9        ..      BNE      0x1f2e ; MSC_ProcessCmd + 106
        0x00001f3a:    e036        6.      B        0x1faa ; MSC_ProcessCmd + 230
        0x00001f3c:    282f        /(      CMP      r0,#0x2f
        0x00001f3e:    d04c        L.      BEQ      0x1fda ; MSC_ProcessCmd + 278
        0x00001f40:    dc06        ..      BGT      0x1f50 ; MSC_ProcessCmd + 140
        0x00001f42:    2825        %(      CMP      r0,#0x25
        0x00001f44:    d05b        [.      BEQ      0x1ffe ; MSC_ProcessCmd + 314
        0x00001f46:    2828        ((      CMP      r0,#0x28
        0x00001f48:    d007        ..      BEQ      0x1f5a ; MSC_ProcessCmd + 150
        0x00001f4a:    282a        *(      CMP      r0,#0x2a
        0x00001f4c:    d1ef        ..      BNE      0x1f2e ; MSC_ProcessCmd + 106
        0x00001f4e:    e018        ..      B        0x1f82 ; MSC_ProcessCmd + 190
        0x00001f50:    2855        U(      CMP      r0,#0x55
        0x00001f52:    d05c        \.      BEQ      0x200e ; MSC_ProcessCmd + 330
        0x00001f54:    285a        Z(      CMP      r0,#0x5a
        0x00001f56:    d1ea        ..      BNE      0x1f2e ; MSC_ProcessCmd + 106
        0x00001f58:    e063        c.      B        0x2022 ; MSC_ProcessCmd + 350
        0x00001f5a:    484e        NH      LDR      r0,[pc,#312] ; [0x2094] = 0x20000260
        0x00001f5c:    3011        .0      ADDS     r0,r0,#0x11
        0x00001f5e:    f001f851    ..Q.    BL       get_be32 ; 0x3004
        0x00001f62:    0240        @.      LSLS     r0,r0,#9
        0x00001f64:    494d        MI      LDR      r1,[pc,#308] ; [0x209c] = 0x20000188
        0x00001f66:    6008        .`      STR      r0,[r1,#0]
        0x00001f68:    4a4a        JJ      LDR      r2,[pc,#296] ; [0x2094] = 0x20000260
        0x00001f6a:    6891        .h      LDR      r1,[r2,#8]
        0x00001f6c:    4a4c        LJ      LDR      r2,[pc,#304] ; [0x20a0] = 0x20000180
        0x00001f6e:    6812        .h      LDR      r2,[r2,#0]
        0x00001f70:    4b4a        JK      LDR      r3,[pc,#296] ; [0x209c] = 0x20000188
        0x00001f72:    681b        .h      LDR      r3,[r3,#0]
        0x00001f74:    18d0        ..      ADDS     r0,r2,r3
        0x00001f76:    f7fffd3d    ..=.    BL       MSC_BulkIn ; 0x19f4
        0x00001f7a:    2000        .       MOVS     r0,#0
        0x00001f7c:    f7fffcf0    ....    BL       MSC_AckCmd ; 0x1960
        0x00001f80:    e07e        ~.      B        0x2080 ; MSC_ProcessCmd + 444
        0x00001f82:    4844        DH      LDR      r0,[pc,#272] ; [0x2094] = 0x20000260
        0x00001f84:    3011        .0      ADDS     r0,r0,#0x11
        0x00001f86:    f001f83d    ..=.    BL       get_be32 ; 0x3004
        0x00001f8a:    0240        @.      LSLS     r0,r0,#9
        0x00001f8c:    4943        CI      LDR      r1,[pc,#268] ; [0x209c] = 0x20000188
        0x00001f8e:    6008        .`      STR      r0,[r1,#0]
        0x00001f90:    4a40        @J      LDR      r2,[pc,#256] ; [0x2094] = 0x20000260
        0x00001f92:    6891        .h      LDR      r1,[r2,#8]
        0x00001f94:    4a42        BJ      LDR      r2,[pc,#264] ; [0x20a0] = 0x20000180
        0x00001f96:    6812        .h      LDR      r2,[r2,#0]
        0x00001f98:    4b40        @K      LDR      r3,[pc,#256] ; [0x209c] = 0x20000188
        0x00001f9a:    681b        .h      LDR      r3,[r3,#0]
        0x00001f9c:    18d0        ..      ADDS     r0,r2,r3
        0x00001f9e:    f7fffd9b    ....    BL       MSC_BulkOut ; 0x1ad8
        0x00001fa2:    2000        .       MOVS     r0,#0
        0x00001fa4:    f7fffcdc    ....    BL       MSC_AckCmd ; 0x1960
        0x00001fa8:    e06a        j.      B        0x2080 ; MSC_ProcessCmd + 444
        0x00001faa:    483a        :H      LDR      r0,[pc,#232] ; [0x2094] = 0x20000260
        0x00001fac:    7cc0        .|      LDRB     r0,[r0,#0x13]
        0x00001fae:    f0000001    ....    AND      r0,r0,#1
        0x00001fb2:    b158        X.      CBZ      r0,0x1fcc ; MSC_ProcessCmd + 264
        0x00001fb4:    2005        .       MOVS     r0,#5
        0x00001fb6:    493b        ;I      LDR      r1,[pc,#236] ; [0x20a4] = 0x20000173
        0x00001fb8:    7008        .p      STRB     r0,[r1,#0]
        0x00001fba:    2024        $       MOVS     r0,#0x24
        0x00001fbc:    7048        Hp      STRB     r0,[r1,#1]
        0x00001fbe:    2000        .       MOVS     r0,#0
        0x00001fc0:    7088        .p      STRB     r0,[r1,#2]
        0x00001fc2:    2001        .       MOVS     r0,#1
        0x00001fc4:    4938        8I      LDR      r1,[pc,#224] ; [0x20a8] = 0x20000171
        0x00001fc6:    7008        .p      STRB     r0,[r1,#0]
        0x00001fc8:    e003        ..      B        0x1fd2 ; MSC_ProcessCmd + 270
        0x00001fca:    e05a        Z.      B        0x2082 ; MSC_ProcessCmd + 446
        0x00001fcc:    2000        .       MOVS     r0,#0
        0x00001fce:    4936        6I      LDR      r1,[pc,#216] ; [0x20a8] = 0x20000171
        0x00001fd0:    7008        .p      STRB     r0,[r1,#0]
        0x00001fd2:    2000        .       MOVS     r0,#0
        0x00001fd4:    f7fffcc4    ....    BL       MSC_AckCmd ; 0x1960
        0x00001fd8:    e052        R.      B        0x2080 ; MSC_ProcessCmd + 444
        0x00001fda:    bf00        ..      NOP      
        0x00001fdc:    bf00        ..      NOP      
        0x00001fde:    2000        .       MOVS     r0,#0
        0x00001fe0:    f7fffcbe    ....    BL       MSC_AckCmd ; 0x1960
        0x00001fe4:    e04c        L.      B        0x2080 ; MSC_ProcessCmd + 444
        0x00001fe6:    f000f8fd    ....    BL       MSC_RequestSense ; 0x21e4
        0x00001fea:    2000        .       MOVS     r0,#0
        0x00001fec:    f7fffcb8    ....    BL       MSC_AckCmd ; 0x1960
        0x00001ff0:    e046        F.      B        0x2080 ; MSC_ProcessCmd + 444
        0x00001ff2:    f000f88d    ....    BL       MSC_ReadFormatCapacity ; 0x2110
        0x00001ff6:    2000        .       MOVS     r0,#0
        0x00001ff8:    f7fffcb2    ....    BL       MSC_AckCmd ; 0x1960
        0x00001ffc:    e040        @.      B        0x2080 ; MSC_ProcessCmd + 444
        0x00001ffe:    f000f857    ..W.    BL       MSC_ReadCapacity ; 0x20b0
        0x00002002:    2000        .       MOVS     r0,#0
        0x00002004:    f7fffcac    ....    BL       MSC_AckCmd ; 0x1960
        0x00002008:    e03a        :.      B        0x2080 ; MSC_ProcessCmd + 444
        0x0000200a:    e010        ..      B        0x202e ; MSC_ProcessCmd + 362
        0x0000200c:    e025        %.      B        0x205a ; MSC_ProcessCmd + 406
        0x0000200e:    4821        !H      LDR      r0,[pc,#132] ; [0x2094] = 0x20000260
        0x00002010:    6881        .h      LDR      r1,[r0,#8]
        0x00002012:    4823        #H      LDR      r0,[pc,#140] ; [0x20a0] = 0x20000180
        0x00002014:    6800        .h      LDR      r0,[r0,#0]
        0x00002016:    f7fffd5f    .._.    BL       MSC_BulkOut ; 0x1ad8
        0x0000201a:    2000        .       MOVS     r0,#0
        0x0000201c:    f7fffca0    ....    BL       MSC_AckCmd ; 0x1960
        0x00002020:    e02e        ..      B        0x2080 ; MSC_ProcessCmd + 444
        0x00002022:    f7fffe43    ..C.    BL       MSC_ModeSense10 ; 0x1cac
        0x00002026:    2000        .       MOVS     r0,#0
        0x00002028:    f7fffc9a    ....    BL       MSC_AckCmd ; 0x1960
        0x0000202c:    e028        (.      B        0x2080 ; MSC_ProcessCmd + 444
        0x0000202e:    f7ffff2f    ../.    BL       MSC_ModeSense6 ; 0x1e90
        0x00002032:    2000        .       MOVS     r0,#0
        0x00002034:    f7fffc94    ....    BL       MSC_AckCmd ; 0x1960
        0x00002038:    e022        ".      B        0x2080 ; MSC_ProcessCmd + 444
        0x0000203a:    2224        $"      MOVS     r2,#0x24
        0x0000203c:    491b        .I      LDR      r1,[pc,#108] ; [0x20ac] = 0x2000018c
        0x0000203e:    4813        .H      LDR      r0,[pc,#76] ; [0x208c] = 0x2000017c
        0x00002040:    6800        .h      LDR      r0,[r0,#0]
        0x00002042:    f7fff921    ..!.    BL       HSUSBD_MemCopy ; 0x1288
        0x00002046:    4813        .H      LDR      r0,[pc,#76] ; [0x2094] = 0x20000260
        0x00002048:    6881        .h      LDR      r1,[r0,#8]
        0x0000204a:    4810        .H      LDR      r0,[pc,#64] ; [0x208c] = 0x2000017c
        0x0000204c:    6800        .h      LDR      r0,[r0,#0]
        0x0000204e:    f7fffcd1    ....    BL       MSC_BulkIn ; 0x19f4
        0x00002052:    2000        .       MOVS     r0,#0
        0x00002054:    f7fffc84    ....    BL       MSC_AckCmd ; 0x1960
        0x00002058:    e012        ..      B        0x2080 ; MSC_ProcessCmd + 444
        0x0000205a:    2005        .       MOVS     r0,#5
        0x0000205c:    4911        .I      LDR      r1,[pc,#68] ; [0x20a4] = 0x20000173
        0x0000205e:    7008        .p      STRB     r0,[r1,#0]
        0x00002060:    2020                MOVS     r0,#0x20
        0x00002062:    7048        Hp      STRB     r0,[r1,#1]
        0x00002064:    2000        .       MOVS     r0,#0
        0x00002066:    7088        .p      STRB     r0,[r1,#2]
        0x00002068:    480a        .H      LDR      r0,[pc,#40] ; [0x2094] = 0x20000260
        0x0000206a:    6880        .h      LDR      r0,[r0,#8]
        0x0000206c:    b120         .      CBZ      r0,0x2078 ; MSC_ProcessCmd + 436
        0x0000206e:    4909        .I      LDR      r1,[pc,#36] ; [0x2094] = 0x20000260
        0x00002070:    6888        .h      LDR      r0,[r1,#8]
        0x00002072:    f7fffc75    ..u.    BL       MSC_AckCmd ; 0x1960
        0x00002076:    e002        ..      B        0x207e ; MSC_ProcessCmd + 442
        0x00002078:    2000        .       MOVS     r0,#0
        0x0000207a:    f7fffc71    ..q.    BL       MSC_AckCmd ; 0x1960
        0x0000207e:    bf00        ..      NOP      
        0x00002080:    bf00        ..      NOP      
        0x00002082:    bf00        ..      NOP      
        0x00002084:    e737        7.      B        0x1ef6 ; MSC_ProcessCmd + 50
    $d
        0x00002086:    0000        ..      DCW    0
        0x00002088:    20000170    p..     DCD    536871280
        0x0000208c:    2000017c    |..     DCD    536871292
        0x00002090:    43425355    USBC    DCD    1128420181
        0x00002094:    20000260    `..     DCD    536871520
        0x00002098:    20000280    ...     DCD    536871552
        0x0000209c:    20000188    ...     DCD    536871304
        0x000020a0:    20000180    ...     DCD    536871296
        0x000020a4:    20000173    s..     DCD    536871283
        0x000020a8:    20000171    q..     DCD    536871281
        0x000020ac:    2000018c    ...     DCD    536871308
    $t
    i.MSC_ReadCapacity
    MSC_ReadCapacity
        0x000020b0:    b508        ..      PUSH     {r3,lr}
        0x000020b2:    2124        $!      MOVS     r1,#0x24
        0x000020b4:    4813        .H      LDR      r0,[pc,#76] ; [0x2104] = 0x2000017c
        0x000020b6:    6800        .h      LDR      r0,[r0,#0]
        0x000020b8:    f7fefa4f    ..O.    BL       __aeabi_memclr ; 0x55a
        0x000020bc:    4812        .H      LDR      r0,[pc,#72] ; [0x2108] = 0x2000016c
        0x000020be:    6800        .h      LDR      r0,[r0,#0]
        0x000020c0:    1e40        @.      SUBS     r0,r0,#1
        0x000020c2:    9000        ..      STR      r0,[sp,#0]
        0x000020c4:    f89d0003    ....    LDRB     r0,[sp,#3]
        0x000020c8:    490e        .I      LDR      r1,[pc,#56] ; [0x2104] = 0x2000017c
        0x000020ca:    6809        .h      LDR      r1,[r1,#0]
        0x000020cc:    7008        .p      STRB     r0,[r1,#0]
        0x000020ce:    f89d0002    ....    LDRB     r0,[sp,#2]
        0x000020d2:    490c        .I      LDR      r1,[pc,#48] ; [0x2104] = 0x2000017c
        0x000020d4:    6809        .h      LDR      r1,[r1,#0]
        0x000020d6:    7048        Hp      STRB     r0,[r1,#1]
        0x000020d8:    f89d0001    ....    LDRB     r0,[sp,#1]
        0x000020dc:    4909        .I      LDR      r1,[pc,#36] ; [0x2104] = 0x2000017c
        0x000020de:    6809        .h      LDR      r1,[r1,#0]
        0x000020e0:    7088        .p      STRB     r0,[r1,#2]
        0x000020e2:    f89d0000    ....    LDRB     r0,[sp,#0]
        0x000020e6:    4907        .I      LDR      r1,[pc,#28] ; [0x2104] = 0x2000017c
        0x000020e8:    6809        .h      LDR      r1,[r1,#0]
        0x000020ea:    70c8        .p      STRB     r0,[r1,#3]
        0x000020ec:    2002        .       MOVS     r0,#2
        0x000020ee:    4905        .I      LDR      r1,[pc,#20] ; [0x2104] = 0x2000017c
        0x000020f0:    6809        .h      LDR      r1,[r1,#0]
        0x000020f2:    7188        .q      STRB     r0,[r1,#6]
        0x000020f4:    4805        .H      LDR      r0,[pc,#20] ; [0x210c] = 0x20000260
        0x000020f6:    6881        .h      LDR      r1,[r0,#8]
        0x000020f8:    4802        .H      LDR      r0,[pc,#8] ; [0x2104] = 0x2000017c
        0x000020fa:    6800        .h      LDR      r0,[r0,#0]
        0x000020fc:    f7fffc7a    ..z.    BL       MSC_BulkIn ; 0x19f4
        0x00002100:    bd08        ..      POP      {r3,pc}
    $d
        0x00002102:    0000        ..      DCW    0
        0x00002104:    2000017c    |..     DCD    536871292
        0x00002108:    2000016c    l..     DCD    536871276
        0x0000210c:    20000260    `..     DCD    536871520
    $t
    i.MSC_ReadFormatCapacity
    MSC_ReadFormatCapacity
        0x00002110:    b510        ..      PUSH     {r4,lr}
        0x00002112:    2124        $!      MOVS     r1,#0x24
        0x00002114:    4820         H      LDR      r0,[pc,#128] ; [0x2198] = 0x2000017c
        0x00002116:    6800        .h      LDR      r0,[r0,#0]
        0x00002118:    f7fefa1f    ....    BL       __aeabi_memclr ; 0x55a
        0x0000211c:    2010        .       MOVS     r0,#0x10
        0x0000211e:    491e        .I      LDR      r1,[pc,#120] ; [0x2198] = 0x2000017c
        0x00002120:    6809        .h      LDR      r1,[r1,#0]
        0x00002122:    70c8        .p      STRB     r0,[r1,#3]
        0x00002124:    481d        .H      LDR      r0,[pc,#116] ; [0x219c] = 0x2000016c
        0x00002126:    78c0        .x      LDRB     r0,[r0,#3]
        0x00002128:    491b        .I      LDR      r1,[pc,#108] ; [0x2198] = 0x2000017c
        0x0000212a:    6809        .h      LDR      r1,[r1,#0]
        0x0000212c:    7108        .q      STRB     r0,[r1,#4]
        0x0000212e:    481b        .H      LDR      r0,[pc,#108] ; [0x219c] = 0x2000016c
        0x00002130:    7880        .x      LDRB     r0,[r0,#2]
        0x00002132:    4919        .I      LDR      r1,[pc,#100] ; [0x2198] = 0x2000017c
        0x00002134:    6809        .h      LDR      r1,[r1,#0]
        0x00002136:    7148        Hq      STRB     r0,[r1,#5]
        0x00002138:    4818        .H      LDR      r0,[pc,#96] ; [0x219c] = 0x2000016c
        0x0000213a:    7840        @x      LDRB     r0,[r0,#1]
        0x0000213c:    4916        .I      LDR      r1,[pc,#88] ; [0x2198] = 0x2000017c
        0x0000213e:    6809        .h      LDR      r1,[r1,#0]
        0x00002140:    7188        .q      STRB     r0,[r1,#6]
        0x00002142:    4816        .H      LDR      r0,[pc,#88] ; [0x219c] = 0x2000016c
        0x00002144:    7800        .x      LDRB     r0,[r0,#0]
        0x00002146:    4914        .I      LDR      r1,[pc,#80] ; [0x2198] = 0x2000017c
        0x00002148:    6809        .h      LDR      r1,[r1,#0]
        0x0000214a:    71c8        .q      STRB     r0,[r1,#7]
        0x0000214c:    2002        .       MOVS     r0,#2
        0x0000214e:    4912        .I      LDR      r1,[pc,#72] ; [0x2198] = 0x2000017c
        0x00002150:    6809        .h      LDR      r1,[r1,#0]
        0x00002152:    7208        .r      STRB     r0,[r1,#8]
        0x00002154:    4910        .I      LDR      r1,[pc,#64] ; [0x2198] = 0x2000017c
        0x00002156:    6809        .h      LDR      r1,[r1,#0]
        0x00002158:    7288        .r      STRB     r0,[r1,#0xa]
        0x0000215a:    4810        .H      LDR      r0,[pc,#64] ; [0x219c] = 0x2000016c
        0x0000215c:    78c0        .x      LDRB     r0,[r0,#3]
        0x0000215e:    490e        .I      LDR      r1,[pc,#56] ; [0x2198] = 0x2000017c
        0x00002160:    6809        .h      LDR      r1,[r1,#0]
        0x00002162:    7308        .s      STRB     r0,[r1,#0xc]
        0x00002164:    480d        .H      LDR      r0,[pc,#52] ; [0x219c] = 0x2000016c
        0x00002166:    7880        .x      LDRB     r0,[r0,#2]
        0x00002168:    490b        .I      LDR      r1,[pc,#44] ; [0x2198] = 0x2000017c
        0x0000216a:    6809        .h      LDR      r1,[r1,#0]
        0x0000216c:    7348        Hs      STRB     r0,[r1,#0xd]
        0x0000216e:    480b        .H      LDR      r0,[pc,#44] ; [0x219c] = 0x2000016c
        0x00002170:    7840        @x      LDRB     r0,[r0,#1]
        0x00002172:    4909        .I      LDR      r1,[pc,#36] ; [0x2198] = 0x2000017c
        0x00002174:    6809        .h      LDR      r1,[r1,#0]
        0x00002176:    7388        .s      STRB     r0,[r1,#0xe]
        0x00002178:    4808        .H      LDR      r0,[pc,#32] ; [0x219c] = 0x2000016c
        0x0000217a:    7800        .x      LDRB     r0,[r0,#0]
        0x0000217c:    4906        .I      LDR      r1,[pc,#24] ; [0x2198] = 0x2000017c
        0x0000217e:    6809        .h      LDR      r1,[r1,#0]
        0x00002180:    73c8        .s      STRB     r0,[r1,#0xf]
        0x00002182:    2002        .       MOVS     r0,#2
        0x00002184:    4904        .I      LDR      r1,[pc,#16] ; [0x2198] = 0x2000017c
        0x00002186:    6809        .h      LDR      r1,[r1,#0]
        0x00002188:    7488        .t      STRB     r0,[r1,#0x12]
        0x0000218a:    4805        .H      LDR      r0,[pc,#20] ; [0x21a0] = 0x20000260
        0x0000218c:    6881        .h      LDR      r1,[r0,#8]
        0x0000218e:    4802        .H      LDR      r0,[pc,#8] ; [0x2198] = 0x2000017c
        0x00002190:    6800        .h      LDR      r0,[r0,#0]
        0x00002192:    f7fffc2f    ../.    BL       MSC_BulkIn ; 0x19f4
        0x00002196:    bd10        ..      POP      {r4,pc}
    $d
        0x00002198:    2000017c    |..     DCD    536871292
        0x0000219c:    2000016c    l..     DCD    536871276
        0x000021a0:    20000260    `..     DCD    536871520
    $t
    i.MSC_ReceiveCBW
    MSC_ReceiveCBW
        0x000021a4:    490c        .I      LDR      r1,[pc,#48] ; [0x21d8] = 0x40019000
        0x000021a6:    6dc9        .m      LDR      r1,[r1,#0x5c]
        0x000021a8:    f240121f    @...    MOV      r2,#0x11f
        0x000021ac:    4391        .C      BICS     r1,r1,r2
        0x000021ae:    1c49        I.      ADDS     r1,r1,#1
        0x000021b0:    4a09        .J      LDR      r2,[pc,#36] ; [0x21d8] = 0x40019000
        0x000021b2:    65d1        .e      STR      r1,[r2,#0x5c]
        0x000021b4:    f44f7195    O..q    MOV      r1,#0x12a
        0x000021b8:    6151        Qa      STR      r1,[r2,#0x14]
        0x000021ba:    4908        .I      LDR      r1,[pc,#32] ; [0x21dc] = 0x40019700
        0x000021bc:    6008        .`      STR      r0,[r1,#0]
        0x000021be:    211f        .!      MOVS     r1,#0x1f
        0x000021c0:    6611        .f      STR      r1,[r2,#0x60]
        0x000021c2:    2100        .!      MOVS     r1,#0
        0x000021c4:    4a06        .J      LDR      r2,[pc,#24] ; [0x21e0] = 0x20000240
        0x000021c6:    6011        .`      STR      r1,[r2,#0]
        0x000021c8:    4903        .I      LDR      r1,[pc,#12] ; [0x21d8] = 0x40019000
        0x000021ca:    6dc9        .m      LDR      r1,[r1,#0x5c]
        0x000021cc:    f0410120    A. .    ORR      r1,r1,#0x20
        0x000021d0:    4a01        .J      LDR      r2,[pc,#4] ; [0x21d8] = 0x40019000
        0x000021d2:    65d1        .e      STR      r1,[r2,#0x5c]
        0x000021d4:    4770        pG      BX       lr
    $d
        0x000021d6:    0000        ..      DCW    0
        0x000021d8:    40019000    ...@    DCD    1073844224
        0x000021dc:    40019700    ...@    DCD    1073846016
        0x000021e0:    20000240    @..     DCD    536871488
    $t
    i.MSC_RequestSense
    MSC_RequestSense
        0x000021e4:    b510        ..      PUSH     {r4,lr}
        0x000021e6:    2112        .!      MOVS     r1,#0x12
        0x000021e8:    4818        .H      LDR      r0,[pc,#96] ; [0x224c] = 0x2000017c
        0x000021ea:    6800        .h      LDR      r0,[r0,#0]
        0x000021ec:    f7fef9b5    ....    BL       __aeabi_memclr ; 0x55a
        0x000021f0:    4817        .H      LDR      r0,[pc,#92] ; [0x2250] = 0x20000171
        0x000021f2:    7800        .x      LDRB     r0,[r0,#0]
        0x000021f4:    b138        8.      CBZ      r0,0x2206 ; MSC_RequestSense + 34
        0x000021f6:    2000        .       MOVS     r0,#0
        0x000021f8:    4915        .I      LDR      r1,[pc,#84] ; [0x2250] = 0x20000171
        0x000021fa:    7008        .p      STRB     r0,[r1,#0]
        0x000021fc:    2070        p       MOVS     r0,#0x70
        0x000021fe:    4913        .I      LDR      r1,[pc,#76] ; [0x224c] = 0x2000017c
        0x00002200:    6809        .h      LDR      r1,[r1,#0]
        0x00002202:    7008        .p      STRB     r0,[r1,#0]
        0x00002204:    e003        ..      B        0x220e ; MSC_RequestSense + 42
        0x00002206:    20f0        .       MOVS     r0,#0xf0
        0x00002208:    4910        .I      LDR      r1,[pc,#64] ; [0x224c] = 0x2000017c
        0x0000220a:    6809        .h      LDR      r1,[r1,#0]
        0x0000220c:    7008        .p      STRB     r0,[r1,#0]
        0x0000220e:    4811        .H      LDR      r0,[pc,#68] ; [0x2254] = 0x20000173
        0x00002210:    7800        .x      LDRB     r0,[r0,#0]
        0x00002212:    490e        .I      LDR      r1,[pc,#56] ; [0x224c] = 0x2000017c
        0x00002214:    6809        .h      LDR      r1,[r1,#0]
        0x00002216:    7088        .p      STRB     r0,[r1,#2]
        0x00002218:    200a        .       MOVS     r0,#0xa
        0x0000221a:    490c        .I      LDR      r1,[pc,#48] ; [0x224c] = 0x2000017c
        0x0000221c:    6809        .h      LDR      r1,[r1,#0]
        0x0000221e:    71c8        .q      STRB     r0,[r1,#7]
        0x00002220:    480c        .H      LDR      r0,[pc,#48] ; [0x2254] = 0x20000173
        0x00002222:    7840        @x      LDRB     r0,[r0,#1]
        0x00002224:    4909        .I      LDR      r1,[pc,#36] ; [0x224c] = 0x2000017c
        0x00002226:    6809        .h      LDR      r1,[r1,#0]
        0x00002228:    7308        .s      STRB     r0,[r1,#0xc]
        0x0000222a:    480a        .H      LDR      r0,[pc,#40] ; [0x2254] = 0x20000173
        0x0000222c:    7880        .x      LDRB     r0,[r0,#2]
        0x0000222e:    4907        .I      LDR      r1,[pc,#28] ; [0x224c] = 0x2000017c
        0x00002230:    6809        .h      LDR      r1,[r1,#0]
        0x00002232:    7348        Hs      STRB     r0,[r1,#0xd]
        0x00002234:    4808        .H      LDR      r0,[pc,#32] ; [0x2258] = 0x20000260
        0x00002236:    6881        .h      LDR      r1,[r0,#8]
        0x00002238:    4804        .H      LDR      r0,[pc,#16] ; [0x224c] = 0x2000017c
        0x0000223a:    6800        .h      LDR      r0,[r0,#0]
        0x0000223c:    f7fffbda    ....    BL       MSC_BulkIn ; 0x19f4
        0x00002240:    2000        .       MOVS     r0,#0
        0x00002242:    4904        .I      LDR      r1,[pc,#16] ; [0x2254] = 0x20000173
        0x00002244:    7008        .p      STRB     r0,[r1,#0]
        0x00002246:    7048        Hp      STRB     r0,[r1,#1]
        0x00002248:    7088        .p      STRB     r0,[r1,#2]
        0x0000224a:    bd10        ..      POP      {r4,pc}
    $d
        0x0000224c:    2000017c    |..     DCD    536871292
        0x00002250:    20000171    q..     DCD    536871281
        0x00002254:    20000173    s..     DCD    536871283
        0x00002258:    20000260    `..     DCD    536871520
    $t
    i.NVIC_EnableIRQ
    NVIC_EnableIRQ
        0x0000225c:    f000021f    ....    AND      r2,r0,#0x1f
        0x00002260:    2101        .!      MOVS     r1,#1
        0x00002262:    4091        .@      LSLS     r1,r1,r2
        0x00002264:    0942        B.      LSRS     r2,r0,#5
        0x00002266:    0092        ..      LSLS     r2,r2,#2
        0x00002268:    f10222e0    ..."    ADD      r2,r2,#0xe000e000
        0x0000226c:    f8c21100    ....    STR      r1,[r2,#0x100]
        0x00002270:    4770        pG      BX       lr
    i.PDMA_EnableInt
    PDMA_EnableInt
        0x00002272:    b510        ..      PUSH     {r4,lr}
        0x00002274:    b122        ".      CBZ      r2,0x2280 ; PDMA_EnableInt + 14
        0x00002276:    2a01        .*      CMP      r2,#1
        0x00002278:    d00a        ..      BEQ      0x2290 ; PDMA_EnableInt + 30
        0x0000227a:    2a02        .*      CMP      r2,#2
        0x0000227c:    d119        ..      BNE      0x22b2 ; PDMA_EnableInt + 64
        0x0000227e:    e010        ..      B        0x22a2 ; PDMA_EnableInt + 48
        0x00002280:    f8d03418    ...4    LDR      r3,[r0,#0x418]
        0x00002284:    2401        .$      MOVS     r4,#1
        0x00002286:    408c        .@      LSLS     r4,r4,r1
        0x00002288:    4323        #C      ORRS     r3,r3,r4
        0x0000228a:    f8c03418    ...4    STR      r3,[r0,#0x418]
        0x0000228e:    e011        ..      B        0x22b4 ; PDMA_EnableInt + 66
        0x00002290:    eb001301    ....    ADD      r3,r0,r1,LSL #4
        0x00002294:    681b        .h      LDR      r3,[r3,#0]
        0x00002296:    f0230380    #...    BIC      r3,r3,#0x80
        0x0000229a:    eb001401    ....    ADD      r4,r0,r1,LSL #4
        0x0000229e:    6023        #`      STR      r3,[r4,#0]
        0x000022a0:    e008        ..      B        0x22b4 ; PDMA_EnableInt + 66
        0x000022a2:    f8d03438    ..84    LDR      r3,[r0,#0x438]
        0x000022a6:    2401        .$      MOVS     r4,#1
        0x000022a8:    408c        .@      LSLS     r4,r4,r1
        0x000022aa:    4323        #C      ORRS     r3,r3,r4
        0x000022ac:    f8c03438    ..84    STR      r3,[r0,#0x438]
        0x000022b0:    e000        ..      B        0x22b4 ; PDMA_EnableInt + 66
        0x000022b2:    bf00        ..      NOP      
        0x000022b4:    bf00        ..      NOP      
        0x000022b6:    bd10        ..      POP      {r4,pc}
    i.PDMA_IRQHandler
    PDMA_IRQHandler
        0x000022b8:    b510        ..      PUSH     {r4,lr}
        0x000022ba:    4814        .H      LDR      r0,[pc,#80] ; [0x230c] = 0x4000841c
        0x000022bc:    6804        .h      LDR      r4,[r0,#0]
        0x000022be:    f0040001    ....    AND      r0,r4,#1
        0x000022c2:    b168        h.      CBZ      r0,0x22e0 ; PDMA_IRQHandler + 40
        0x000022c4:    4811        .H      LDR      r0,[pc,#68] ; [0x230c] = 0x4000841c
        0x000022c6:    1d00        ..      ADDS     r0,r0,#4
        0x000022c8:    6800        .h      LDR      r0,[r0,#0]
        0x000022ca:    f0000004    ....    AND      r0,r0,#4
        0x000022ce:    b110        ..      CBZ      r0,0x22d6 ; PDMA_IRQHandler + 30
        0x000022d0:    2002        .       MOVS     r0,#2
        0x000022d2:    490f        .I      LDR      r1,[pc,#60] ; [0x2310] = 0x20000034
        0x000022d4:    6008        .`      STR      r0,[r1,#0]
        0x000022d6:    2004        .       MOVS     r0,#4
        0x000022d8:    490c        .I      LDR      r1,[pc,#48] ; [0x230c] = 0x4000841c
        0x000022da:    1d09        ..      ADDS     r1,r1,#4
        0x000022dc:    6008        .`      STR      r0,[r1,#0]
        0x000022de:    e013        ..      B        0x2308 ; PDMA_IRQHandler + 80
        0x000022e0:    f0040002    ....    AND      r0,r4,#2
        0x000022e4:    b168        h.      CBZ      r0,0x2302 ; PDMA_IRQHandler + 74
        0x000022e6:    4809        .H      LDR      r0,[pc,#36] ; [0x230c] = 0x4000841c
        0x000022e8:    3008        .0      ADDS     r0,r0,#8
        0x000022ea:    6800        .h      LDR      r0,[r0,#0]
        0x000022ec:    f0000004    ....    AND      r0,r0,#4
        0x000022f0:    b110        ..      CBZ      r0,0x22f8 ; PDMA_IRQHandler + 64
        0x000022f2:    2001        .       MOVS     r0,#1
        0x000022f4:    4906        .I      LDR      r1,[pc,#24] ; [0x2310] = 0x20000034
        0x000022f6:    6008        .`      STR      r0,[r1,#0]
        0x000022f8:    2004        .       MOVS     r0,#4
        0x000022fa:    4904        .I      LDR      r1,[pc,#16] ; [0x230c] = 0x4000841c
        0x000022fc:    3108        .1      ADDS     r1,r1,#8
        0x000022fe:    6008        .`      STR      r0,[r1,#0]
        0x00002300:    e002        ..      B        0x2308 ; PDMA_IRQHandler + 80
        0x00002302:    a004        ..      ADR      r0,{pc}+0x12 ; 0x2314
        0x00002304:    f7fef838    ..8.    BL       __2printf ; 0x378
        0x00002308:    bd10        ..      POP      {r4,pc}
    $d
        0x0000230a:    0000        ..      DCW    0
        0x0000230c:    4000841c    ...@    DCD    1073775644
        0x00002310:    20000034    4..     DCD    536870964
        0x00002314:    6e6b6e75    unkn    DCD    1852534389
        0x00002318:    206e776f    own     DCD    544110447
        0x0000231c:    65746e69    inte    DCD    1702129257
        0x00002320:    70757272    rrup    DCD    1886745202
        0x00002324:    21212074    t !!    DCD    555819124
        0x00002328:    0000000a    ....    DCD    10
    $t
    i.PDMA_Init
    PDMA_Init
        0x0000232c:    b51c        ..      PUSH     {r2-r4,lr}
        0x0000232e:    2104        .!      MOVS     r1,#4
        0x00002330:    4818        .H      LDR      r0,[pc,#96] ; [0x2394] = 0x40008000
        0x00002332:    f000f839    ..9.    BL       PDMA_Open ; 0x23a8
        0x00002336:    2301        .#      MOVS     r3,#1
        0x00002338:    031a        ..      LSLS     r2,r3,#12
        0x0000233a:    2102        .!      MOVS     r1,#2
        0x0000233c:    4815        .H      LDR      r0,[pc,#84] ; [0x2394] = 0x40008000
        0x0000233e:    f000f877    ..w.    BL       PDMA_SetTransferCnt ; 0x2430
        0x00002342:    4815        .H      LDR      r0,[pc,#84] ; [0x2398] = 0x20007320
        0x00002344:    4915        .I      LDR      r1,[pc,#84] ; [0x239c] = 0x2000003c
        0x00002346:    6008        .`      STR      r0,[r1,#0]
        0x00002348:    2000        .       MOVS     r0,#0
        0x0000234a:    6809        .h      LDR      r1,[r1,#0]
        0x0000234c:    e9cd1000    ....    STRD     r1,r0,[sp,#0]
        0x00002350:    4813        .H      LDR      r0,[pc,#76] ; [0x23a0] = 0x20000038
        0x00002352:    6800        .h      LDR      r0,[r0,#0]
        0x00002354:    4913        .I      LDR      r1,[pc,#76] ; [0x23a4] = 0x40043000
        0x00002356:    eb010280    ....    ADD      r2,r1,r0,LSL #2
        0x0000235a:    f44f7340    O.@s    MOV      r3,#0x300
        0x0000235e:    2102        .!      MOVS     r1,#2
        0x00002360:    480c        .H      LDR      r0,[pc,#48] ; [0x2394] = 0x40008000
        0x00002362:    f000f84a    ..J.    BL       PDMA_SetTransferAddr ; 0x23fa
        0x00002366:    2000        .       MOVS     r0,#0
        0x00002368:    4603        .F      MOV      r3,r0
        0x0000236a:    2232        2"      MOVS     r2,#0x32
        0x0000236c:    2102        .!      MOVS     r1,#2
        0x0000236e:    9000        ..      STR      r0,[sp,#0]
        0x00002370:    4808        .H      LDR      r0,[pc,#32] ; [0x2394] = 0x40008000
        0x00002372:    f000f873    ..s.    BL       PDMA_SetTransferMode ; 0x245c
        0x00002376:    2350        P#      MOVS     r3,#0x50
        0x00002378:    2204        ."      MOVS     r2,#4
        0x0000237a:    2102        .!      MOVS     r1,#2
        0x0000237c:    4805        .H      LDR      r0,[pc,#20] ; [0x2394] = 0x40008000
        0x0000237e:    f000f829    ..).    BL       PDMA_SetBurstType ; 0x23d4
        0x00002382:    2200        ."      MOVS     r2,#0
        0x00002384:    2102        .!      MOVS     r1,#2
        0x00002386:    4803        .H      LDR      r0,[pc,#12] ; [0x2394] = 0x40008000
        0x00002388:    f7ffff73    ..s.    BL       PDMA_EnableInt ; 0x2272
        0x0000238c:    2028        (       MOVS     r0,#0x28
        0x0000238e:    f7ffff65    ..e.    BL       NVIC_EnableIRQ ; 0x225c
        0x00002392:    bd1c        ..      POP      {r2-r4,pc}
    $d
        0x00002394:    40008000    ...@    DCD    1073774592
        0x00002398:    20007320     s.     DCD    536900384
        0x0000239c:    2000003c    <..     DCD    536870972
        0x000023a0:    20000038    8..     DCD    536870968
        0x000023a4:    40043000    .0.@    DCD    1074016256
    $t
    i.PDMA_Open
    PDMA_Open
        0x000023a8:    b510        ..      PUSH     {r4,lr}
        0x000023aa:    460a        .F      MOV      r2,r1
        0x000023ac:    2100        .!      MOVS     r1,#0
        0x000023ae:    e006        ..      B        0x23be ; PDMA_Open + 22
        0x000023b0:    2300        .#      MOVS     r3,#0
        0x000023b2:    eb001401    ....    ADD      r4,r0,r1,LSL #4
        0x000023b6:    6023        #`      STR      r3,[r4,#0]
        0x000023b8:    4c05        .L      LDR      r4,[pc,#20] ; [0x23d0] = 0x200002a0
        0x000023ba:    5463        cT      STRB     r3,[r4,r1]
        0x000023bc:    1c49        I.      ADDS     r1,r1,#1
        0x000023be:    2910        .)      CMP      r1,#0x10
        0x000023c0:    d3f6        ..      BCC      0x23b0 ; PDMA_Open + 8
        0x000023c2:    f8d03400    ...4    LDR      r3,[r0,#0x400]
        0x000023c6:    4313        .C      ORRS     r3,r3,r2
        0x000023c8:    f8c03400    ...4    STR      r3,[r0,#0x400]
        0x000023cc:    bd10        ..      POP      {r4,pc}
    $d
        0x000023ce:    0000        ..      DCW    0
        0x000023d0:    200002a0    ...     DCD    536871584
    $t
    i.PDMA_SetBurstType
    PDMA_SetBurstType
        0x000023d4:    b530        0.      PUSH     {r4,r5,lr}
        0x000023d6:    eb001401    ....    ADD      r4,r0,r1,LSL #4
        0x000023da:    6824        $h      LDR      r4,[r4,#0]
        0x000023dc:    f0240474    $.t.    BIC      r4,r4,#0x74
        0x000023e0:    eb001501    ....    ADD      r5,r0,r1,LSL #4
        0x000023e4:    602c        ,`      STR      r4,[r5,#0]
        0x000023e6:    eb001401    ....    ADD      r4,r0,r1,LSL #4
        0x000023ea:    6824        $h      LDR      r4,[r4,#0]
        0x000023ec:    ea420503    B...    ORR      r5,r2,r3
        0x000023f0:    432c        ,C      ORRS     r4,r4,r5
        0x000023f2:    eb001501    ....    ADD      r5,r0,r1,LSL #4
        0x000023f6:    602c        ,`      STR      r4,[r5,#0]
        0x000023f8:    bd30        0.      POP      {r4,r5,pc}
    i.PDMA_SetTransferAddr
    PDMA_SetTransferAddr
        0x000023fa:    b5f0        ..      PUSH     {r4-r7,lr}
        0x000023fc:    e9dd4505    ...E    LDRD     r4,r5,[sp,#0x14]
        0x00002400:    eb001601    ....    ADD      r6,r0,r1,LSL #4
        0x00002404:    6072        r`      STR      r2,[r6,#4]
        0x00002406:    eb001601    ....    ADD      r6,r0,r1,LSL #4
        0x0000240a:    60b4        .`      STR      r4,[r6,#8]
        0x0000240c:    eb001601    ....    ADD      r6,r0,r1,LSL #4
        0x00002410:    6836        6h      LDR      r6,[r6,#0]
        0x00002412:    f4266670    &.pf    BIC      r6,r6,#0xf00
        0x00002416:    eb001701    ....    ADD      r7,r0,r1,LSL #4
        0x0000241a:    603e        >`      STR      r6,[r7,#0]
        0x0000241c:    eb001601    ....    ADD      r6,r0,r1,LSL #4
        0x00002420:    6836        6h      LDR      r6,[r6,#0]
        0x00002422:    ea430705    C...    ORR      r7,r3,r5
        0x00002426:    433e        >C      ORRS     r6,r6,r7
        0x00002428:    eb001701    ....    ADD      r7,r0,r1,LSL #4
        0x0000242c:    603e        >`      STR      r6,[r7,#0]
        0x0000242e:    bdf0        ..      POP      {r4-r7,pc}
    i.PDMA_SetTransferCnt
    PDMA_SetTransferCnt
        0x00002430:    b530        0.      PUSH     {r4,r5,lr}
        0x00002432:    eb001401    ....    ADD      r4,r0,r1,LSL #4
        0x00002436:    6824        $h      LDR      r4,[r4,#0]
        0x00002438:    f64c75ff    L..u    MOV      r5,#0xcfff
        0x0000243c:    402c        ,@      ANDS     r4,r4,r5
        0x0000243e:    eb001501    ....    ADD      r5,r0,r1,LSL #4
        0x00002442:    602c        ,`      STR      r4,[r5,#0]
        0x00002444:    eb001401    ....    ADD      r4,r0,r1,LSL #4
        0x00002448:    6824        $h      LDR      r4,[r4,#0]
        0x0000244a:    1e5d        ].      SUBS     r5,r3,#1
        0x0000244c:    ea424505    B..E    ORR      r5,r2,r5,LSL #16
        0x00002450:    432c        ,C      ORRS     r4,r4,r5
        0x00002452:    eb001501    ....    ADD      r5,r0,r1,LSL #4
        0x00002456:    602c        ,`      STR      r4,[r5,#0]
        0x00002458:    bd30        0.      POP      {r4,r5,pc}
        0x0000245a:    0000        ..      MOVS     r0,r0
    i.PDMA_SetTransferMode
    PDMA_SetTransferMode
        0x0000245c:    b570        p.      PUSH     {r4-r6,lr}
        0x0000245e:    9c04        ..      LDR      r4,[sp,#0x10]
        0x00002460:    4e5b        [N      LDR      r6,[pc,#364] ; [0x25d0] = 0x200002a0
        0x00002462:    5472        rT      STRB     r2,[r6,r1]
        0x00002464:    2910        .)      CMP      r1,#0x10
        0x00002466:    d272        r.      BCS      0x254e ; PDMA_SetTransferMode + 242
        0x00002468:    e8dff001    ....    TBB      [pc,r1]
    $d
        0x0000246c:    22191008    ..."    DCD    572067848
        0x00002470:    453c332b    +3<E    DCD    1161573163
        0x00002474:    685f564e    NV_h    DCD    1751078478
        0x00002478:    8c837a72    rz..    DCD    2357426802
    $t
        0x0000247c:    f8d05480    ...T    LDR      r5,[r0,#0x480]
        0x00002480:    f025057f    %...    BIC      r5,r5,#0x7f
        0x00002484:    4315        .C      ORRS     r5,r5,r2
        0x00002486:    f8c05480    ...T    STR      r5,[r0,#0x480]
        0x0000248a:    e085        ..      B        0x2598 ; PDMA_SetTransferMode + 316
        0x0000248c:    f8d05480    ...T    LDR      r5,[r0,#0x480]
        0x00002490:    f42545fe    %..E    BIC      r5,r5,#0x7f00
        0x00002494:    ea452502    E..%    ORR      r5,r5,r2,LSL #8
        0x00002498:    f8c05480    ...T    STR      r5,[r0,#0x480]
        0x0000249c:    e07c        |.      B        0x2598 ; PDMA_SetTransferMode + 316
        0x0000249e:    f8d05480    ...T    LDR      r5,[r0,#0x480]
        0x000024a2:    f42505fe    %...    BIC      r5,r5,#0x7f0000
        0x000024a6:    ea454502    E..E    ORR      r5,r5,r2,LSL #16
        0x000024aa:    f8c05480    ...T    STR      r5,[r0,#0x480]
        0x000024ae:    e073        s.      B        0x2598 ; PDMA_SetTransferMode + 316
        0x000024b0:    f8d05480    ...T    LDR      r5,[r0,#0x480]
        0x000024b4:    f02545fe    %..E    BIC      r5,r5,#0x7f000000
        0x000024b8:    ea456502    E..e    ORR      r5,r5,r2,LSL #24
        0x000024bc:    f8c05480    ...T    STR      r5,[r0,#0x480]
        0x000024c0:    e06a        j.      B        0x2598 ; PDMA_SetTransferMode + 316
        0x000024c2:    f8d05484    ...T    LDR      r5,[r0,#0x484]
        0x000024c6:    f025057f    %...    BIC      r5,r5,#0x7f
        0x000024ca:    4315        .C      ORRS     r5,r5,r2
        0x000024cc:    f8c05484    ...T    STR      r5,[r0,#0x484]
        0x000024d0:    e062        b.      B        0x2598 ; PDMA_SetTransferMode + 316
        0x000024d2:    f8d05484    ...T    LDR      r5,[r0,#0x484]
        0x000024d6:    f42545fe    %..E    BIC      r5,r5,#0x7f00
        0x000024da:    ea452502    E..%    ORR      r5,r5,r2,LSL #8
        0x000024de:    f8c05484    ...T    STR      r5,[r0,#0x484]
        0x000024e2:    e059        Y.      B        0x2598 ; PDMA_SetTransferMode + 316
        0x000024e4:    f8d05484    ...T    LDR      r5,[r0,#0x484]
        0x000024e8:    f42505fe    %...    BIC      r5,r5,#0x7f0000
        0x000024ec:    ea454502    E..E    ORR      r5,r5,r2,LSL #16
        0x000024f0:    f8c05484    ...T    STR      r5,[r0,#0x484]
        0x000024f4:    e050        P.      B        0x2598 ; PDMA_SetTransferMode + 316
        0x000024f6:    f8d05484    ...T    LDR      r5,[r0,#0x484]
        0x000024fa:    f02545fe    %..E    BIC      r5,r5,#0x7f000000
        0x000024fe:    ea456502    E..e    ORR      r5,r5,r2,LSL #24
        0x00002502:    f8c05484    ...T    STR      r5,[r0,#0x484]
        0x00002506:    e047        G.      B        0x2598 ; PDMA_SetTransferMode + 316
        0x00002508:    f8d05488    ...T    LDR      r5,[r0,#0x488]
        0x0000250c:    f025057f    %...    BIC      r5,r5,#0x7f
        0x00002510:    4315        .C      ORRS     r5,r5,r2
        0x00002512:    f8c05488    ...T    STR      r5,[r0,#0x488]
        0x00002516:    e03f        ?.      B        0x2598 ; PDMA_SetTransferMode + 316
        0x00002518:    f8d05488    ...T    LDR      r5,[r0,#0x488]
        0x0000251c:    f42545fe    %..E    BIC      r5,r5,#0x7f00
        0x00002520:    ea452502    E..%    ORR      r5,r5,r2,LSL #8
        0x00002524:    f8c05488    ...T    STR      r5,[r0,#0x488]
        0x00002528:    e036        6.      B        0x2598 ; PDMA_SetTransferMode + 316
        0x0000252a:    f8d05488    ...T    LDR      r5,[r0,#0x488]
        0x0000252e:    f42505fe    %...    BIC      r5,r5,#0x7f0000
        0x00002532:    ea454502    E..E    ORR      r5,r5,r2,LSL #16
        0x00002536:    f8c05488    ...T    STR      r5,[r0,#0x488]
        0x0000253a:    e02d        -.      B        0x2598 ; PDMA_SetTransferMode + 316
        0x0000253c:    f8d05488    ...T    LDR      r5,[r0,#0x488]
        0x00002540:    f02545fe    %..E    BIC      r5,r5,#0x7f000000
        0x00002544:    ea456502    E..e    ORR      r5,r5,r2,LSL #24
        0x00002548:    f8c05488    ...T    STR      r5,[r0,#0x488]
        0x0000254c:    e024        $.      B        0x2598 ; PDMA_SetTransferMode + 316
        0x0000254e:    e022        ".      B        0x2596 ; PDMA_SetTransferMode + 314
        0x00002550:    f8d0548c    ...T    LDR      r5,[r0,#0x48c]
        0x00002554:    f025057f    %...    BIC      r5,r5,#0x7f
        0x00002558:    4315        .C      ORRS     r5,r5,r2
        0x0000255a:    f8c0548c    ...T    STR      r5,[r0,#0x48c]
        0x0000255e:    e01b        ..      B        0x2598 ; PDMA_SetTransferMode + 316
        0x00002560:    f8d0548c    ...T    LDR      r5,[r0,#0x48c]
        0x00002564:    f42545fe    %..E    BIC      r5,r5,#0x7f00
        0x00002568:    ea452502    E..%    ORR      r5,r5,r2,LSL #8
        0x0000256c:    f8c0548c    ...T    STR      r5,[r0,#0x48c]
        0x00002570:    e012        ..      B        0x2598 ; PDMA_SetTransferMode + 316
        0x00002572:    f8d0548c    ...T    LDR      r5,[r0,#0x48c]
        0x00002576:    f42505fe    %...    BIC      r5,r5,#0x7f0000
        0x0000257a:    ea454502    E..E    ORR      r5,r5,r2,LSL #16
        0x0000257e:    f8c0548c    ...T    STR      r5,[r0,#0x48c]
        0x00002582:    e009        ..      B        0x2598 ; PDMA_SetTransferMode + 316
        0x00002584:    f8d0548c    ...T    LDR      r5,[r0,#0x48c]
        0x00002588:    f02545fe    %..E    BIC      r5,r5,#0x7f000000
        0x0000258c:    ea456502    E..e    ORR      r5,r5,r2,LSL #24
        0x00002590:    f8c0548c    ...T    STR      r5,[r0,#0x48c]
        0x00002594:    e000        ..      B        0x2598 ; PDMA_SetTransferMode + 316
        0x00002596:    bf00        ..      NOP      
        0x00002598:    bf00        ..      NOP      
        0x0000259a:    b17b        {.      CBZ      r3,0x25bc ; PDMA_SetTransferMode + 352
        0x0000259c:    eb001501    ....    ADD      r5,r0,r1,LSL #4
        0x000025a0:    682d        -h      LDR      r5,[r5,#0]
        0x000025a2:    f0250503    %...    BIC      r5,r5,#3
        0x000025a6:    1cad        ..      ADDS     r5,r5,#2
        0x000025a8:    eb001601    ....    ADD      r6,r0,r1,LSL #4
        0x000025ac:    6035        5`      STR      r5,[r6,#0]
        0x000025ae:    4d09        .M      LDR      r5,[pc,#36] ; [0x25d4] = 0x4000843c
        0x000025b0:    682d        -h      LDR      r5,[r5,#0]
        0x000025b2:    1b65        e.      SUBS     r5,r4,r5
        0x000025b4:    eb001601    ....    ADD      r6,r0,r1,LSL #4
        0x000025b8:    60f5        .`      STR      r5,[r6,#0xc]
        0x000025ba:    e008        ..      B        0x25ce ; PDMA_SetTransferMode + 370
        0x000025bc:    eb001501    ....    ADD      r5,r0,r1,LSL #4
        0x000025c0:    682d        -h      LDR      r5,[r5,#0]
        0x000025c2:    f0250503    %...    BIC      r5,r5,#3
        0x000025c6:    1c6d        m.      ADDS     r5,r5,#1
        0x000025c8:    eb001601    ....    ADD      r6,r0,r1,LSL #4
        0x000025cc:    6035        5`      STR      r5,[r6,#0]
        0x000025ce:    bd70        p.      POP      {r4-r6,pc}
    $d
        0x000025d0:    200002a0    ...     DCD    536871584
        0x000025d4:    4000843c    <..@    DCD    1073775676
    $t
    i.ReloadPDMA
    ReloadPDMA
        0x000025d8:    b51c        ..      PUSH     {r2-r4,lr}
        0x000025da:    2301        .#      MOVS     r3,#1
        0x000025dc:    031a        ..      LSLS     r2,r3,#12
        0x000025de:    2102        .!      MOVS     r1,#2
        0x000025e0:    4810        .H      LDR      r0,[pc,#64] ; [0x2624] = 0x40008000
        0x000025e2:    f7ffff25    ..%.    BL       PDMA_SetTransferCnt ; 0x2430
        0x000025e6:    2000        .       MOVS     r0,#0
        0x000025e8:    490f        .I      LDR      r1,[pc,#60] ; [0x2628] = 0x2000003c
        0x000025ea:    6809        .h      LDR      r1,[r1,#0]
        0x000025ec:    e9cd1000    ....    STRD     r1,r0,[sp,#0]
        0x000025f0:    480e        .H      LDR      r0,[pc,#56] ; [0x262c] = 0x20000038
        0x000025f2:    6800        .h      LDR      r0,[r0,#0]
        0x000025f4:    490e        .I      LDR      r1,[pc,#56] ; [0x2630] = 0x40043000
        0x000025f6:    eb010280    ....    ADD      r2,r1,r0,LSL #2
        0x000025fa:    f44f7340    O.@s    MOV      r3,#0x300
        0x000025fe:    2102        .!      MOVS     r1,#2
        0x00002600:    4808        .H      LDR      r0,[pc,#32] ; [0x2624] = 0x40008000
        0x00002602:    f7fffefa    ....    BL       PDMA_SetTransferAddr ; 0x23fa
        0x00002606:    2000        .       MOVS     r0,#0
        0x00002608:    4603        .F      MOV      r3,r0
        0x0000260a:    2232        2"      MOVS     r2,#0x32
        0x0000260c:    2102        .!      MOVS     r1,#2
        0x0000260e:    9000        ..      STR      r0,[sp,#0]
        0x00002610:    4804        .H      LDR      r0,[pc,#16] ; [0x2624] = 0x40008000
        0x00002612:    f7ffff23    ..#.    BL       PDMA_SetTransferMode ; 0x245c
        0x00002616:    4804        .H      LDR      r0,[pc,#16] ; [0x2628] = 0x2000003c
        0x00002618:    6800        .h      LDR      r0,[r0,#0]
        0x0000261a:    1c80        ..      ADDS     r0,r0,#2
        0x0000261c:    4902        .I      LDR      r1,[pc,#8] ; [0x2628] = 0x2000003c
        0x0000261e:    6008        .`      STR      r0,[r1,#0]
        0x00002620:    bd1c        ..      POP      {r2-r4,pc}
    $d
        0x00002622:    0000        ..      DCW    0
        0x00002624:    40008000    ...@    DCD    1073774592
        0x00002628:    2000003c    <..     DCD    536870972
        0x0000262c:    20000038    8..     DCD    536870968
        0x00002630:    40043000    .0.@    DCD    1074016256
    $t
    i.SYS_Init
    SYS_Init
        0x00002634:    b508        ..      PUSH     {r3,lr}
        0x00002636:    bf00        ..      NOP      
        0x00002638:    bf00        ..      NOP      
        0x0000263a:    bf00        ..      NOP      
        0x0000263c:    2059        Y       MOVS     r0,#0x59
        0x0000263e:    4948        HI      LDR      r1,[pc,#288] ; [0x2760] = 0x40000100
        0x00002640:    6008        .`      STR      r0,[r1,#0]
        0x00002642:    2016        .       MOVS     r0,#0x16
        0x00002644:    0589        ..      LSLS     r1,r1,#22
        0x00002646:    f8c10100    ....    STR      r0,[r1,#0x100]
        0x0000264a:    2088        .       MOVS     r0,#0x88
        0x0000264c:    f8c10100    ....    STR      r0,[r1,#0x100]
        0x00002650:    06c0        ..      LSLS     r0,r0,#27
        0x00002652:    f8d00100    ....    LDR      r0,[r0,#0x100]
        0x00002656:    2800        .(      CMP      r0,#0
        0x00002658:    d0f0        ..      BEQ      0x263c ; SYS_Init + 8
        0x0000265a:    bf00        ..      NOP      
        0x0000265c:    4841        AH      LDR      r0,[pc,#260] ; [0x2764] = 0x40004140
        0x0000265e:    6800        .h      LDR      r0,[r0,#0]
        0x00002660:    f02000f0     ...    BIC      r0,r0,#0xf0
        0x00002664:    f04f2140    O.@!    MOV      r1,#0x40004000
        0x00002668:    f8c10140    ..@.    STR      r0,[r1,#0x140]
        0x0000266c:    2001        .       MOVS     r0,#1
        0x0000266e:    f7fef96d    ..m.    BL       CLK_EnableXtalRC ; 0x94c
        0x00002672:    2001        .       MOVS     r0,#1
        0x00002674:    f7fefaee    ....    BL       CLK_WaitClockReady ; 0xc54
        0x00002678:    2100        .!      MOVS     r1,#0
        0x0000267a:    4608        .F      MOV      r0,r1
        0x0000267c:    f7fefa74    ..t.    BL       CLK_SetHCLK ; 0xb68
        0x00002680:    4839        9H      LDR      r0,[pc,#228] ; [0x2768] = 0xb71b000
        0x00002682:    f7fefa1f    ....    BL       CLK_SetCoreClock ; 0xac4
        0x00002686:    2011        .       MOVS     r0,#0x11
        0x00002688:    0781        ..      LSLS     r1,r0,#30
        0x0000268a:    f8c10234    ..4.    STR      r0,[r1,#0x234]
        0x0000268e:    0780        ..      LSLS     r0,r0,#30
        0x00002690:    6ac0        .j      LDR      r0,[r0,#0x2c]
        0x00002692:    f4203040     .@0    BIC      r0,r0,#0x30000
        0x00002696:    62c8        .b      STR      r0,[r1,#0x2c]
        0x00002698:    4608        .F      MOV      r0,r1
        0x0000269a:    6ac0        .j      LDR      r0,[r0,#0x2c]
        0x0000269c:    4933        3I      LDR      r1,[pc,#204] ; [0x276c] = 0xfdfcffff
        0x0000269e:    4008        .@      ANDS     r0,r0,r1
        0x000026a0:    f0407080    @..p    ORR      r0,r0,#0x1000000
        0x000026a4:    f04f4180    O..A    MOV      r1,#0x40000000
        0x000026a8:    62c8        .b      STR      r0,[r1,#0x2c]
        0x000026aa:    2000        .       MOVS     r0,#0
        0x000026ac:    9000        ..      STR      r0,[sp,#0]
        0x000026ae:    e002        ..      B        0x26b6 ; SYS_Init + 130
        0x000026b0:    9800        ..      LDR      r0,[sp,#0]
        0x000026b2:    1c40        @.      ADDS     r0,r0,#1
        0x000026b4:    9000        ..      STR      r0,[sp,#0]
        0x000026b6:    9800        ..      LDR      r0,[sp,#0]
        0x000026b8:    f5b05f80    ..._    CMP      r0,#0x1000
        0x000026bc:    d3f8        ..      BCC      0x26b0 ; SYS_Init + 124
        0x000026be:    f04f4080    O..@    MOV      r0,#0x40000000
        0x000026c2:    6ac0        .j      LDR      r0,[r0,#0x2c]
        0x000026c4:    f0407000    @..p    ORR      r0,r0,#0x2000000
        0x000026c8:    f04f4180    O..A    MOV      r1,#0x40000000
        0x000026cc:    62c8        .b      STR      r0,[r1,#0x2c]
        0x000026ce:    200a        .       MOVS     r0,#0xa
        0x000026d0:    f7fef85e    ..^.    BL       CLK_EnableModuleClock ; 0x790
        0x000026d4:    4826        &H      LDR      r0,[pc,#152] ; [0x2770] = 0xa2000010
        0x000026d6:    f7fef85b    ..[.    BL       CLK_EnableModuleClock ; 0x790
        0x000026da:    2200        ."      MOVS     r2,#0
        0x000026dc:    2101        .!      MOVS     r1,#1
        0x000026de:    4824        $H      LDR      r0,[pc,#144] ; [0x2770] = 0xa2000010
        0x000026e0:    f7fefa80    ....    BL       CLK_SetModuleClock ; 0xbe4
        0x000026e4:    4823        #H      LDR      r0,[pc,#140] ; [0x2774] = 0x4003fe1c
        0x000026e6:    f7fef853    ..S.    BL       CLK_EnableModuleClock ; 0x790
        0x000026ea:    f44f22e0    O.."    MOV      r2,#0x70000
        0x000026ee:    2100        .!      MOVS     r1,#0
        0x000026f0:    4820         H      LDR      r0,[pc,#128] ; [0x2774] = 0x4003fe1c
        0x000026f2:    f7fefa77    ..w.    BL       CLK_SetModuleClock ; 0xbe4
        0x000026f6:    2001        .       MOVS     r0,#1
        0x000026f8:    f7fef84a    ..J.    BL       CLK_EnableModuleClock ; 0x790
        0x000026fc:    f04f2040    O.@     MOV      r0,#0x40004000
        0x00002700:    6c00        .l      LDR      r0,[r0,#0x40]
        0x00002702:    2000        .       MOVS     r0,#0
        0x00002704:    f04f2140    O.@!    MOV      r1,#0x40004000
        0x00002708:    6408        .d      STR      r0,[r1,#0x40]
        0x0000270a:    0408        ..      LSLS     r0,r1,#16
        0x0000270c:    6b80        .k      LDR      r0,[r0,#0x38]
        0x0000270e:    2000        .       MOVS     r0,#0
        0x00002710:    0409        ..      LSLS     r1,r1,#16
        0x00002712:    6388        .c      STR      r0,[r1,#0x38]
        0x00002714:    4608        .F      MOV      r0,r1
        0x00002716:    6b80        .k      LDR      r0,[r0,#0x38]
        0x00002718:    f0403011    @..0    ORR      r0,r0,#0x11111111
        0x0000271c:    6388        .c      STR      r0,[r1,#0x38]
        0x0000271e:    f04f2040    O.@     MOV      r0,#0x40004000
        0x00002722:    6c40        @l      LDR      r0,[r0,#0x44]
        0x00002724:    4914        .I      LDR      r1,[pc,#80] ; [0x2778] = 0xffff0000
        0x00002726:    4308        .C      ORRS     r0,r0,r1
        0x00002728:    f04f2140    O.@!    MOV      r1,#0x40004000
        0x0000272c:    6448        Hd      STR      r0,[r1,#0x44]
        0x0000272e:    480c        .H      LDR      r0,[pc,#48] ; [0x2760] = 0x40000100
        0x00002730:    38f8        .8      SUBS     r0,r0,#0xf8
        0x00002732:    f7fef82d    ..-.    BL       CLK_EnableModuleClock ; 0x790
        0x00002736:    f04f4080    O..@    MOV      r0,#0x40000000
        0x0000273a:    6c00        .l      LDR      r0,[r0,#0x40]
        0x0000273c:    f02000ff     ...    BIC      r0,r0,#0xff
        0x00002740:    f0400099    @...    ORR      r0,r0,#0x99
        0x00002744:    f04f4180    O..A    MOV      r1,#0x40000000
        0x00002748:    6408        .d      STR      r0,[r1,#0x40]
        0x0000274a:    4806        .H      LDR      r0,[pc,#24] ; [0x2764] = 0x40004140
        0x0000274c:    389c        .8      SUBS     r0,r0,#0x9c
        0x0000274e:    6800        .h      LDR      r0,[r0,#0]
        0x00002750:    f0400020    @. .    ORR      r0,r0,#0x20
        0x00002754:    f04f2140    O.@!    MOV      r1,#0x40004000
        0x00002758:    f8c100a4    ....    STR      r0,[r1,#0xa4]
        0x0000275c:    bd08        ..      POP      {r3,pc}
    $d
        0x0000275e:    0000        ..      DCW    0
        0x00002760:    40000100    ...@    DCD    1073742080
        0x00002764:    40004140    @A.@    DCD    1073758528
        0x00002768:    0b71b000    ..q.    DCD    192000000
        0x0000276c:    fdfcffff    ....    DCD    4261216255
        0x00002770:    a2000010    ....    DCD    2717909008
        0x00002774:    4003fe1c    ...@    DCD    1074003484
        0x00002778:    ffff0000    ....    DCD    4294901760
    $t
    i.SendChar
    SendChar
        0x0000277c:    b510        ..      PUSH     {r4,lr}
        0x0000277e:    4604        .F      MOV      r4,r0
        0x00002780:    4810        .H      LDR      r0,[pc,#64] ; [0x27c4] = 0x20000210
        0x00002782:    7802        .x      LDRB     r2,[r0,#0]
        0x00002784:    7800        .x      LDRB     r0,[r0,#0]
        0x00002786:    1c40        @.      ADDS     r0,r0,#1
        0x00002788:    4b0e        .K      LDR      r3,[pc,#56] ; [0x27c4] = 0x20000210
        0x0000278a:    7018        .p      STRB     r0,[r3,#0]
        0x0000278c:    480e        .H      LDR      r0,[pc,#56] ; [0x27c8] = 0x20000290
        0x0000278e:    5484        .T      STRB     r4,[r0,r2]
        0x00002790:    2000        .       MOVS     r0,#0
        0x00002792:    490d        .I      LDR      r1,[pc,#52] ; [0x27c8] = 0x20000290
        0x00002794:    461a        .F      MOV      r2,r3
        0x00002796:    7812        .x      LDRB     r2,[r2,#0]
        0x00002798:    5488        .T      STRB     r0,[r1,r2]
        0x0000279a:    4618        .F      MOV      r0,r3
        0x0000279c:    7800        .x      LDRB     r0,[r0,#0]
        0x0000279e:    1c40        @.      ADDS     r0,r0,#1
        0x000027a0:    2810        .(      CMP      r0,#0x10
        0x000027a2:    d202        ..      BCS      0x27aa ; SendChar + 46
        0x000027a4:    2c0a        .,      CMP      r4,#0xa
        0x000027a6:    d000        ..      BEQ      0x27aa ; SendChar + 46
        0x000027a8:    b94c        L.      CBNZ     r4,0x27be ; SendChar + 66
        0x000027aa:    2200        ."      MOVS     r2,#0
        0x000027ac:    4906        .I      LDR      r1,[pc,#24] ; [0x27c8] = 0x20000290
        0x000027ae:    2004        .       MOVS     r0,#4
        0x000027b0:    f7fdfd96    ....    BL       SH_DoCommand ; 0x2e0
        0x000027b4:    b118        ..      CBZ      r0,0x27be ; SendChar + 66
        0x000027b6:    2000        .       MOVS     r0,#0
        0x000027b8:    4902        .I      LDR      r1,[pc,#8] ; [0x27c4] = 0x20000210
        0x000027ba:    7008        .p      STRB     r0,[r1,#0]
        0x000027bc:    bd10        ..      POP      {r4,pc}
        0x000027be:    bf00        ..      NOP      
        0x000027c0:    e7fc        ..      B        0x27bc ; SendChar + 64
    $d
        0x000027c2:    0000        ..      DCW    0
        0x000027c4:    20000210    ...     DCD    536871440
        0x000027c8:    20000290    ...     DCD    536871568
    $t
    i.SystemCoreClockUpdate
    SystemCoreClockUpdate
        0x000027cc:    b570        p.      PUSH     {r4-r6,lr}
        0x000027ce:    f7fef93f    ..?.    BL       CLK_GetPLLClockFreq ; 0xa50
        0x000027d2:    4911        .I      LDR      r1,[pc,#68] ; [0x2818] = 0x20000008
        0x000027d4:    6008        .`      STR      r0,[r1,#0]
        0x000027d6:    4811        .H      LDR      r0,[pc,#68] ; [0x281c] = 0x40000210
        0x000027d8:    6800        .h      LDR      r0,[r0,#0]
        0x000027da:    f0000507    ....    AND      r5,r0,#7
        0x000027de:    2d02        .-      CMP      r5,#2
        0x000027e0:    d102        ..      BNE      0x27e8 ; SystemCoreClockUpdate + 28
        0x000027e2:    4608        .F      MOV      r0,r1
        0x000027e4:    6804        .h      LDR      r4,[r0,#0]
        0x000027e6:    e002        ..      B        0x27ee ; SystemCoreClockUpdate + 34
        0x000027e8:    480d        .H      LDR      r0,[pc,#52] ; [0x2820] = 0x2000000c
        0x000027ea:    f8504025    P.%@    LDR      r4,[r0,r5,LSL #2]
        0x000027ee:    480b        .H      LDR      r0,[pc,#44] ; [0x281c] = 0x40000210
        0x000027f0:    3010        .0      ADDS     r0,r0,#0x10
        0x000027f2:    6800        .h      LDR      r0,[r0,#0]
        0x000027f4:    f000000f    ....    AND      r0,r0,#0xf
        0x000027f8:    1c46        F.      ADDS     r6,r0,#1
        0x000027fa:    fbb4f0f6    ....    UDIV     r0,r4,r6
        0x000027fe:    4909        .I      LDR      r1,[pc,#36] ; [0x2824] = 0x20000000
        0x00002800:    6008        .`      STR      r0,[r1,#0]
        0x00002802:    4608        .F      MOV      r0,r1
        0x00002804:    6800        .h      LDR      r0,[r0,#0]
        0x00002806:    4908        .I      LDR      r1,[pc,#32] ; [0x2828] = 0x7a120
        0x00002808:    4408        .D      ADD      r0,r0,r1
        0x0000280a:    0049        I.      LSLS     r1,r1,#1
        0x0000280c:    fbb0f0f1    ....    UDIV     r0,r0,r1
        0x00002810:    4906        .I      LDR      r1,[pc,#24] ; [0x282c] = 0x20000004
        0x00002812:    6008        .`      STR      r0,[r1,#0]
        0x00002814:    bd70        p.      POP      {r4-r6,pc}
    $d
        0x00002816:    0000        ..      DCW    0
        0x00002818:    20000008    ...     DCD    536870920
        0x0000281c:    40000210    ...@    DCD    1073742352
        0x00002820:    2000000c    ...     DCD    536870924
        0x00002824:    20000000    ...     DCD    536870912
        0x00002828:    0007a120     ...    DCD    500000
        0x0000282c:    20000004    ...     DCD    536870916
    $t
    i.SystemInit
    SystemInit
        0x00002830:    4820         H      LDR      r0,[pc,#128] ; [0x28b4] = 0xe000ed88
        0x00002832:    6800        .h      LDR      r0,[r0,#0]
        0x00002834:    f4400070    @.p.    ORR      r0,r0,#0xf00000
        0x00002838:    491e        .I      LDR      r1,[pc,#120] ; [0x28b4] = 0xe000ed88
        0x0000283a:    6008        .`      STR      r0,[r1,#0]
        0x0000283c:    481e        .H      LDR      r0,[pc,#120] ; [0x28b8] = 0x4000c000
        0x0000283e:    6cc0        .l      LDR      r0,[r0,#0x4c]
        0x00002840:    f020000f     ...    BIC      r0,r0,#0xf
        0x00002844:    f0400008    @...    ORR      r0,r0,#8
        0x00002848:    491b        .I      LDR      r1,[pc,#108] ; [0x28b8] = 0x4000c000
        0x0000284a:    64c8        .d      STR      r0,[r1,#0x4c]
        0x0000284c:    481b        .H      LDR      r0,[pc,#108] ; [0x28bc] = 0x40000298
        0x0000284e:    6800        .h      LDR      r0,[r0,#0]
        0x00002850:    f4402080    @..     ORR      r0,r0,#0x40000
        0x00002854:    f04f4180    O..A    MOV      r1,#0x40000000
        0x00002858:    f8c10298    ....    STR      r0,[r1,#0x298]
        0x0000285c:    4608        .F      MOV      r0,r1
        0x0000285e:    f8d00208    ....    LDR      r0,[r0,#0x208]
        0x00002862:    f0400002    @...    ORR      r0,r0,#2
        0x00002866:    f8c10208    ....    STR      r0,[r1,#0x208]
        0x0000286a:    4815        .H      LDR      r0,[pc,#84] ; [0x28c0] = 0x40041000
        0x0000286c:    f8d00104    ....    LDR      r0,[r0,#0x104]
        0x00002870:    f00030f7    ...0    AND      r0,r0,#0xf7f7f7f7
        0x00002874:    4912        .I      LDR      r1,[pc,#72] ; [0x28c0] = 0x40041000
        0x00002876:    f8c10104    ....    STR      r0,[r1,#0x104]
        0x0000287a:    4608        .F      MOV      r0,r1
        0x0000287c:    f8d00108    ....    LDR      r0,[r0,#0x108]
        0x00002880:    f00030f7    ...0    AND      r0,r0,#0xf7f7f7f7
        0x00002884:    f8c10108    ....    STR      r0,[r1,#0x108]
        0x00002888:    0488        ..      LSLS     r0,r1,#18
        0x0000288a:    f8d00208    ....    LDR      r0,[r0,#0x208]
        0x0000288e:    f0200002     ...    BIC      r0,r0,#2
        0x00002892:    490a        .I      LDR      r1,[pc,#40] ; [0x28bc] = 0x40000298
        0x00002894:    3990        .9      SUBS     r1,r1,#0x90
        0x00002896:    6008        .`      STR      r0,[r1,#0]
        0x00002898:    bf00        ..      NOP      
        0x0000289a:    f04f2040    O.@     MOV      r0,#0x40004000
        0x0000289e:    f8d00140    ..@.    LDR      r0,[r0,#0x140]
        0x000028a2:    f02000f0     ...    BIC      r0,r0,#0xf0
        0x000028a6:    f04f2140    O.@!    MOV      r1,#0x40004000
        0x000028aa:    f8c10140    ..@.    STR      r0,[r1,#0x140]
        0x000028ae:    bf00        ..      NOP      
        0x000028b0:    4770        pG      BX       lr
    $d
        0x000028b2:    0000        ..      DCW    0
        0x000028b4:    e000ed88    ....    DCD    3758157192
        0x000028b8:    4000c000    ...@    DCD    1073790976
        0x000028bc:    40000298    ...@    DCD    1073742488
        0x000028c0:    40041000    ...@    DCD    1074008064
    $t
    i.UART_Open
    UART_Open
        0x000028c4:    e92d41ff    -..A    PUSH     {r0-r8,lr}
        0x000028c8:    4604        .F      MOV      r4,r0
        0x000028ca:    460d        .F      MOV      r5,r1
        0x000028cc:    2600        .&      MOVS     r6,#0
        0x000028ce:    46b0        .F      MOV      r8,r6
        0x000028d0:    4b43        CK      LDR      r3,[pc,#268] ; [0x29e0] = 0x35cc
        0x000028d2:    cb0f        ..      LDM      r3,{r0-r3}
        0x000028d4:    e88d000f    ....    STM      sp,{r0-r3}
        0x000028d8:    2700        .'      MOVS     r7,#0
        0x000028da:    4842        BH      LDR      r0,[pc,#264] ; [0x29e4] = 0x40070000
        0x000028dc:    4284        .B      CMP      r4,r0
        0x000028de:    d10a        ..      BNE      0x28f6 ; UART_Open + 50
        0x000028e0:    4841        AH      LDR      r0,[pc,#260] ; [0x29e8] = 0x40000214
        0x000028e2:    6800        .h      LDR      r0,[r0,#0]
        0x000028e4:    f3c06601    ...f    UBFX     r6,r0,#24,#2
        0x000028e8:    f04f4080    O..@    MOV      r0,#0x40000000
        0x000028ec:    f8d00220    .. .    LDR      r0,[r0,#0x220]
        0x000028f0:    f3c02803    ...(    UBFX     r8,r0,#8,#4
        0x000028f4:    e043        C.      B        0x297e ; UART_Open + 186
        0x000028f6:    483d        =H      LDR      r0,[pc,#244] ; [0x29ec] = 0x40071000
        0x000028f8:    4284        .B      CMP      r4,r0
        0x000028fa:    d109        ..      BNE      0x2910 ; UART_Open + 76
        0x000028fc:    483a        :H      LDR      r0,[pc,#232] ; [0x29e8] = 0x40000214
        0x000028fe:    6800        .h      LDR      r0,[r0,#0]
        0x00002900:    f3c06681    ...f    UBFX     r6,r0,#26,#2
        0x00002904:    04a0        ..      LSLS     r0,r4,#18
        0x00002906:    f8d00220    .. .    LDR      r0,[r0,#0x220]
        0x0000290a:    f3c03803    ...8    UBFX     r8,r0,#12,#4
        0x0000290e:    e036        6.      B        0x297e ; UART_Open + 186
        0x00002910:    4837        7H      LDR      r0,[pc,#220] ; [0x29f0] = 0x40072000
        0x00002912:    4284        .B      CMP      r4,r0
        0x00002914:    d10a        ..      BNE      0x292c ; UART_Open + 104
        0x00002916:    4834        4H      LDR      r0,[pc,#208] ; [0x29e8] = 0x40000214
        0x00002918:    3008        .0      ADDS     r0,r0,#8
        0x0000291a:    6800        .h      LDR      r0,[r0,#0]
        0x0000291c:    f3c06601    ...f    UBFX     r6,r0,#24,#2
        0x00002920:    0460        `.      LSLS     r0,r4,#17
        0x00002922:    f8d00230    ..0.    LDR      r0,[r0,#0x230]
        0x00002926:    f000080f    ....    AND      r8,r0,#0xf
        0x0000292a:    e028        (.      B        0x297e ; UART_Open + 186
        0x0000292c:    4831        1H      LDR      r0,[pc,#196] ; [0x29f4] = 0x40073000
        0x0000292e:    4284        .B      CMP      r4,r0
        0x00002930:    d10b        ..      BNE      0x294a ; UART_Open + 134
        0x00002932:    482d        -H      LDR      r0,[pc,#180] ; [0x29e8] = 0x40000214
        0x00002934:    3008        .0      ADDS     r0,r0,#8
        0x00002936:    6800        .h      LDR      r0,[r0,#0]
        0x00002938:    f3c06681    ...f    UBFX     r6,r0,#26,#2
        0x0000293c:    f04f4080    O..@    MOV      r0,#0x40000000
        0x00002940:    f8d00230    ..0.    LDR      r0,[r0,#0x230]
        0x00002944:    f3c01803    ....    UBFX     r8,r0,#4,#4
        0x00002948:    e019        ..      B        0x297e ; UART_Open + 186
        0x0000294a:    482b        +H      LDR      r0,[pc,#172] ; [0x29f8] = 0x40074000
        0x0000294c:    4284        .B      CMP      r4,r0
        0x0000294e:    d10a        ..      BNE      0x2966 ; UART_Open + 162
        0x00002950:    4825        %H      LDR      r0,[pc,#148] ; [0x29e8] = 0x40000214
        0x00002952:    3008        .0      ADDS     r0,r0,#8
        0x00002954:    6800        .h      LDR      r0,[r0,#0]
        0x00002956:    f3c07601    ...v    UBFX     r6,r0,#28,#2
        0x0000295a:    0420         .      LSLS     r0,r4,#16
        0x0000295c:    f8d00230    ..0.    LDR      r0,[r0,#0x230]
        0x00002960:    f3c02803    ...(    UBFX     r8,r0,#8,#4
        0x00002964:    e00b        ..      B        0x297e ; UART_Open + 186
        0x00002966:    4825        %H      LDR      r0,[pc,#148] ; [0x29fc] = 0x40075000
        0x00002968:    4284        .B      CMP      r4,r0
        0x0000296a:    d108        ..      BNE      0x297e ; UART_Open + 186
        0x0000296c:    481e        .H      LDR      r0,[pc,#120] ; [0x29e8] = 0x40000214
        0x0000296e:    3008        .0      ADDS     r0,r0,#8
        0x00002970:    6800        .h      LDR      r0,[r0,#0]
        0x00002972:    0f86        ..      LSRS     r6,r0,#30
        0x00002974:    04a0        ..      LSLS     r0,r4,#18
        0x00002976:    f8d00230    ..0.    LDR      r0,[r0,#0x230]
        0x0000297a:    f3c03803    ...8    UBFX     r8,r0,#12,#4
        0x0000297e:    2000        .       MOVS     r0,#0
        0x00002980:    6320         c      STR      r0,[r4,#0x30]
        0x00002982:    2003        .       MOVS     r0,#3
        0x00002984:    60e0        .`      STR      r0,[r4,#0xc]
        0x00002986:    68a0        .h      LDR      r0,[r4,#8]
        0x00002988:    491d        .I      LDR      r1,[pc,#116] ; [0x2a00] = 0xfff0ff0f
        0x0000298a:    4008        .@      ANDS     r0,r0,r1
        0x0000298c:    60a0        .`      STR      r0,[r4,#8]
        0x0000298e:    2e01        ..      CMP      r6,#1
        0x00002990:    d103        ..      BNE      0x299a ; UART_Open + 214
        0x00002992:    f7fef85d    ..].    BL       CLK_GetPLLClockFreq ; 0xa50
        0x00002996:    f84d0026    M.&.    STR      r0,[sp,r6,LSL #2]
        0x0000299a:    b1fd        ..      CBZ      r5,0x29dc ; UART_Open + 280
        0x0000299c:    f85d1026    ].&.    LDR      r1,[sp,r6,LSL #2]
        0x000029a0:    f1080001    ....    ADD      r0,r8,#1
        0x000029a4:    fbb1f0f0    ....    UDIV     r0,r1,r0
        0x000029a8:    eb000055    ..U.    ADD      r0,r0,r5,LSR #1
        0x000029ac:    fbb0f0f5    ....    UDIV     r0,r0,r5
        0x000029b0:    1e87        ..      SUBS     r7,r0,#2
        0x000029b2:    f5b73f80    ...?    CMP      r7,#0x10000
        0x000029b6:    d30e        ..      BCC      0x29d6 ; UART_Open + 274
        0x000029b8:    f85d1026    ].&.    LDR      r1,[sp,r6,LSL #2]
        0x000029bc:    f1080001    ....    ADD      r0,r8,#1
        0x000029c0:    fbb1f0f0    ....    UDIV     r0,r1,r0
        0x000029c4:    eb0000c5    ....    ADD      r0,r0,r5,LSL #3
        0x000029c8:    fbb0f0f5    ....    UDIV     r0,r0,r5
        0x000029cc:    2102        .!      MOVS     r1,#2
        0x000029ce:    ebc11010    ....    RSB      r0,r1,r0,LSR #4
        0x000029d2:    6260        `b      STR      r0,[r4,#0x24]
        0x000029d4:    e002        ..      B        0x29dc ; UART_Open + 280
        0x000029d6:    f0475040    G.@P    ORR      r0,r7,#0x30000000
        0x000029da:    6260        `b      STR      r0,[r4,#0x24]
        0x000029dc:    e8bd81ff    ....    POP      {r0-r8,pc}
    $d
        0x000029e0:    000035cc    .5..    DCD    13772
        0x000029e4:    40070000    ...@    DCD    1074200576
        0x000029e8:    40000214    ...@    DCD    1073742356
        0x000029ec:    40071000    ...@    DCD    1074204672
        0x000029f0:    40072000    . .@    DCD    1074208768
        0x000029f4:    40073000    .0.@    DCD    1074212864
        0x000029f8:    40074000    .@.@    DCD    1074216960
        0x000029fc:    40075000    .P.@    DCD    1074221056
        0x00002a00:    fff0ff0f    ....    DCD    4293984015
    $t
    i.USBD20_IRQHandler
    USBD20_IRQHandler
        0x00002a04:    b51c        ..      PUSH     {r2-r4,lr}
        0x00002a06:    48fe        .H      LDR      r0,[pc,#1016] ; [0x2e00] = 0x40019000
        0x00002a08:    6800        .h      LDR      r0,[r0,#0]
        0x00002a0a:    49fd        .I      LDR      r1,[pc,#1012] ; [0x2e00] = 0x40019000
        0x00002a0c:    6889        .h      LDR      r1,[r1,#8]
        0x00002a0e:    4008        .@      ANDS     r0,r0,r1
        0x00002a10:    9001        ..      STR      r0,[sp,#4]
        0x00002a12:    9801        ..      LDR      r0,[sp,#4]
        0x00002a14:    b900        ..      CBNZ     r0,0x2a18 ; USBD20_IRQHandler + 20
        0x00002a16:    bd1c        ..      POP      {r2-r4,pc}
        0x00002a18:    9801        ..      LDR      r0,[sp,#4]
        0x00002a1a:    f0000001    ....    AND      r0,r0,#1
        0x00002a1e:    2800        .(      CMP      r0,#0
        0x00002a20:    d07e        ~.      BEQ      0x2b20 ; USBD20_IRQHandler + 284
        0x00002a22:    48f7        .H      LDR      r0,[pc,#988] ; [0x2e00] = 0x40019000
        0x00002a24:    6900        .i      LDR      r0,[r0,#0x10]
        0x00002a26:    49f6        .I      LDR      r1,[pc,#984] ; [0x2e00] = 0x40019000
        0x00002a28:    6949        Ii      LDR      r1,[r1,#0x14]
        0x00002a2a:    4008        .@      ANDS     r0,r0,r1
        0x00002a2c:    9000        ..      STR      r0,[sp,#0]
        0x00002a2e:    9800        ..      LDR      r0,[sp,#0]
        0x00002a30:    f0000001    ....    AND      r0,r0,#1
        0x00002a34:    b110        ..      CBZ      r0,0x2a3c ; USBD20_IRQHandler + 56
        0x00002a36:    2001        .       MOVS     r0,#1
        0x00002a38:    49f1        .I      LDR      r1,[pc,#964] ; [0x2e00] = 0x40019000
        0x00002a3a:    6108        .a      STR      r0,[r1,#0x10]
        0x00002a3c:    9800        ..      LDR      r0,[sp,#0]
        0x00002a3e:    f0000002    ....    AND      r0,r0,#2
        0x00002a42:    b360        `.      CBZ      r0,0x2a9e ; USBD20_IRQHandler + 154
        0x00002a44:    f7fefe18    ....    BL       HSUSBD_SwReset ; 0x1678
        0x00002a48:    2000        .       MOVS     r0,#0
        0x00002a4a:    49ee        .I      LDR      r1,[pc,#952] ; [0x2e04] = 0x20000172
        0x00002a4c:    7008        .p      STRB     r0,[r1,#0]
        0x00002a4e:    20ff        .       MOVS     r0,#0xff
        0x00002a50:    49ed        .I      LDR      r1,[pc,#948] ; [0x2e08] = 0x20000170
        0x00002a52:    7008        .p      STRB     r0,[r1,#0]
        0x00002a54:    bf00        ..      NOP      
        0x00002a56:    2000        .       MOVS     r0,#0
        0x00002a58:    49e9        .I      LDR      r1,[pc,#932] ; [0x2e00] = 0x40019000
        0x00002a5a:    6608        .f      STR      r0,[r1,#0x60]
        0x00002a5c:    2080        .       MOVS     r0,#0x80
        0x00002a5e:    65c8        .e      STR      r0,[r1,#0x5c]
        0x00002a60:    2000        .       MOVS     r0,#0
        0x00002a62:    65c8        .e      STR      r0,[r1,#0x5c]
        0x00002a64:    bf00        ..      NOP      
        0x00002a66:    2101        .!      MOVS     r1,#1
        0x00002a68:    48e5        .H      LDR      r0,[pc,#916] ; [0x2e00] = 0x40019000
        0x00002a6a:    6741        Ag      STR      r1,[r0,#0x74]
        0x00002a6c:    48e4        .H      LDR      r0,[pc,#912] ; [0x2e00] = 0x40019000
        0x00002a6e:    309c        .0      ADDS     r0,r0,#0x9c
        0x00002a70:    6001        .`      STR      r1,[r0,#0]
        0x00002a72:    48e3        .H      LDR      r0,[pc,#908] ; [0x2e00] = 0x40019000
        0x00002a74:    6980        .i      LDR      r0,[r0,#0x18]
        0x00002a76:    f0000004    ....    AND      r0,r0,#4
        0x00002a7a:    b110        ..      CBZ      r0,0x2a82 ; USBD20_IRQHandler + 126
        0x00002a7c:    f7fff8e8    ....    BL       MSC_InitForHighSpeed ; 0x1c50
        0x00002a80:    e001        ..      B        0x2a86 ; USBD20_IRQHandler + 130
        0x00002a82:    f7fff8b9    ....    BL       MSC_InitForFullSpeed ; 0x1bf8
        0x00002a86:    2002        .       MOVS     r0,#2
        0x00002a88:    49dd        .I      LDR      r1,[pc,#884] ; [0x2e00] = 0x40019000
        0x00002a8a:    6308        .c      STR      r0,[r1,#0x30]
        0x00002a8c:    2000        .       MOVS     r0,#0
        0x00002a8e:    6208        .b      STR      r0,[r1,#0x20]
        0x00002a90:    200e        .       MOVS     r0,#0xe
        0x00002a92:    6148        Ha      STR      r0,[r1,#0x14]
        0x00002a94:    2002        .       MOVS     r0,#2
        0x00002a96:    6108        .a      STR      r0,[r1,#0x10]
        0x00002a98:    f64170fc    A..p    MOV      r0,#0x1ffc
        0x00002a9c:    6348        Hc      STR      r0,[r1,#0x34]
        0x00002a9e:    9800        ..      LDR      r0,[sp,#0]
        0x00002aa0:    f0000004    ....    AND      r0,r0,#4
        0x00002aa4:    b120         .      CBZ      r0,0x2ab0 ; USBD20_IRQHandler + 172
        0x00002aa6:    200a        .       MOVS     r0,#0xa
        0x00002aa8:    49d5        .I      LDR      r1,[pc,#852] ; [0x2e00] = 0x40019000
        0x00002aaa:    6148        Ha      STR      r0,[r1,#0x14]
        0x00002aac:    2004        .       MOVS     r0,#4
        0x00002aae:    6108        .a      STR      r0,[r1,#0x10]
        0x00002ab0:    9800        ..      LDR      r0,[sp,#0]
        0x00002ab2:    f0000008    ....    AND      r0,r0,#8
        0x00002ab6:    b120         .      CBZ      r0,0x2ac2 ; USBD20_IRQHandler + 190
        0x00002ab8:    2006        .       MOVS     r0,#6
        0x00002aba:    49d1        .I      LDR      r1,[pc,#836] ; [0x2e00] = 0x40019000
        0x00002abc:    6148        Ha      STR      r0,[r1,#0x14]
        0x00002abe:    2008        .       MOVS     r0,#8
        0x00002ac0:    6108        .a      STR      r0,[r1,#0x10]
        0x00002ac2:    9800        ..      LDR      r0,[sp,#0]
        0x00002ac4:    f0000010    ....    AND      r0,r0,#0x10
        0x00002ac8:    b120         .      CBZ      r0,0x2ad4 ; USBD20_IRQHandler + 208
        0x00002aca:    2002        .       MOVS     r0,#2
        0x00002acc:    49cc        .I      LDR      r1,[pc,#816] ; [0x2e00] = 0x40019000
        0x00002ace:    6308        .c      STR      r0,[r1,#0x30]
        0x00002ad0:    2010        .       MOVS     r0,#0x10
        0x00002ad2:    6108        .a      STR      r0,[r1,#0x10]
        0x00002ad4:    9800        ..      LDR      r0,[sp,#0]
        0x00002ad6:    f0000020    .. .    AND      r0,r0,#0x20
        0x00002ada:    b358        X.      CBZ      r0,0x2b34 ; USBD20_IRQHandler + 304
        0x00002adc:    2001        .       MOVS     r0,#1
        0x00002ade:    49cb        .I      LDR      r1,[pc,#812] ; [0x2e0c] = 0x20000240
        0x00002ae0:    6008        .`      STR      r0,[r1,#0]
        0x00002ae2:    2020                MOVS     r0,#0x20
        0x00002ae4:    49c6        .I      LDR      r1,[pc,#792] ; [0x2e00] = 0x40019000
        0x00002ae6:    6108        .a      STR      r0,[r1,#0x10]
        0x00002ae8:    4608        .F      MOV      r0,r1
        0x00002aea:    6dc0        .m      LDR      r0,[r0,#0x5c]
        0x00002aec:    f0000010    ....    AND      r0,r0,#0x10
        0x00002af0:    b950        P.      CBNZ     r0,0x2b08 ; USBD20_IRQHandler + 260
        0x00002af2:    48c5        .H      LDR      r0,[pc,#788] ; [0x2e08] = 0x20000170
        0x00002af4:    7800        .x      LDRB     r0,[r0,#0]
        0x00002af6:    2802        .(      CMP      r0,#2
        0x00002af8:    d102        ..      BNE      0x2b00 ; USBD20_IRQHandler + 252
        0x00002afa:    2000        .       MOVS     r0,#0
        0x00002afc:    49c2        .I      LDR      r1,[pc,#776] ; [0x2e08] = 0x20000170
        0x00002afe:    7008        .p      STRB     r0,[r1,#0]
        0x00002b00:    2110        .!      MOVS     r1,#0x10
        0x00002b02:    48bf        .H      LDR      r0,[pc,#764] ; [0x2e00] = 0x40019000
        0x00002b04:    3094        .0      ADDS     r0,r0,#0x94
        0x00002b06:    6001        .`      STR      r1,[r0,#0]
        0x00002b08:    48bd        .H      LDR      r0,[pc,#756] ; [0x2e00] = 0x40019000
        0x00002b0a:    6dc0        .m      LDR      r0,[r0,#0x5c]
        0x00002b0c:    f0000010    ....    AND      r0,r0,#0x10
        0x00002b10:    b180        ..      CBZ      r0,0x2b34 ; USBD20_IRQHandler + 304
        0x00002b12:    48bf        .H      LDR      r0,[pc,#764] ; [0x2e10] = 0x2000023f
        0x00002b14:    7800        .x      LDRB     r0,[r0,#0]
        0x00002b16:    2801        .(      CMP      r0,#1
        0x00002b18:    d10c        ..      BNE      0x2b34 ; USBD20_IRQHandler + 304
        0x00002b1a:    48b9        .H      LDR      r0,[pc,#740] ; [0x2e00] = 0x40019000
        0x00002b1c:    6f40        @o      LDR      r0,[r0,#0x74]
        0x00002b1e:    e000        ..      B        0x2b22 ; USBD20_IRQHandler + 286
        0x00002b20:    e029        ).      B        0x2b76 ; USBD20_IRQHandler + 370
        0x00002b22:    f0000010    ....    AND      r0,r0,#0x10
        0x00002b26:    f0400140    @.@.    ORR      r1,r0,#0x40
        0x00002b2a:    48b5        .H      LDR      r0,[pc,#724] ; [0x2e00] = 0x40019000
        0x00002b2c:    6741        Ag      STR      r1,[r0,#0x74]
        0x00002b2e:    2000        .       MOVS     r0,#0
        0x00002b30:    49b7        .I      LDR      r1,[pc,#732] ; [0x2e10] = 0x2000023f
        0x00002b32:    7008        .p      STRB     r0,[r1,#0]
        0x00002b34:    9800        ..      LDR      r0,[sp,#0]
        0x00002b36:    f0000040    ..@.    AND      r0,r0,#0x40
        0x00002b3a:    b110        ..      CBZ      r0,0x2b42 ; USBD20_IRQHandler + 318
        0x00002b3c:    2040        @       MOVS     r0,#0x40
        0x00002b3e:    49b0        .I      LDR      r1,[pc,#704] ; [0x2e00] = 0x40019000
        0x00002b40:    6108        .a      STR      r0,[r1,#0x10]
        0x00002b42:    9800        ..      LDR      r0,[sp,#0]
        0x00002b44:    f4007080    ...p    AND      r0,r0,#0x100
        0x00002b48:    b1a8        ..      CBZ      r0,0x2b76 ; USBD20_IRQHandler + 370
        0x00002b4a:    48b2        .H      LDR      r0,[pc,#712] ; [0x2e14] = 0x40019704
        0x00002b4c:    6800        .h      LDR      r0,[r0,#0]
        0x00002b4e:    f0004000    ...@    AND      r0,r0,#0x80000000
        0x00002b52:    b130        0.      CBZ      r0,0x2b62 ; USBD20_IRQHandler + 350
        0x00002b54:    48af        .H      LDR      r0,[pc,#700] ; [0x2e14] = 0x40019704
        0x00002b56:    6800        .h      LDR      r0,[r0,#0]
        0x00002b58:    f4407040    @.@p    ORR      r0,r0,#0x300
        0x00002b5c:    49ad        .I      LDR      r1,[pc,#692] ; [0x2e14] = 0x40019704
        0x00002b5e:    6008        .`      STR      r0,[r1,#0]
        0x00002b60:    e005        ..      B        0x2b6e ; USBD20_IRQHandler + 362
        0x00002b62:    48ac        .H      LDR      r0,[pc,#688] ; [0x2e14] = 0x40019704
        0x00002b64:    6800        .h      LDR      r0,[r0,#0]
        0x00002b66:    f4207080     ..p    BIC      r0,r0,#0x100
        0x00002b6a:    49aa        .I      LDR      r1,[pc,#680] ; [0x2e14] = 0x40019704
        0x00002b6c:    6008        .`      STR      r0,[r1,#0]
        0x00002b6e:    f44f7080    O..p    MOV      r0,#0x100
        0x00002b72:    49a3        .I      LDR      r1,[pc,#652] ; [0x2e00] = 0x40019000
        0x00002b74:    6108        .a      STR      r0,[r1,#0x10]
        0x00002b76:    9801        ..      LDR      r0,[sp,#4]
        0x00002b78:    f0000002    ....    AND      r0,r0,#2
        0x00002b7c:    2800        .(      CMP      r0,#0
        0x00002b7e:    d070        p.      BEQ      0x2c62 ; USBD20_IRQHandler + 606
        0x00002b80:    489f        .H      LDR      r0,[pc,#636] ; [0x2e00] = 0x40019000
        0x00002b82:    6b40        @k      LDR      r0,[r0,#0x34]
        0x00002b84:    499e        .I      LDR      r1,[pc,#632] ; [0x2e00] = 0x40019000
        0x00002b86:    6b09        .k      LDR      r1,[r1,#0x30]
        0x00002b88:    4008        .@      ANDS     r0,r0,r1
        0x00002b8a:    9000        ..      STR      r0,[sp,#0]
        0x00002b8c:    9800        ..      LDR      r0,[sp,#0]
        0x00002b8e:    f0000001    ....    AND      r0,r0,#1
        0x00002b92:    b118        ..      CBZ      r0,0x2b9c ; USBD20_IRQHandler + 408
        0x00002b94:    2001        .       MOVS     r0,#1
        0x00002b96:    499a        .I      LDR      r1,[pc,#616] ; [0x2e00] = 0x40019000
        0x00002b98:    6348        Hc      STR      r0,[r1,#0x34]
        0x00002b9a:    e73c        <.      B        0x2a16 ; USBD20_IRQHandler + 18
        0x00002b9c:    9800        ..      LDR      r0,[sp,#0]
        0x00002b9e:    f0000002    ....    AND      r0,r0,#2
        0x00002ba2:    b128        (.      CBZ      r0,0x2bb0 ; USBD20_IRQHandler + 428
        0x00002ba4:    2002        .       MOVS     r0,#2
        0x00002ba6:    4996        .I      LDR      r1,[pc,#600] ; [0x2e00] = 0x40019000
        0x00002ba8:    6348        Hc      STR      r0,[r1,#0x34]
        0x00002baa:    f7fefbb3    ....    BL       HSUSBD_ProcessSetupPacket ; 0x1314
        0x00002bae:    e732        2.      B        0x2a16 ; USBD20_IRQHandler + 18
        0x00002bb0:    9800        ..      LDR      r0,[sp,#0]
        0x00002bb2:    f0000004    ....    AND      r0,r0,#4
        0x00002bb6:    b128        (.      CBZ      r0,0x2bc4 ; USBD20_IRQHandler + 448
        0x00002bb8:    2004        .       MOVS     r0,#4
        0x00002bba:    4991        .I      LDR      r1,[pc,#580] ; [0x2e00] = 0x40019000
        0x00002bbc:    6348        Hc      STR      r0,[r1,#0x34]
        0x00002bbe:    0200        ..      LSLS     r0,r0,#8
        0x00002bc0:    6308        .c      STR      r0,[r1,#0x30]
        0x00002bc2:    e728        (.      B        0x2a16 ; USBD20_IRQHandler + 18
        0x00002bc4:    9800        ..      LDR      r0,[sp,#0]
        0x00002bc6:    f0000008    ....    AND      r0,r0,#8
        0x00002bca:    b198        ..      CBZ      r0,0x2bf4 ; USBD20_IRQHandler + 496
        0x00002bcc:    2008        .       MOVS     r0,#8
        0x00002bce:    498c        .I      LDR      r1,[pc,#560] ; [0x2e00] = 0x40019000
        0x00002bd0:    6348        Hc      STR      r0,[r1,#0x34]
        0x00002bd2:    9800        ..      LDR      r0,[sp,#0]
        0x00002bd4:    f4006080    ...`    AND      r0,r0,#0x400
        0x00002bd8:    b928        (.      CBNZ     r0,0x2be6 ; USBD20_IRQHandler + 482
        0x00002bda:    2020                MOVS     r0,#0x20
        0x00002bdc:    6348        Hc      STR      r0,[r1,#0x34]
        0x00002bde:    6308        .c      STR      r0,[r1,#0x30]
        0x00002be0:    f7fef972    ..r.    BL       HSUSBD_CtrlIn ; 0xec8
        0x00002be4:    e005        ..      B        0x2bf2 ; USBD20_IRQHandler + 494
        0x00002be6:    2020                MOVS     r0,#0x20
        0x00002be8:    4985        .I      LDR      r1,[pc,#532] ; [0x2e00] = 0x40019000
        0x00002bea:    6348        Hc      STR      r0,[r1,#0x34]
        0x00002bec:    f44f6084    O..`    MOV      r0,#0x420
        0x00002bf0:    6308        .c      STR      r0,[r1,#0x30]
        0x00002bf2:    e710        ..      B        0x2a16 ; USBD20_IRQHandler + 18
        0x00002bf4:    9800        ..      LDR      r0,[sp,#0]
        0x00002bf6:    f0000010    ....    AND      r0,r0,#0x10
        0x00002bfa:    b118        ..      CBZ      r0,0x2c04 ; USBD20_IRQHandler + 512
        0x00002bfc:    2010        .       MOVS     r0,#0x10
        0x00002bfe:    4980        .I      LDR      r1,[pc,#512] ; [0x2e00] = 0x40019000
        0x00002c00:    6348        Hc      STR      r0,[r1,#0x34]
        0x00002c02:    e708        ..      B        0x2a16 ; USBD20_IRQHandler + 18
        0x00002c04:    9800        ..      LDR      r0,[sp,#0]
        0x00002c06:    f0000020    .. .    AND      r0,r0,#0x20
        0x00002c0a:    b1e8        ..      CBZ      r0,0x2c48 ; USBD20_IRQHandler + 580
        0x00002c0c:    f44f6080    O..`    MOV      r0,#0x400
        0x00002c10:    497b        {I      LDR      r1,[pc,#492] ; [0x2e00] = 0x40019000
        0x00002c12:    6348        Hc      STR      r0,[r1,#0x34]
        0x00002c14:    2000        .       MOVS     r0,#0
        0x00002c16:    62c8        .b      STR      r0,[r1,#0x2c]
        0x00002c18:    487f        .H      LDR      r0,[pc,#508] ; [0x2e18] = 0x20000244
        0x00002c1a:    6800        .h      LDR      r0,[r0,#0]
        0x00002c1c:    b118        ..      CBZ      r0,0x2c26 ; USBD20_IRQHandler + 546
        0x00002c1e:    2008        .       MOVS     r0,#8
        0x00002c20:    6348        Hc      STR      r0,[r1,#0x34]
        0x00002c22:    6308        .c      STR      r0,[r1,#0x30]
        0x00002c24:    e00c        ..      B        0x2c40 ; USBD20_IRQHandler + 572
        0x00002c26:    487d        }H      LDR      r0,[pc,#500] ; [0x2e1c] = 0x2000023d
        0x00002c28:    7800        .x      LDRB     r0,[r0,#0]
        0x00002c2a:    2801        .(      CMP      r0,#1
        0x00002c2c:    d102        ..      BNE      0x2c34 ; USBD20_IRQHandler + 560
        0x00002c2e:    2004        .       MOVS     r0,#4
        0x00002c30:    4973        sI      LDR      r1,[pc,#460] ; [0x2e00] = 0x40019000
        0x00002c32:    62c8        .b      STR      r0,[r1,#0x2c]
        0x00002c34:    f44f6080    O..`    MOV      r0,#0x400
        0x00002c38:    4971        qI      LDR      r1,[pc,#452] ; [0x2e00] = 0x40019000
        0x00002c3a:    6348        Hc      STR      r0,[r1,#0x34]
        0x00002c3c:    1c80        ..      ADDS     r0,r0,#2
        0x00002c3e:    6308        .c      STR      r0,[r1,#0x30]
        0x00002c40:    2020                MOVS     r0,#0x20
        0x00002c42:    496f        oI      LDR      r1,[pc,#444] ; [0x2e00] = 0x40019000
        0x00002c44:    6348        Hc      STR      r0,[r1,#0x34]
        0x00002c46:    e6e6        ..      B        0x2a16 ; USBD20_IRQHandler + 18
        0x00002c48:    9800        ..      LDR      r0,[sp,#0]
        0x00002c4a:    f0000040    ..@.    AND      r0,r0,#0x40
        0x00002c4e:    b148        H.      CBZ      r0,0x2c64 ; USBD20_IRQHandler + 608
        0x00002c50:    2040        @       MOVS     r0,#0x40
        0x00002c52:    496b        kI      LDR      r1,[pc,#428] ; [0x2e00] = 0x40019000
        0x00002c54:    6348        Hc      STR      r0,[r1,#0x34]
        0x00002c56:    2000        .       MOVS     r0,#0
        0x00002c58:    62c8        .b      STR      r0,[r1,#0x2c]
        0x00002c5a:    f2404002    @..@    MOV      r0,#0x402
        0x00002c5e:    6308        .c      STR      r0,[r1,#0x30]
        0x00002c60:    e6d9        ..      B        0x2a16 ; USBD20_IRQHandler + 18
        0x00002c62:    e038        8.      B        0x2cd6 ; USBD20_IRQHandler + 722
        0x00002c64:    9800        ..      LDR      r0,[sp,#0]
        0x00002c66:    f0000080    ....    AND      r0,r0,#0x80
        0x00002c6a:    b118        ..      CBZ      r0,0x2c74 ; USBD20_IRQHandler + 624
        0x00002c6c:    2080        .       MOVS     r0,#0x80
        0x00002c6e:    4964        dI      LDR      r1,[pc,#400] ; [0x2e00] = 0x40019000
        0x00002c70:    6348        Hc      STR      r0,[r1,#0x34]
        0x00002c72:    e6d0        ..      B        0x2a16 ; USBD20_IRQHandler + 18
        0x00002c74:    9800        ..      LDR      r0,[sp,#0]
        0x00002c76:    f4007080    ...p    AND      r0,r0,#0x100
        0x00002c7a:    b120         .      CBZ      r0,0x2c86 ; USBD20_IRQHandler + 642
        0x00002c7c:    f44f7080    O..p    MOV      r0,#0x100
        0x00002c80:    495f        _I      LDR      r1,[pc,#380] ; [0x2e00] = 0x40019000
        0x00002c82:    6348        Hc      STR      r0,[r1,#0x34]
        0x00002c84:    e6c7        ..      B        0x2a16 ; USBD20_IRQHandler + 18
        0x00002c86:    9800        ..      LDR      r0,[sp,#0]
        0x00002c88:    f4007000    ...p    AND      r0,r0,#0x200
        0x00002c8c:    b120         .      CBZ      r0,0x2c98 ; USBD20_IRQHandler + 660
        0x00002c8e:    f44f7000    O..p    MOV      r0,#0x200
        0x00002c92:    495b        [I      LDR      r1,[pc,#364] ; [0x2e00] = 0x40019000
        0x00002c94:    6348        Hc      STR      r0,[r1,#0x34]
        0x00002c96:    e6be        ..      B        0x2a16 ; USBD20_IRQHandler + 18
        0x00002c98:    9800        ..      LDR      r0,[sp,#0]
        0x00002c9a:    f4006080    ...`    AND      r0,r0,#0x400
        0x00002c9e:    b140        @.      CBZ      r0,0x2cb2 ; USBD20_IRQHandler + 686
        0x00002ca0:    f7fefd00    ....    BL       HSUSBD_UpdateDeviceState ; 0x16a4
        0x00002ca4:    f44f6080    O..`    MOV      r0,#0x400
        0x00002ca8:    4955        UI      LDR      r1,[pc,#340] ; [0x2e00] = 0x40019000
        0x00002caa:    6348        Hc      STR      r0,[r1,#0x34]
        0x00002cac:    2002        .       MOVS     r0,#2
        0x00002cae:    6308        .c      STR      r0,[r1,#0x30]
        0x00002cb0:    e6b1        ..      B        0x2a16 ; USBD20_IRQHandler + 18
        0x00002cb2:    9800        ..      LDR      r0,[sp,#0]
        0x00002cb4:    f4006000    ...`    AND      r0,r0,#0x800
        0x00002cb8:    b120         .      CBZ      r0,0x2cc4 ; USBD20_IRQHandler + 704
        0x00002cba:    f44f6000    O..`    MOV      r0,#0x800
        0x00002cbe:    4950        PI      LDR      r1,[pc,#320] ; [0x2e00] = 0x40019000
        0x00002cc0:    6348        Hc      STR      r0,[r1,#0x34]
        0x00002cc2:    e6a8        ..      B        0x2a16 ; USBD20_IRQHandler + 18
        0x00002cc4:    9800        ..      LDR      r0,[sp,#0]
        0x00002cc6:    f4005080    ...P    AND      r0,r0,#0x1000
        0x00002cca:    b120         .      CBZ      r0,0x2cd6 ; USBD20_IRQHandler + 722
        0x00002ccc:    f44f5080    O..P    MOV      r0,#0x1000
        0x00002cd0:    494b        KI      LDR      r1,[pc,#300] ; [0x2e00] = 0x40019000
        0x00002cd2:    6348        Hc      STR      r0,[r1,#0x34]
        0x00002cd4:    e69f        ..      B        0x2a16 ; USBD20_IRQHandler + 18
        0x00002cd6:    9801        ..      LDR      r0,[sp,#4]
        0x00002cd8:    f0000004    ....    AND      r0,r0,#4
        0x00002cdc:    b150        P.      CBZ      r0,0x2cf4 ; USBD20_IRQHandler + 752
        0x00002cde:    4848        HH      LDR      r0,[pc,#288] ; [0x2e00] = 0x40019000
        0x00002ce0:    6e80        .n      LDR      r0,[r0,#0x68]
        0x00002ce2:    4947        GI      LDR      r1,[pc,#284] ; [0x2e00] = 0x40019000
        0x00002ce4:    6ec9        .n      LDR      r1,[r1,#0x6c]
        0x00002ce6:    4008        .@      ANDS     r0,r0,r1
        0x00002ce8:    9000        ..      STR      r0,[sp,#0]
        0x00002cea:    2100        .!      MOVS     r1,#0
        0x00002cec:    4844        DH      LDR      r0,[pc,#272] ; [0x2e00] = 0x40019000
        0x00002cee:    66c1        .f      STR      r1,[r0,#0x6c]
        0x00002cf0:    9900        ..      LDR      r1,[sp,#0]
        0x00002cf2:    6681        .f      STR      r1,[r0,#0x68]
        0x00002cf4:    9801        ..      LDR      r0,[sp,#4]
        0x00002cf6:    f0000008    ....    AND      r0,r0,#8
        0x00002cfa:    b168        h.      CBZ      r0,0x2d18 ; USBD20_IRQHandler + 788
        0x00002cfc:    4840        @H      LDR      r0,[pc,#256] ; [0x2e00] = 0x40019000
        0x00002cfe:    3090        .0      ADDS     r0,r0,#0x90
        0x00002d00:    6801        .h      LDR      r1,[r0,#0]
        0x00002d02:    1d00        ..      ADDS     r0,r0,#4
        0x00002d04:    6800        .h      LDR      r0,[r0,#0]
        0x00002d06:    4001        .@      ANDS     r1,r1,r0
        0x00002d08:    9100        ..      STR      r1,[sp,#0]
        0x00002d0a:    2100        .!      MOVS     r1,#0
        0x00002d0c:    483c        <H      LDR      r0,[pc,#240] ; [0x2e00] = 0x40019000
        0x00002d0e:    3094        .0      ADDS     r0,r0,#0x94
        0x00002d10:    6001        .`      STR      r1,[r0,#0]
        0x00002d12:    1f00        ..      SUBS     r0,r0,#4
        0x00002d14:    9900        ..      LDR      r1,[sp,#0]
        0x00002d16:    6001        .`      STR      r1,[r0,#0]
        0x00002d18:    9801        ..      LDR      r0,[sp,#4]
        0x00002d1a:    f0000010    ....    AND      r0,r0,#0x10
        0x00002d1e:    b150        P.      CBZ      r0,0x2d36 ; USBD20_IRQHandler + 818
        0x00002d20:    4837        7H      LDR      r0,[pc,#220] ; [0x2e00] = 0x40019000
        0x00002d22:    30b8        .0      ADDS     r0,r0,#0xb8
        0x00002d24:    6801        .h      LDR      r1,[r0,#0]
        0x00002d26:    1d00        ..      ADDS     r0,r0,#4
        0x00002d28:    6800        .h      LDR      r0,[r0,#0]
        0x00002d2a:    4001        .@      ANDS     r1,r1,r0
        0x00002d2c:    9100        ..      STR      r1,[sp,#0]
        0x00002d2e:    4834        4H      LDR      r0,[pc,#208] ; [0x2e00] = 0x40019000
        0x00002d30:    30b8        .0      ADDS     r0,r0,#0xb8
        0x00002d32:    9900        ..      LDR      r1,[sp,#0]
        0x00002d34:    6001        .`      STR      r1,[r0,#0]
        0x00002d36:    9801        ..      LDR      r0,[sp,#4]
        0x00002d38:    f0000020    .. .    AND      r0,r0,#0x20
        0x00002d3c:    b150        P.      CBZ      r0,0x2d54 ; USBD20_IRQHandler + 848
        0x00002d3e:    4830        0H      LDR      r0,[pc,#192] ; [0x2e00] = 0x40019000
        0x00002d40:    30e0        .0      ADDS     r0,r0,#0xe0
        0x00002d42:    6801        .h      LDR      r1,[r0,#0]
        0x00002d44:    1d00        ..      ADDS     r0,r0,#4
        0x00002d46:    6800        .h      LDR      r0,[r0,#0]
        0x00002d48:    4001        .@      ANDS     r1,r1,r0
        0x00002d4a:    9100        ..      STR      r1,[sp,#0]
        0x00002d4c:    482c        ,H      LDR      r0,[pc,#176] ; [0x2e00] = 0x40019000
        0x00002d4e:    30e0        .0      ADDS     r0,r0,#0xe0
        0x00002d50:    9900        ..      LDR      r1,[sp,#0]
        0x00002d52:    6001        .`      STR      r1,[r0,#0]
        0x00002d54:    9801        ..      LDR      r0,[sp,#4]
        0x00002d56:    f0000040    ..@.    AND      r0,r0,#0x40
        0x00002d5a:    b140        @.      CBZ      r0,0x2d6e ; USBD20_IRQHandler + 874
        0x00002d5c:    4830        0H      LDR      r0,[pc,#192] ; [0x2e20] = 0x40019108
        0x00002d5e:    6801        .h      LDR      r1,[r0,#0]
        0x00002d60:    1d00        ..      ADDS     r0,r0,#4
        0x00002d62:    6800        .h      LDR      r0,[r0,#0]
        0x00002d64:    4001        .@      ANDS     r1,r1,r0
        0x00002d66:    9100        ..      STR      r1,[sp,#0]
        0x00002d68:    482d        -H      LDR      r0,[pc,#180] ; [0x2e20] = 0x40019108
        0x00002d6a:    9900        ..      LDR      r1,[sp,#0]
        0x00002d6c:    6001        .`      STR      r1,[r0,#0]
        0x00002d6e:    9801        ..      LDR      r0,[sp,#4]
        0x00002d70:    f0000080    ....    AND      r0,r0,#0x80
        0x00002d74:    b150        P.      CBZ      r0,0x2d8c ; USBD20_IRQHandler + 904
        0x00002d76:    482a        *H      LDR      r0,[pc,#168] ; [0x2e20] = 0x40019108
        0x00002d78:    3028        (0      ADDS     r0,r0,#0x28
        0x00002d7a:    6801        .h      LDR      r1,[r0,#0]
        0x00002d7c:    1d00        ..      ADDS     r0,r0,#4
        0x00002d7e:    6800        .h      LDR      r0,[r0,#0]
        0x00002d80:    4001        .@      ANDS     r1,r1,r0
        0x00002d82:    9100        ..      STR      r1,[sp,#0]
        0x00002d84:    4826        &H      LDR      r0,[pc,#152] ; [0x2e20] = 0x40019108
        0x00002d86:    3028        (0      ADDS     r0,r0,#0x28
        0x00002d88:    9900        ..      LDR      r1,[sp,#0]
        0x00002d8a:    6001        .`      STR      r1,[r0,#0]
        0x00002d8c:    9801        ..      LDR      r0,[sp,#4]
        0x00002d8e:    f4007080    ...p    AND      r0,r0,#0x100
        0x00002d92:    b150        P.      CBZ      r0,0x2daa ; USBD20_IRQHandler + 934
        0x00002d94:    4822        "H      LDR      r0,[pc,#136] ; [0x2e20] = 0x40019108
        0x00002d96:    3050        P0      ADDS     r0,r0,#0x50
        0x00002d98:    6801        .h      LDR      r1,[r0,#0]
        0x00002d9a:    1d00        ..      ADDS     r0,r0,#4
        0x00002d9c:    6800        .h      LDR      r0,[r0,#0]
        0x00002d9e:    4001        .@      ANDS     r1,r1,r0
        0x00002da0:    9100        ..      STR      r1,[sp,#0]
        0x00002da2:    481f        .H      LDR      r0,[pc,#124] ; [0x2e20] = 0x40019108
        0x00002da4:    3050        P0      ADDS     r0,r0,#0x50
        0x00002da6:    9900        ..      LDR      r1,[sp,#0]
        0x00002da8:    6001        .`      STR      r1,[r0,#0]
        0x00002daa:    9801        ..      LDR      r0,[sp,#4]
        0x00002dac:    f4007000    ...p    AND      r0,r0,#0x200
        0x00002db0:    b150        P.      CBZ      r0,0x2dc8 ; USBD20_IRQHandler + 964
        0x00002db2:    481b        .H      LDR      r0,[pc,#108] ; [0x2e20] = 0x40019108
        0x00002db4:    3078        x0      ADDS     r0,r0,#0x78
        0x00002db6:    6801        .h      LDR      r1,[r0,#0]
        0x00002db8:    1d00        ..      ADDS     r0,r0,#4
        0x00002dba:    6800        .h      LDR      r0,[r0,#0]
        0x00002dbc:    4001        .@      ANDS     r1,r1,r0
        0x00002dbe:    9100        ..      STR      r1,[sp,#0]
        0x00002dc0:    4817        .H      LDR      r0,[pc,#92] ; [0x2e20] = 0x40019108
        0x00002dc2:    3078        x0      ADDS     r0,r0,#0x78
        0x00002dc4:    9900        ..      LDR      r1,[sp,#0]
        0x00002dc6:    6001        .`      STR      r1,[r0,#0]
        0x00002dc8:    9801        ..      LDR      r0,[sp,#4]
        0x00002dca:    f4006080    ...`    AND      r0,r0,#0x400
        0x00002dce:    b150        P.      CBZ      r0,0x2de6 ; USBD20_IRQHandler + 994
        0x00002dd0:    4813        .H      LDR      r0,[pc,#76] ; [0x2e20] = 0x40019108
        0x00002dd2:    30a0        .0      ADDS     r0,r0,#0xa0
        0x00002dd4:    6801        .h      LDR      r1,[r0,#0]
        0x00002dd6:    1d00        ..      ADDS     r0,r0,#4
        0x00002dd8:    6800        .h      LDR      r0,[r0,#0]
        0x00002dda:    4001        .@      ANDS     r1,r1,r0
        0x00002ddc:    9100        ..      STR      r1,[sp,#0]
        0x00002dde:    4810        .H      LDR      r0,[pc,#64] ; [0x2e20] = 0x40019108
        0x00002de0:    30a0        .0      ADDS     r0,r0,#0xa0
        0x00002de2:    9900        ..      LDR      r1,[sp,#0]
        0x00002de4:    6001        .`      STR      r1,[r0,#0]
        0x00002de6:    9801        ..      LDR      r0,[sp,#4]
        0x00002de8:    f4006000    ...`    AND      r0,r0,#0x800
        0x00002dec:    b1e8        ..      CBZ      r0,0x2e2a ; USBD20_IRQHandler + 1062
        0x00002dee:    480c        .H      LDR      r0,[pc,#48] ; [0x2e20] = 0x40019108
        0x00002df0:    30c8        .0      ADDS     r0,r0,#0xc8
        0x00002df2:    6801        .h      LDR      r1,[r0,#0]
        0x00002df4:    1d00        ..      ADDS     r0,r0,#4
        0x00002df6:    6800        .h      LDR      r0,[r0,#0]
        0x00002df8:    4001        .@      ANDS     r1,r1,r0
        0x00002dfa:    9100        ..      STR      r1,[sp,#0]
        0x00002dfc:    4808        .H      LDR      r0,[pc,#32] ; [0x2e20] = 0x40019108
        0x00002dfe:    e011        ..      B        0x2e24 ; USBD20_IRQHandler + 1056
    $d
        0x00002e00:    40019000    ...@    DCD    1073844224
        0x00002e04:    20000172    r..     DCD    536871282
        0x00002e08:    20000170    p..     DCD    536871280
        0x00002e0c:    20000240    @..     DCD    536871488
        0x00002e10:    2000023f    ?..     DCD    536871487
        0x00002e14:    40019704    ...@    DCD    1073846020
        0x00002e18:    20000244    D..     DCD    536871492
        0x00002e1c:    2000023d    =..     DCD    536871485
        0x00002e20:    40019108    ...@    DCD    1073844488
    $t
        0x00002e24:    30c8        .0      ADDS     r0,r0,#0xc8
        0x00002e26:    9900        ..      LDR      r1,[sp,#0]
        0x00002e28:    6001        .`      STR      r1,[r0,#0]
        0x00002e2a:    9801        ..      LDR      r0,[sp,#4]
        0x00002e2c:    f4005080    ...P    AND      r0,r0,#0x1000
        0x00002e30:    b140        @.      CBZ      r0,0x2e44 ; USBD20_IRQHandler + 1088
        0x00002e32:    480d        .H      LDR      r0,[pc,#52] ; [0x2e68] = 0x400191f8
        0x00002e34:    6801        .h      LDR      r1,[r0,#0]
        0x00002e36:    1d00        ..      ADDS     r0,r0,#4
        0x00002e38:    6800        .h      LDR      r0,[r0,#0]
        0x00002e3a:    4001        .@      ANDS     r1,r1,r0
        0x00002e3c:    9100        ..      STR      r1,[sp,#0]
        0x00002e3e:    480a        .H      LDR      r0,[pc,#40] ; [0x2e68] = 0x400191f8
        0x00002e40:    9900        ..      LDR      r1,[sp,#0]
        0x00002e42:    6001        .`      STR      r1,[r0,#0]
        0x00002e44:    9801        ..      LDR      r0,[sp,#4]
        0x00002e46:    f4005000    ...P    AND      r0,r0,#0x2000
        0x00002e4a:    b150        P.      CBZ      r0,0x2e62 ; USBD20_IRQHandler + 1118
        0x00002e4c:    4806        .H      LDR      r0,[pc,#24] ; [0x2e68] = 0x400191f8
        0x00002e4e:    3028        (0      ADDS     r0,r0,#0x28
        0x00002e50:    6801        .h      LDR      r1,[r0,#0]
        0x00002e52:    1d00        ..      ADDS     r0,r0,#4
        0x00002e54:    6800        .h      LDR      r0,[r0,#0]
        0x00002e56:    4001        .@      ANDS     r1,r1,r0
        0x00002e58:    9100        ..      STR      r1,[sp,#0]
        0x00002e5a:    4803        .H      LDR      r0,[pc,#12] ; [0x2e68] = 0x400191f8
        0x00002e5c:    3028        (0      ADDS     r0,r0,#0x28
        0x00002e5e:    9900        ..      LDR      r1,[sp,#0]
        0x00002e60:    6001        .`      STR      r1,[r0,#0]
        0x00002e62:    bf00        ..      NOP      
        0x00002e64:    e5d7        ..      B        0x2a16 ; USBD20_IRQHandler + 18
    $d
        0x00002e66:    0000        ..      DCW    0
        0x00002e68:    400191f8    ...@    DCD    1073844728
    $t
    i._is_digit
    _is_digit
        0x00002e6c:    3830        08      SUBS     r0,r0,#0x30
        0x00002e6e:    280a        .(      CMP      r0,#0xa
        0x00002e70:    d201        ..      BCS      0x2e76 ; _is_digit + 10
        0x00002e72:    2001        .       MOVS     r0,#1
        0x00002e74:    4770        pG      BX       lr
        0x00002e76:    2000        .       MOVS     r0,#0
        0x00002e78:    4770        pG      BX       lr
        0x00002e7a:    0000        ..      MOVS     r0,r0
    i._sys_exit
    _sys_exit
        0x00002e7c:    2200        ."      MOVS     r2,#0
        0x00002e7e:    4906        .I      LDR      r1,[pc,#24] ; [0x2e98] = 0x20026
        0x00002e80:    2018        .       MOVS     r0,#0x18
        0x00002e82:    f7fdfa2d    ..-.    BL       SH_DoCommand ; 0x2e0
        0x00002e86:    b920         .      CBNZ     r0,0x2e92 ; _sys_exit + 22
        0x00002e88:    bf00        ..      NOP      
        0x00002e8a:    f7fefd67    ..g.    BL       IsDebugFifoEmpty ; 0x195c
        0x00002e8e:    2800        .(      CMP      r0,#0
        0x00002e90:    d0fb        ..      BEQ      0x2e8a ; _sys_exit + 14
        0x00002e92:    bf00        ..      NOP      
        0x00002e94:    e7fe        ..      B        0x2e94 ; _sys_exit + 24
    $d
        0x00002e96:    0000        ..      DCW    0
        0x00002e98:    00020026    &...    DCD    131110
    $t
    i.delay_ms
    delay_ms
        0x00002e9c:    2100        .!      MOVS     r1,#0
        0x00002e9e:    e008        ..      B        0x2eb2 ; delay_ms + 22
        0x00002ea0:    2200        ."      MOVS     r2,#0
        0x00002ea2:    e001        ..      B        0x2ea8 ; delay_ms + 12
        0x00002ea4:    bf00        ..      NOP      
        0x00002ea6:    1c52        R.      ADDS     r2,r2,#1
        0x00002ea8:    f2475330    G.0S    MOV      r3,#0x7530
        0x00002eac:    429a        .B      CMP      r2,r3
        0x00002eae:    dbf9        ..      BLT      0x2ea4 ; delay_ms + 8
        0x00002eb0:    1c49        I.      ADDS     r1,r1,#1
        0x00002eb2:    4281        .B      CMP      r1,r0
        0x00002eb4:    dbf4        ..      BLT      0x2ea0 ; delay_ms + 4
        0x00002eb6:    4770        pG      BX       lr
    i.format
    format
        0x00002eb8:    b530        0.      PUSH     {r4,r5,lr}
        0x00002eba:    f5ad7d01    ...}    SUB      sp,sp,#0x204
        0x00002ebe:    2400        .$      MOVS     r4,#0
        0x00002ec0:    4d0d        .M      LDR      r5,[pc,#52] ; [0x2ef8] = 0x20002300
        0x00002ec2:    152a        *.      ASRS     r2,r5,#20
        0x00002ec4:    490d        .I      LDR      r1,[pc,#52] ; [0x2efc] = 0x33cc
        0x00002ec6:    a801        ..      ADD      r0,sp,#4
        0x00002ec8:    f7fdfb15    ....    BL       __aeabi_memcpy4 ; 0x4f6
        0x00002ecc:    bf00        ..      NOP      
        0x00002ece:    e003        ..      B        0x2ed8 ; format + 32
        0x00002ed0:    a801        ..      ADD      r0,sp,#4
        0x00002ed2:    5d00        .]      LDRB     r0,[r0,r4]
        0x00002ed4:    5528        (U      STRB     r0,[r5,r4]
        0x00002ed6:    1c64        d.      ADDS     r4,r4,#1
        0x00002ed8:    f5b47f00    ....    CMP      r4,#0x200
        0x00002edc:    dbf8        ..      BLT      0x2ed0 ; format + 24
        0x00002ede:    f44f7400    O..t    MOV      r4,#0x200
        0x00002ee2:    e002        ..      B        0x2eea ; format + 50
        0x00002ee4:    2000        .       MOVS     r0,#0
        0x00002ee6:    5528        (U      STRB     r0,[r5,r4]
        0x00002ee8:    1c64        d.      ADDS     r4,r4,#1
        0x00002eea:    f2475030    G.0P    MOV      r0,#0x7530
        0x00002eee:    4284        .B      CMP      r4,r0
        0x00002ef0:    dbf8        ..      BLT      0x2ee4 ; format + 44
        0x00002ef2:    f50d7d01    ...}    ADD      sp,sp,#0x204
        0x00002ef6:    bd30        0.      POP      {r4,r5,pc}
    $d
        0x00002ef8:    20002300    .#.     DCD    536879872
        0x00002efc:    000033cc    .3..    DCD    13260
    $t
    i.format1
    format1
        0x00002f00:    b530        0.      PUSH     {r4,r5,lr}
        0x00002f02:    f5ad7d01    ...}    SUB      sp,sp,#0x204
        0x00002f06:    2400        .$      MOVS     r4,#0
        0x00002f08:    4d0a        .M      LDR      r5,[pc,#40] ; [0x2f34] = 0x20002f00
        0x00002f0a:    f44f71f0    O..q    MOV      r1,#0x1e0
        0x00002f0e:    a809        ..      ADD      r0,sp,#0x24
        0x00002f10:    f7fdfb45    ..E.    BL       __aeabi_memclr4 ; 0x59e
        0x00002f14:    2220         "      MOVS     r2,#0x20
        0x00002f16:    4908        .I      LDR      r1,[pc,#32] ; [0x2f38] = 0x335c
        0x00002f18:    a801        ..      ADD      r0,sp,#4
        0x00002f1a:    f7fdfaec    ....    BL       __aeabi_memcpy4 ; 0x4f6
        0x00002f1e:    bf00        ..      NOP      
        0x00002f20:    e003        ..      B        0x2f2a ; format1 + 42
        0x00002f22:    a801        ..      ADD      r0,sp,#4
        0x00002f24:    5d00        .]      LDRB     r0,[r0,r4]
        0x00002f26:    5528        (U      STRB     r0,[r5,r4]
        0x00002f28:    1c64        d.      ADDS     r4,r4,#1
        0x00002f2a:    2c20         ,      CMP      r4,#0x20
        0x00002f2c:    dbf9        ..      BLT      0x2f22 ; format1 + 34
        0x00002f2e:    f50d7d01    ...}    ADD      sp,sp,#0x204
        0x00002f32:    bd30        0.      POP      {r4,r5,pc}
    $d
        0x00002f34:    20002f00    ./.     DCD    536882944
        0x00002f38:    0000335c    \3..    DCD    13148
    $t
    i.format2
    format2
        0x00002f3c:    b530        0.      PUSH     {r4,r5,lr}
        0x00002f3e:    f5ad7d01    ...}    SUB      sp,sp,#0x204
        0x00002f42:    2400        .$      MOVS     r4,#0
        0x00002f44:    4d0a        .M      LDR      r5,[pc,#40] ; [0x2f70] = 0x20003100
        0x00002f46:    f44f71f0    O..q    MOV      r1,#0x1e0
        0x00002f4a:    a809        ..      ADD      r0,sp,#0x24
        0x00002f4c:    f7fdfb27    ..'.    BL       __aeabi_memclr4 ; 0x59e
        0x00002f50:    2220         "      MOVS     r2,#0x20
        0x00002f52:    4908        .I      LDR      r1,[pc,#32] ; [0x2f74] = 0x337c
        0x00002f54:    a801        ..      ADD      r0,sp,#4
        0x00002f56:    f7fdface    ....    BL       __aeabi_memcpy4 ; 0x4f6
        0x00002f5a:    bf00        ..      NOP      
        0x00002f5c:    e003        ..      B        0x2f66 ; format2 + 42
        0x00002f5e:    a801        ..      ADD      r0,sp,#4
        0x00002f60:    5d00        .]      LDRB     r0,[r0,r4]
        0x00002f62:    5528        (U      STRB     r0,[r5,r4]
        0x00002f64:    1c64        d.      ADDS     r4,r4,#1
        0x00002f66:    2c20         ,      CMP      r4,#0x20
        0x00002f68:    dbf9        ..      BLT      0x2f5e ; format2 + 34
        0x00002f6a:    f50d7d01    ...}    ADD      sp,sp,#0x204
        0x00002f6e:    bd30        0.      POP      {r4,r5,pc}
    $d
        0x00002f70:    20003100    .1.     DCD    536883456
        0x00002f74:    0000337c    |3..    DCD    13180
    $t
    i.format3
    format3
        0x00002f78:    b530        0.      PUSH     {r4,r5,lr}
        0x00002f7a:    f5ad7d01    ...}    SUB      sp,sp,#0x204
        0x00002f7e:    2400        .$      MOVS     r4,#0
        0x00002f80:    4d0a        .M      LDR      r5,[pc,#40] ; [0x2fac] = 0x20003300
        0x00002f82:    f44f71f0    O..q    MOV      r1,#0x1e0
        0x00002f86:    a809        ..      ADD      r0,sp,#0x24
        0x00002f88:    f7fdfb09    ....    BL       __aeabi_memclr4 ; 0x59e
        0x00002f8c:    2220         "      MOVS     r2,#0x20
        0x00002f8e:    4908        .I      LDR      r1,[pc,#32] ; [0x2fb0] = 0x339c
        0x00002f90:    a801        ..      ADD      r0,sp,#4
        0x00002f92:    f7fdfab0    ....    BL       __aeabi_memcpy4 ; 0x4f6
        0x00002f96:    bf00        ..      NOP      
        0x00002f98:    e003        ..      B        0x2fa2 ; format3 + 42
        0x00002f9a:    a801        ..      ADD      r0,sp,#4
        0x00002f9c:    5d00        .]      LDRB     r0,[r0,r4]
        0x00002f9e:    5528        (U      STRB     r0,[r5,r4]
        0x00002fa0:    1c64        d.      ADDS     r4,r4,#1
        0x00002fa2:    2c20         ,      CMP      r4,#0x20
        0x00002fa4:    dbf9        ..      BLT      0x2f9a ; format3 + 34
        0x00002fa6:    f50d7d01    ...}    ADD      sp,sp,#0x204
        0x00002faa:    bd30        0.      POP      {r4,r5,pc}
    $d
        0x00002fac:    20003300    .3.     DCD    536883968
        0x00002fb0:    0000339c    .3..    DCD    13212
    $t
    i.format4
    format4
        0x00002fb4:    b530        0.      PUSH     {r4,r5,lr}
        0x00002fb6:    f5ad7d01    ...}    SUB      sp,sp,#0x204
        0x00002fba:    2400        .$      MOVS     r4,#0
        0x00002fbc:    4d0b        .M      LDR      r5,[pc,#44] ; [0x2fec] = 0x20007300
        0x00002fbe:    f44f71f8    O..q    MOV      r1,#0x1f0
        0x00002fc2:    a805        ..      ADD      r0,sp,#0x14
        0x00002fc4:    f7fdfaeb    ....    BL       __aeabi_memclr4 ; 0x59e
        0x00002fc8:    4b09        .K      LDR      r3,[pc,#36] ; [0x2ff0] = 0x33bc
        0x00002fca:    cb0f        ..      LDM      r3,{r0-r3}
        0x00002fcc:    e9cd2303    ...#    STRD     r2,r3,[sp,#0xc]
        0x00002fd0:    e9cd0101    ....    STRD     r0,r1,[sp,#4]
        0x00002fd4:    bf00        ..      NOP      
        0x00002fd6:    e002        ..      B        0x2fde ; format4 + 42
        0x00002fd8:    20aa        .       MOVS     r0,#0xaa
        0x00002fda:    5528        (U      STRB     r0,[r5,r4]
        0x00002fdc:    1c64        d.      ADDS     r4,r4,#1
        0x00002fde:    f5b45f00    ..._    CMP      r4,#0x2000
        0x00002fe2:    dbf9        ..      BLT      0x2fd8 ; format4 + 36
        0x00002fe4:    f50d7d01    ...}    ADD      sp,sp,#0x204
        0x00002fe8:    bd30        0.      POP      {r4,r5,pc}
    $d
        0x00002fea:    0000        ..      DCW    0
        0x00002fec:    20007300    .s.     DCD    536900352
        0x00002ff0:    000033bc    .3..    DCD    13244
    $t
    i.fputc
    fputc
        0x00002ff4:    b570        p.      PUSH     {r4-r6,lr}
        0x00002ff6:    4604        .F      MOV      r4,r0
        0x00002ff8:    460d        .F      MOV      r5,r1
        0x00002ffa:    4620         F      MOV      r0,r4
        0x00002ffc:    f7fffbbe    ....    BL       SendChar ; 0x277c
        0x00003000:    4620         F      MOV      r0,r4
        0x00003002:    bd70        p.      POP      {r4-r6,pc}
    i.get_be32
    get_be32
        0x00003004:    4601        .F      MOV      r1,r0
        0x00003006:    7808        .x      LDRB     r0,[r1,#0]
        0x00003008:    0600        ..      LSLS     r0,r0,#24
        0x0000300a:    784a        Jx      LDRB     r2,[r1,#1]
        0x0000300c:    ea404002    @..@    ORR      r0,r0,r2,LSL #16
        0x00003010:    788a        .x      LDRB     r2,[r1,#2]
        0x00003012:    ea402002    @..     ORR      r0,r0,r2,LSL #8
        0x00003016:    78ca        .x      LDRB     r2,[r1,#3]
        0x00003018:    4310        .C      ORRS     r0,r0,r2
        0x0000301a:    4770        pG      BX       lr
    i.main
    main
        0x0000301c:    b508        ..      PUSH     {r3,lr}
        0x0000301e:    f7fffb09    ....    BL       SYS_Init ; 0x2634
        0x00003022:    bf00        ..      NOP      
        0x00003024:    2000        .       MOVS     r0,#0
        0x00003026:    493c        <I      LDR      r1,[pc,#240] ; [0x3118] = 0x40000100
        0x00003028:    6008        .`      STR      r0,[r1,#0]
        0x0000302a:    bf00        ..      NOP      
        0x0000302c:    f44f31e1    O..1    MOV      r1,#0x1c200
        0x00003030:    483a        :H      LDR      r0,[pc,#232] ; [0x311c] = 0x40070000
        0x00003032:    f7fffc47    ..G.    BL       UART_Open ; 0x28c4
        0x00003036:    f7fdfe7d    ..}.    BL       EPWM0_Init ; 0xd34
        0x0000303a:    4939        9I      LDR      r1,[pc,#228] ; [0x3120] = 0x186a0
        0x0000303c:    4839        9H      LDR      r0,[pc,#228] ; [0x3124] = 0x40080000
        0x0000303e:    f7fefc0b    ....    BL       I2C_Open ; 0x1858
        0x00003042:    a039        9.      ADR      r0,{pc}+0xe6 ; 0x3128
        0x00003044:    f7fdf998    ....    BL       __2printf ; 0x378
        0x00003048:    2200        ."      MOVS     r2,#0
        0x0000304a:    493e        >I      LDR      r1,[pc,#248] ; [0x3144] = 0x1b29
        0x0000304c:    483e        >H      LDR      r0,[pc,#248] ; [0x3148] = 0x20000140
        0x0000304e:    f7fef927    ..'.    BL       HSUSBD_Open ; 0x12a0
        0x00003052:    f7fefd9f    ....    BL       MSC_Init ; 0x1b94
        0x00003056:    f7fff969    ..i.    BL       PDMA_Init ; 0x232c
        0x0000305a:    2041        A       MOVS     r0,#0x41
        0x0000305c:    f7fff8fe    ....    BL       NVIC_EnableIRQ ; 0x225c
        0x00003060:    2100        .!      MOVS     r1,#0
        0x00003062:    483a        :H      LDR      r0,[pc,#232] ; [0x314c] = 0x40043000
        0x00003064:    f7fdfe54    ..T.    BL       EADC_Open ; 0xd10
        0x00003068:    e007        ..      B        0x307a ; main + 94
        0x0000306a:    4839        9H      LDR      r0,[pc,#228] ; [0x3150] = 0x40019704
        0x0000306c:    6800        .h      LDR      r0,[r0,#0]
        0x0000306e:    f0004000    ...@    AND      r0,r0,#0x80000000
        0x00003072:    b110        ..      CBZ      r0,0x307a ; main + 94
        0x00003074:    f7fefaf6    ....    BL       HSUSBD_Start ; 0x1664
        0x00003078:    e000        ..      B        0x307c ; main + 96
        0x0000307a:    e7f6        ..      B        0x306a ; main + 78
        0x0000307c:    bf00        ..      NOP      
        0x0000307e:    f7ffff1b    ....    BL       format ; 0x2eb8
        0x00003082:    f7ffff3d    ..=.    BL       format1 ; 0x2f00
        0x00003086:    f7ffff59    ..Y.    BL       format2 ; 0x2f3c
        0x0000308a:    f7ffff75    ..u.    BL       format3 ; 0x2f78
        0x0000308e:    f7ffff91    ....    BL       format4 ; 0x2fb4
        0x00003092:    a030        0.      ADR      r0,{pc}+0xc2 ; 0x3154
        0x00003094:    f7fdf970    ..p.    BL       __2printf ; 0x378
        0x00003098:    203f        ?       MOVS     r0,#0x3f
        0x0000309a:    f88d0000    ....    STRB     r0,[sp,#0]
        0x0000309e:    2047        G       MOVS     r0,#0x47
        0x000030a0:    f88d0001    ....    STRB     r0,[sp,#1]
        0x000030a4:    2000        .       MOVS     r0,#0
        0x000030a6:    f88d0002    ....    STRB     r0,[sp,#2]
        0x000030aa:    2303        .#      MOVS     r3,#3
        0x000030ac:    466a        jF      MOV      r2,sp
        0x000030ae:    2147        G!      MOVS     r1,#0x47
        0x000030b0:    481c        .H      LDR      r0,[pc,#112] ; [0x3124] = 0x40080000
        0x000030b2:    f7fefbf7    ....    BL       I2C_WriteMultiBytes ; 0x18a4
        0x000030b6:    a02d        -.      ADR      r0,{pc}+0xb6 ; 0x316c
        0x000030b8:    f7fdf95e    ..^.    BL       __2printf ; 0x378
        0x000030bc:    200a        .       MOVS     r0,#0xa
        0x000030be:    f7fffeed    ....    BL       delay_ms ; 0x2e9c
        0x000030c2:    f000f89b    ....    BL       set_first_line ; 0x31fc
        0x000030c6:    e026        &.      B        0x3116 ; main + 250
        0x000030c8:    482a        *H      LDR      r0,[pc,#168] ; [0x3174] = 0x2000003c
        0x000030ca:    6801        .h      LDR      r1,[r0,#0]
        0x000030cc:    482a        *H      LDR      r0,[pc,#168] ; [0x3178] = 0x20000040
        0x000030ce:    6800        .h      LDR      r0,[r0,#0]
        0x000030d0:    f5005000    ...P    ADD      r0,r0,#0x2000
        0x000030d4:    4281        .B      CMP      r1,r0
        0x000030d6:    d304        ..      BCC      0x30e2 ; main + 198
        0x000030d8:    4827        'H      LDR      r0,[pc,#156] ; [0x3178] = 0x20000040
        0x000030da:    6800        .h      LDR      r0,[r0,#0]
        0x000030dc:    3020         0      ADDS     r0,r0,#0x20
        0x000030de:    4925        %I      LDR      r1,[pc,#148] ; [0x3174] = 0x2000003c
        0x000030e0:    6008        .`      STR      r0,[r1,#0]
        0x000030e2:    4825        %H      LDR      r0,[pc,#148] ; [0x3178] = 0x20000040
        0x000030e4:    6800        .h      LDR      r0,[r0,#0]
        0x000030e6:    8804        ..      LDRH     r4,[r0,#0]
        0x000030e8:    4620         F      MOV      r0,r4
        0x000030ea:    f000f84b    ..K.    BL       set_EADC_channel ; 0x3184
        0x000030ee:    4823        #H      LDR      r0,[pc,#140] ; [0x317c] = 0x20000044
        0x000030f0:    8800        ..      LDRH     r0,[r0,#0]
        0x000030f2:    f64f71ff    O..q    MOV      r1,#0xffff
        0x000030f6:    4288        .B      CMP      r0,r1
        0x000030f8:    db03        ..      BLT      0x3102 ; main + 230
        0x000030fa:    2000        .       MOVS     r0,#0
        0x000030fc:    491f        .I      LDR      r1,[pc,#124] ; [0x317c] = 0x20000044
        0x000030fe:    8008        ..      STRH     r0,[r1,#0]
        0x00003100:    e004        ..      B        0x310c ; main + 240
        0x00003102:    481e        .H      LDR      r0,[pc,#120] ; [0x317c] = 0x20000044
        0x00003104:    8800        ..      LDRH     r0,[r0,#0]
        0x00003106:    1c40        @.      ADDS     r0,r0,#1
        0x00003108:    491c        .I      LDR      r1,[pc,#112] ; [0x317c] = 0x20000044
        0x0000310a:    8008        ..      STRH     r0,[r1,#0]
        0x0000310c:    481c        .H      LDR      r0,[pc,#112] ; [0x3180] = 0x20000172
        0x0000310e:    7800        .x      LDRB     r0,[r0,#0]
        0x00003110:    b108        ..      CBZ      r0,0x3116 ; main + 250
        0x00003112:    f7fefed7    ....    BL       MSC_ProcessCmd ; 0x1ec4
        0x00003116:    e7d7        ..      B        0x30c8 ; main + 172
    $d
        0x00003118:    40000100    ...@    DCD    1073742080
        0x0000311c:    40070000    ...@    DCD    1074200576
        0x00003120:    000186a0    ....    DCD    100000
        0x00003124:    40080000    ...@    DCD    1074266112
        0x00003128:    3038344d    M480    DCD    808989773
        0x0000312c:    55534820     HSU    DCD    1431521312
        0x00003130:    4d204253    SB M    DCD    1293959763
        0x00003134:    20737361    ass     DCD    544437089
        0x00003138:    726f7453    Stor    DCD    1919906899
        0x0000313c:    0a656761    age.    DCD    174417761
        0x00003140:    00000000    ....    DCD    0
        0x00003144:    00001b29    )...    DCD    6953
        0x00003148:    20000140    @..     DCD    536871232
        0x0000314c:    40043000    .0.@    DCD    1074016256
        0x00003150:    40019704    ...@    DCD    1073846020
        0x00003154:    7373616d    mass    DCD    1936941421
        0x00003158:    6f747320     sto    DCD    1869902624
        0x0000315c:    65676172    rage    DCD    1701273970
        0x00003160:    696e6920     ini    DCD    1768843552
        0x00003164:    6b6f2074    t ok    DCD    1802444916
        0x00003168:    0000000a    ....    DCD    10
        0x0000316c:    20433249    I2C     DCD    541274697
        0x00003170:    000a6b6f    ok..    DCD    682863
        0x00003174:    2000003c    <..     DCD    536870972
        0x00003178:    20000040    @..     DCD    536870976
        0x0000317c:    20000044    D..     DCD    536870980
        0x00003180:    20000172    r..     DCD    536871282
    $t
    i.set_EADC_channel
    set_EADC_channel
        0x00003184:    b570        p.      PUSH     {r4-r6,lr}
        0x00003186:    4605        .F      MOV      r5,r0
        0x00003188:    481a        .H      LDR      r0,[pc,#104] ; [0x31f4] = 0x20000044
        0x0000318a:    8800        ..      LDRH     r0,[r0,#0]
        0x0000318c:    491a        .I      LDR      r1,[pc,#104] ; [0x31f8] = 0x2000003c
        0x0000318e:    6809        .h      LDR      r1,[r1,#0]
        0x00003190:    8008        ..      STRH     r0,[r1,#0]
        0x00003192:    4819        .H      LDR      r0,[pc,#100] ; [0x31f8] = 0x2000003c
        0x00003194:    6800        .h      LDR      r0,[r0,#0]
        0x00003196:    1c80        ..      ADDS     r0,r0,#2
        0x00003198:    4917        .I      LDR      r1,[pc,#92] ; [0x31f8] = 0x2000003c
        0x0000319a:    6008        .`      STR      r0,[r1,#0]
        0x0000319c:    2409        .$      MOVS     r4,#9
        0x0000319e:    e010        ..      B        0x31c2 ; set_EADC_channel + 62
        0x000031a0:    fa45f004    E...    ASR      r0,r5,r4
        0x000031a4:    f0000001    ....    AND      r0,r0,#1
        0x000031a8:    b120         .      CBZ      r0,0x31b4 ; set_EADC_channel + 48
        0x000031aa:    f1a40008    ....    SUB      r0,r4,#8
        0x000031ae:    f7fdfd7f    ....    BL       EADC_FunctionTest ; 0xcb0
        0x000031b2:    e004        ..      B        0x31be ; set_EADC_channel + 58
        0x000031b4:    4810        .H      LDR      r0,[pc,#64] ; [0x31f8] = 0x2000003c
        0x000031b6:    6800        .h      LDR      r0,[r0,#0]
        0x000031b8:    1c80        ..      ADDS     r0,r0,#2
        0x000031ba:    490f        .I      LDR      r1,[pc,#60] ; [0x31f8] = 0x2000003c
        0x000031bc:    6008        .`      STR      r0,[r1,#0]
        0x000031be:    1c60        `.      ADDS     r0,r4,#1
        0x000031c0:    b244        D.      SXTB     r4,r0
        0x000031c2:    2c10        .,      CMP      r4,#0x10
        0x000031c4:    dbec        ..      BLT      0x31a0 ; set_EADC_channel + 28
        0x000031c6:    2400        .$      MOVS     r4,#0
        0x000031c8:    e010        ..      B        0x31ec ; set_EADC_channel + 104
        0x000031ca:    fa45f004    E...    ASR      r0,r5,r4
        0x000031ce:    f0000001    ....    AND      r0,r0,#1
        0x000031d2:    b120         .      CBZ      r0,0x31de ; set_EADC_channel + 90
        0x000031d4:    f1040008    ....    ADD      r0,r4,#8
        0x000031d8:    f7fdfd6a    ..j.    BL       EADC_FunctionTest ; 0xcb0
        0x000031dc:    e004        ..      B        0x31e8 ; set_EADC_channel + 100
        0x000031de:    4806        .H      LDR      r0,[pc,#24] ; [0x31f8] = 0x2000003c
        0x000031e0:    6800        .h      LDR      r0,[r0,#0]
        0x000031e2:    1c80        ..      ADDS     r0,r0,#2
        0x000031e4:    4904        .I      LDR      r1,[pc,#16] ; [0x31f8] = 0x2000003c
        0x000031e6:    6008        .`      STR      r0,[r1,#0]
        0x000031e8:    1c60        `.      ADDS     r0,r4,#1
        0x000031ea:    b244        D.      SXTB     r4,r0
        0x000031ec:    2c08        .,      CMP      r4,#8
        0x000031ee:    dbec        ..      BLT      0x31ca ; set_EADC_channel + 70
        0x000031f0:    bd70        p.      POP      {r4-r6,pc}
    $d
        0x000031f2:    0000        ..      DCW    0
        0x000031f4:    20000044    D..     DCD    536870980
        0x000031f8:    2000003c    <..     DCD    536870972
    $t
    i.set_first_line
    set_first_line
        0x000031fc:    b51c        ..      PUSH     {r2-r4,lr}
        0x000031fe:    20ff        .       MOVS     r0,#0xff
        0x00003200:    4923        #I      LDR      r1,[pc,#140] ; [0x3290] = 0x20000040
        0x00003202:    6809        .h      LDR      r1,[r1,#0]
        0x00003204:    7008        .p      STRB     r0,[r1,#0]
        0x00003206:    4922        "I      LDR      r1,[pc,#136] ; [0x3290] = 0x20000040
        0x00003208:    6809        .h      LDR      r1,[r1,#0]
        0x0000320a:    7048        Hp      STRB     r0,[r1,#1]
        0x0000320c:    2301        .#      MOVS     r3,#1
        0x0000320e:    031a        ..      LSLS     r2,r3,#12
        0x00003210:    2102        .!      MOVS     r1,#2
        0x00003212:    4820         H      LDR      r0,[pc,#128] ; [0x3294] = 0x40008000
        0x00003214:    f7fff90c    ....    BL       PDMA_SetTransferCnt ; 0x2430
        0x00003218:    2100        .!      MOVS     r1,#0
        0x0000321a:    481d        .H      LDR      r0,[pc,#116] ; [0x3290] = 0x20000040
        0x0000321c:    6800        .h      LDR      r0,[r0,#0]
        0x0000321e:    3010        .0      ADDS     r0,r0,#0x10
        0x00003220:    e9cd0100    ....    STRD     r0,r1,[sp,#0]
        0x00003224:    481c        .H      LDR      r0,[pc,#112] ; [0x3298] = 0x20000038
        0x00003226:    6800        .h      LDR      r0,[r0,#0]
        0x00003228:    491c        .I      LDR      r1,[pc,#112] ; [0x329c] = 0x40043000
        0x0000322a:    eb010280    ....    ADD      r2,r1,r0,LSL #2
        0x0000322e:    f44f7340    O.@s    MOV      r3,#0x300
        0x00003232:    2102        .!      MOVS     r1,#2
        0x00003234:    4817        .H      LDR      r0,[pc,#92] ; [0x3294] = 0x40008000
        0x00003236:    f7fff8e0    ....    BL       PDMA_SetTransferAddr ; 0x23fa
        0x0000323a:    2000        .       MOVS     r0,#0
        0x0000323c:    4603        .F      MOV      r3,r0
        0x0000323e:    2232        2"      MOVS     r2,#0x32
        0x00003240:    2102        .!      MOVS     r1,#2
        0x00003242:    9000        ..      STR      r0,[sp,#0]
        0x00003244:    4813        .H      LDR      r0,[pc,#76] ; [0x3294] = 0x40008000
        0x00003246:    f7fff909    ....    BL       PDMA_SetTransferMode ; 0x245c
        0x0000324a:    2300        .#      MOVS     r3,#0
        0x0000324c:    f44f2200    O.."    MOV      r2,#0x80000
        0x00003250:    4811        .H      LDR      r0,[pc,#68] ; [0x3298] = 0x20000038
        0x00003252:    6801        .h      LDR      r1,[r0,#0]
        0x00003254:    4811        .H      LDR      r0,[pc,#68] ; [0x329c] = 0x40043000
        0x00003256:    f7fdfd13    ....    BL       EADC_ConfigSampleModule ; 0xc80
        0x0000325a:    4810        .H      LDR      r0,[pc,#64] ; [0x329c] = 0x40043000
        0x0000325c:    6d00        .m      LDR      r0,[r0,#0x50]
        0x0000325e:    f4406000    @..`    ORR      r0,r0,#0x800
        0x00003262:    490e        .I      LDR      r1,[pc,#56] ; [0x329c] = 0x40043000
        0x00003264:    6508        .e      STR      r0,[r1,#0x50]
        0x00003266:    2101        .!      MOVS     r1,#1
        0x00003268:    480d        .H      LDR      r0,[pc,#52] ; [0x32a0] = 0x40058000
        0x0000326a:    f7fdfdfa    ....    BL       EPWM_Start ; 0xe62
        0x0000326e:    e005        ..      B        0x327c ; set_first_line + 128
        0x00003270:    bf00        ..      NOP      
        0x00003272:    480c        .H      LDR      r0,[pc,#48] ; [0x32a4] = 0x20000034
        0x00003274:    6800        .h      LDR      r0,[r0,#0]
        0x00003276:    2800        .(      CMP      r0,#0
        0x00003278:    d0fb        ..      BEQ      0x3272 ; set_first_line + 118
        0x0000327a:    e000        ..      B        0x327e ; set_first_line + 130
        0x0000327c:    e7f8        ..      B        0x3270 ; set_first_line + 116
        0x0000327e:    bf00        ..      NOP      
        0x00003280:    2000        .       MOVS     r0,#0
        0x00003282:    4908        .I      LDR      r1,[pc,#32] ; [0x32a4] = 0x20000034
        0x00003284:    6008        .`      STR      r0,[r1,#0]
        0x00003286:    2101        .!      MOVS     r1,#1
        0x00003288:    4805        .H      LDR      r0,[pc,#20] ; [0x32a0] = 0x40058000
        0x0000328a:    f7fdfde6    ....    BL       EPWM_ForceStop ; 0xe5a
        0x0000328e:    bd1c        ..      POP      {r2-r4,pc}
    $d
        0x00003290:    20000040    @..     DCD    536870976
        0x00003294:    40008000    ...@    DCD    1073774592
        0x00003298:    20000038    8..     DCD    536870968
        0x0000329c:    40043000    .0.@    DCD    1074016256
        0x000032a0:    40058000    ...@    DCD    1074102272
        0x000032a4:    20000034    4..     DCD    536870964
    $t
    i.stackDump
    stackDump
        0x000032a8:    b510        ..      PUSH     {r4,lr}
        0x000032aa:    4604        .F      MOV      r4,r0
        0x000032ac:    a010        ..      ADR      r0,{pc}+0x44 ; 0x32f0
        0x000032ae:    6821        !h      LDR      r1,[r4,#0]
        0x000032b0:    f7fdf862    ..b.    BL       __2printf ; 0x378
        0x000032b4:    a011        ..      ADR      r0,{pc}+0x48 ; 0x32fc
        0x000032b6:    6861        ah      LDR      r1,[r4,#4]
        0x000032b8:    f7fdf85e    ..^.    BL       __2printf ; 0x378
        0x000032bc:    a012        ..      ADR      r0,{pc}+0x4c ; 0x3308
        0x000032be:    68a1        .h      LDR      r1,[r4,#8]
        0x000032c0:    f7fdf85a    ..Z.    BL       __2printf ; 0x378
        0x000032c4:    a013        ..      ADR      r0,{pc}+0x50 ; 0x3314
        0x000032c6:    68e1        .h      LDR      r1,[r4,#0xc]
        0x000032c8:    f7fdf856    ..V.    BL       __2printf ; 0x378
        0x000032cc:    a014        ..      ADR      r0,{pc}+0x54 ; 0x3320
        0x000032ce:    6921        !i      LDR      r1,[r4,#0x10]
        0x000032d0:    f7fdf852    ..R.    BL       __2printf ; 0x378
        0x000032d4:    a015        ..      ADR      r0,{pc}+0x58 ; 0x332c
        0x000032d6:    6961        ai      LDR      r1,[r4,#0x14]
        0x000032d8:    f7fdf84e    ..N.    BL       __2printf ; 0x378
        0x000032dc:    a016        ..      ADR      r0,{pc}+0x5c ; 0x3338
        0x000032de:    69a1        .i      LDR      r1,[r4,#0x18]
        0x000032e0:    f7fdf84a    ..J.    BL       __2printf ; 0x378
        0x000032e4:    a017        ..      ADR      r0,{pc}+0x60 ; 0x3344
        0x000032e6:    69e1        .i      LDR      r1,[r4,#0x1c]
        0x000032e8:    f7fdf846    ..F.    BL       __2printf ; 0x378
        0x000032ec:    bd10        ..      POP      {r4,pc}
    $d
        0x000032ee:    0000        ..      DCW    0
        0x000032f0:    20203072    r0      DCD    538980466
        0x000032f4:    7830203d    = 0x    DCD    2016419901
        0x000032f8:    000a7825    %x..    DCD    686117
        0x000032fc:    20203172    r1      DCD    538980722
        0x00003300:    7830203d    = 0x    DCD    2016419901
        0x00003304:    000a7825    %x..    DCD    686117
        0x00003308:    20203272    r2      DCD    538980978
        0x0000330c:    7830203d    = 0x    DCD    2016419901
        0x00003310:    000a7825    %x..    DCD    686117
        0x00003314:    20203372    r3      DCD    538981234
        0x00003318:    7830203d    = 0x    DCD    2016419901
        0x0000331c:    000a7825    %x..    DCD    686117
        0x00003320:    20323172    r12     DCD    540160370
        0x00003324:    7830203d    = 0x    DCD    2016419901
        0x00003328:    000a7825    %x..    DCD    686117
        0x0000332c:    2020726c    lr      DCD    538997356
        0x00003330:    7830203d    = 0x    DCD    2016419901
        0x00003334:    000a7825    %x..    DCD    686117
        0x00003338:    20206370    pc      DCD    538993520
        0x0000333c:    7830203d    = 0x    DCD    2016419901
        0x00003340:    000a7825    %x..    DCD    686117
        0x00003344:    20727370    psr     DCD    544371568
        0x00003348:    7830203d    = 0x    DCD    2016419901
        0x0000334c:    000a7825    %x..    DCD    686117
    $t
    x$fpl$fpinit
    $v0
    _fp_init
        0x00003350:    f04f7040    O.@p    MOV      r0,#0x3000000
        0x00003354:    eee10a10    ....    VMSR     FPSCR,r0
    __fplib_config_fpu_vfp
    __fplib_config_pureend_doubles
        0x00003358:    4770        pG      BX       lr
        0x0000335a:    0000        ..      MOVS     r0,r0
    $d.realdata
    .constdata
        0x0000335c:    03fffff8    ....    DCD    67108856
        0x00003360:    60050040    @..`    DCD    1610940480
        0x00003364:    00800700    ....    DCD    8390400
        0x00003368:    0b00a009    ....    DCD    184590345
        0x0000336c:    e00d00c0    ....    DCD    3758948544
        0x00003370:    01000f00    ....    DCD    16781056
        0x00003374:    00fff011    ....    DCD    16773137
        0x00003378:    00000000    ....    DCD    0
        0x0000337c:    03fffff8    ....    DCD    67108856
        0x00003380:    60050040    @..`    DCD    1610940480
        0x00003384:    00800700    ....    DCD    8390400
        0x00003388:    0b00a009    ....    DCD    184590345
        0x0000338c:    e00d00c0    ....    DCD    3758948544
        0x00003390:    01000f00    ....    DCD    16781056
        0x00003394:    00fff011    ....    DCD    16773137
        0x00003398:    00000000    ....    DCD    0
        0x0000339c:    2054554f    OUT     DCD    542397775
        0x000033a0:    20202020            DCD    538976288
        0x000033a4:    204e4942    BIN     DCD    542001474
        0x000033a8:    6d005a18    .Z.m    DCD    1828739608
        0x000033ac:    4d1c4d1c    .M.M    DCD    1293700380
        0x000033b0:    6cf90000    ...l    DCD    1828257792
        0x000033b4:    00024d1c    .M..    DCD    150812
        0x000033b8:    00002000    . ..    DCD    8192
        0x000033bc:    111111aa    ....    DCD    286331306
        0x000033c0:    11111111    ....    DCD    286331153
        0x000033c4:    111111ff    ....    DCD    286331391
        0x000033c8:    ff111111    ....    DCD    4279308561
        0x000033cc:    4d903ceb    .<.M    DCD    1301298411
        0x000033d0:    534f4453    SDOS    DCD    1397703763
        0x000033d4:    00302e35    5.0.    DCD    3157557
        0x000033d8:    00060102    ....    DCD    393474
        0x000033dc:    40020002    ...@    DCD    1073872898
        0x000033e0:    0001f800    ....    DCD    129024
        0x000033e4:    00010001    ....    DCD    65537
        0x000033e8:    00000000    ....    DCD    0
        0x000033ec:    00000000    ....    DCD    0
        0x000033f0:    3e290080    ..)>    DCD    1042874496
        0x000033f4:    4e4a6c81    .lJN    DCD    1313500289
        0x000033f8:    414e204f    O NA    DCD    1095639119
        0x000033fc:    2020454d    ME      DCD    538985805
        0x00003400:    41462020      FA    DCD    1095114784
        0x00003404:    20323154    T12     DCD    540160340
        0x00003408:    c9332020      3.    DCD    3375570976
        0x0000340c:    f0bcd18e    ....    DCD    4038906254
        0x00003410:    b8d98e7b    {...    DCD    3101265531
        0x00003414:    c08e2000    . ..    DCD    3230539776
        0x00003418:    7c00bdfc    ...|    DCD    2080423420
        0x0000341c:    7d244e38    8N$}    DCD    2099531320
        0x00003420:    99c18b24    $...    DCD    2579598116
        0x00003424:    72013ce8    .<.r    DCD    1912683752
        0x00003428:    3aeb831c    ...:    DCD    988513052
        0x0000342c:    7c1ca166    f..|    DCD    2082251110
        0x00003430:    073b6626    &f;.    DCD    121333286
        0x00003434:    fc578a26    &.W.    DCD    4233595430
        0x00003438:    ca800675    u...    DCD    3397387893
        0x0000343c:    02568802    ..V.    DCD    39225346
        0x00003440:    7310c380    ...s    DCD    1930478464
        0x00003444:    8ac933eb    .3..    DCD    2328441835
        0x00003448:    f7981046    F...    DCD    4153937990
        0x0000344c:    46031666    f..F    DCD    1174607462
        0x00003450:    1e56131c    ..V.    DCD    508957468
        0x00003454:    130e4603    .F..    DCD    319702531
        0x00003458:    11768bd1    ..v.    DCD    292981713
        0x0000345c:    fc468960    `.F.    DCD    4232481120
        0x00003460:    b8fe5689    .V..    DCD    3103676041
        0x00003464:    e6f70020     ...    DCD    3874947104
        0x00003468:    030b5e8b    .^..    DCD    51076747
        0x0000346c:    f3f748c3    .H..    DCD    4093069507
        0x00003470:    11fc4601    .F..    DCD    301745665
        0x00003474:    bf61fe4e    N.a.    DCD    3210870350
        0x00003478:    e6e80000    ....    DCD    3873964032
        0x0000347c:    26397200    .r9&    DCD    641298944
        0x00003480:    17742d38    8-t.    DCD    393489720
        0x00003484:    be0bb160    `...    DCD    3188437344
        0x00003488:    a6f37da1    .}..    DCD    2800975265
        0x0000348c:    4e327461    at2N    DCD    1311929441
        0x00003490:    c7830974    t...    DCD    3347253620
        0x00003494:    72fb3b20     ;.r    DCD    1929067296
        0x00003498:    a0dcebe6    ....    DCD    2698832870
        0x0000349c:    7db47dfb    .}.}    DCD    2108980731
        0x000034a0:    98acf08b    ....    DCD    2561470603
        0x000034a4:    480c7440    @t.H    DCD    1208775744
        0x000034a8:    0eb41374    t...    DCD    246682484
        0x000034ac:    cd0007bb    ....    DCD    3439331259
        0x000034b0:    a0efeb10    ....    DCD    2700077840
        0x000034b4:    e6eb7dfd    .}..    DCD    3874192893
        0x000034b8:    eb7dfca0    ..}.    DCD    3950902432
        0x000034bc:    cd16cde1    ....    DCD    3440823777
        0x000034c0:    558b2619    .&.U    DCD    1435182617
        0x000034c4:    01b0521a    .R..    DCD    28332570
        0x000034c8:    e80000bb    ....    DCD    3892314299
        0x000034cc:    e872003b    ;.r.    DCD    3899785275
        0x000034d0:    24568a5b    [.V$    DCD    609651291
        0x000034d4:    8b7c0bbe    ..|.    DCD    2340162494
        0x000034d8:    f046c7fc    ..F.    DCD    4031170556
        0x000034dc:    46c77d3d    =}.F    DCD    1187478845
        0x000034e0:    8c7d29f4    .)}.    DCD    2357012980
        0x000034e4:    f24e89d9    ..N.    DCD    4065233369
        0x000034e8:    c6f64e89    .N..    DCD    3338030729
        0x000034ec:    cb7d9606    ..}.    DCD    3414005254
        0x000034f0:    000003ea    ....    DCD    1002
        0x000034f4:    c8b60f20     ...    DCD    3367374624
        0x000034f8:    f8468b66    f.F.    DCD    4165372774
        0x000034fc:    1c460366    f.F.    DCD    474350438
        0x00003500:    66d08b66    f..f    DCD    1724943206
        0x00003504:    eb10eac1    ....    DCD    3943754433
        0x00003508:    c8b60f5e    ^...    DCD    3367374686
        0x0000350c:    468a4a4a    JJ.F    DCD    1183468106
        0x00003510:    f7e4320d    .2..    DCD    4158927373
        0x00003514:    fc4603e2    ..F.    DCD    4232446946
        0x00003518:    ebfe5613    .V..    DCD    3959313939
        0x0000351c:    0650524a    JRP.    DCD    105927242
        0x00003520:    6a016a53    Sj.j    DCD    1778477651
        0x00003524:    468b9110    ...F    DCD    1183551760
        0x00003528:    33929618    ...3    DCD    865244696
        0x0000352c:    91f6f7d2    ....    DCD    2448881618
        0x00003530:    8742f6f7    ..B.    DCD    2269312759
        0x00003534:    1a76f7ca    ..v.    DCD    444004298
        0x00003538:    e88af28a    ....    DCD    3901420170
        0x0000353c:    0a02ccc0    ....    DCD    167955648
        0x00003540:    0201b8cc    ....    DCD    33667276
        0x00003544:    0e027e80    .~..    DCD    235044480
        0x00003548:    42b40475    u..B    DCD    1119093877
        0x0000354c:    568af48b    ...V    DCD    1451947147
        0x00003550:    6113cd24    $..a    DCD    1628687652
        0x00003554:    400b7261    ar.@    DCD    1074492001
        0x00003558:    03420175    u.B.    DCD    54657397
        0x0000355c:    75490b5e    ^.Iu    DCD    1967721310
        0x00003560:    41c3f806    ...A    DCD    1103362054
        0x00003564:    600000bb    ...`    DCD    1610612923
        0x00003568:    eb006a66    fj..    DCD    3942672998
        0x0000356c:    4f4f42b0    .BOO    DCD    1330594480
        0x00003570:    52474d54    TMGR    DCD    1380404564
        0x00003574:    20202020            DCD    538976288
        0x00003578:    65520a0d    ..Re    DCD    1699875341
        0x0000357c:    65766f6d    move    DCD    1702260589
        0x00003580:    73696420     dis    DCD    1936286752
        0x00003584:    6f20736b    ks o    DCD    1864397675
        0x00003588:    746f2072    r ot    DCD    1953439858
        0x0000358c:    20726568    her     DCD    544367976
        0x00003590:    6964656d    medi    DCD    1768187245
        0x00003594:    0dff2e61    a...    DCD    234827361
        0x00003598:    7369440a    .Dis    DCD    1936278538
        0x0000359c:    7265206b    k er    DCD    1919230059
        0x000035a0:    ff726f72    ror.    DCD    4285689714
        0x000035a4:    72500a0d    ..Pr    DCD    1917848077
        0x000035a8:    20737365    ess     DCD    544437093
        0x000035ac:    20796e61    any     DCD    544829025
        0x000035b0:    2079656b    key     DCD    544826731
        0x000035b4:    72206f74    to r    DCD    1914728308
        0x000035b8:    61747365    esta    DCD    1635021669
        0x000035bc:    0a0d7472    rt..    DCD    168653938
        0x000035c0:    00000000    ....    DCD    0
        0x000035c4:    ac000000    ....    DCD    2885681152
        0x000035c8:    aa55d8cb    ..U.    DCD    2857752779
    .constdata
        0x000035cc:    00b71b00    ....    DCD    12000000
        0x000035d0:    00000000    ....    DCD    0
        0x000035d4:    00008000    ....    DCD    32768
        0x000035d8:    00b71b00    ....    DCD    12000000
        0x000035dc:    00b71b00    ....    DCD    12000000
        0x000035e0:    00000000    ....    DCD    0
        0x000035e4:    00008000    ....    DCD    32768
        0x000035e8:    00b71b00    ....    DCD    12000000
        0x000035ec:    00b71b00    ....    DCD    12000000
        0x000035f0:    00000000    ....    DCD    0
        0x000035f4:    00008000    ....    DCD    32768
        0x000035f8:    00b71b00    ....    DCD    12000000
    .constdata
    uc_hextab
        0x000035fc:    33323130    0123    DCD    858927408
        0x00003600:    37363534    4567    DCD    926299444
        0x00003604:    42413938    89AB    DCD    1111570744
        0x00003608:    46454443    CDEF    DCD    1178944579
        0x0000360c:    00583040    @0X.    DCD    5779520
    lc_hextab
        0x00003610:    33323130    0123    DCD    858927408
        0x00003614:    37363534    4567    DCD    926299444
        0x00003618:    62613938    89ab    DCD    1650538808
        0x0000361c:    66656463    cdef    DCD    1717920867
        0x00003620:    00783040    @0x.    DCD    7876672
    Region$$Table$$Base
        0x00003624:    00003644    D6..    DCD    13892
        0x00003628:    20000000    ...     DCD    536870912
        0x0000362c:    00000248    H...    DCD    584
        0x00003630:    000001f4    ....    DCD    500
        0x00003634:    00003768    h7..    DCD    14184
        0x00003638:    20000248    H..     DCD    536871496
        0x0000363c:    000070f8    .p..    DCD    28920
        0x00003640:    00000250    P...    DCD    592
    Region$$Table$$Limit

** Section #2 'RW_IRAM1' (SHT_PROGBITS) [SHF_ALLOC + SHF_WRITE]
    Size   : 292 bytes (alignment 4)
    Address: 0x20000000


** Section #3 'RW_IRAM1' (SHT_NOBITS) [SHF_ALLOC + SHF_WRITE]
    Size   : 28920 bytes (alignment 8)
    Address: 0x20000248


** Section #4 '.debug_abbrev' (SHT_PROGBITS)
    Size   : 1476 bytes


** Section #5 '.debug_frame' (SHT_PROGBITS)
    Size   : 3632 bytes


** Section #6 '.debug_info' (SHT_PROGBITS)
    Size   : 52732 bytes


** Section #7 '.debug_line' (SHT_PROGBITS)
    Size   : 18092 bytes


** Section #8 '.debug_loc' (SHT_PROGBITS)
    Size   : 5568 bytes


** Section #9 '.debug_macinfo' (SHT_PROGBITS)
    Size   : 227476 bytes


** Section #10 '.debug_pubnames' (SHT_PROGBITS)
    Size   : 4555 bytes


** Section #11 '.symtab' (SHT_SYMTAB)
    Size   : 12336 bytes (alignment 4)
    String table #12 '.strtab'
    Last local symbol no. 454


** Section #12 '.strtab' (SHT_STRTAB)
    Size   : 10544 bytes


** Section #13 '.note' (SHT_NOTE)
    Size   : 28 bytes (alignment 4)


** Section #14 '.comment' (SHT_PROGBITS)
    Size   : 14132 bytes


** Section #15 '.shstrtab' (SHT_STRTAB)
    Size   : 156 bytes


