
========================================================================

** ELF Header Information

    File Name: .\Objects\t-win_EADC_HSUSBD.axf

    Machine class: ELFCLASS32 (32-bit)
    Data encoding: ELFDATA2LSB (Little endian)
    Header version: EV_CURRENT (Current version)
    Operating System ABI: none
    ABI Version: 0
    File Type: ET_EXEC (Executable) (2)
    Machine: EM_ARM (ARM)

    Image Entry point: 0x000001b9
    Flags: EF_ARM_HASENTRY + EF_ARM_ABI_FLOAT_HARD (0x05000402)

    ARM ELF revision: 5 (ABI version 2)

    Conforms to Hard float procedure-call standard

    Built with
    Component: ARM Compiler 5.06 update 6 (build 750) Tool: armasm [4d35ec]
    Component: ARM Compiler 5.06 update 6 (build 750) Tool: armlink [4d35ed]

    Header size: 52 bytes (0x34)
    Program header entry size: 32 bytes (0x20)
    Section header entry size: 40 bytes (0x28)

    Program header entries: 1
    Section header entries: 16

    Program header offset: 324712 (0x0004f468)
    Section header offset: 324744 (0x0004f488)

    Section header string table index: 15

========================================================================

** Program header #0 (PT_LOAD) [PF_X + PF_W + PF_R + PF_ARM_ENTRY]
    Size : 15148 bytes (10764 bytes in file)
    Virtual address: 0x00000000 (Alignment 8)


========================================================================

** Section #1 'ER_IROM1' (SHT_PROGBITS) [SHF_ALLOC + SHF_EXECINSTR]
    Size   : 10532 bytes (alignment 4)
    Address: 0x00000000

    $d.realdata
    RESET
    __Vectors
        0x00000000:    20001208    ...     DCD    536875528
        0x00000004:    000002fd    ....    DCD    765
        0x00000008:    0000033d    =...    DCD    829
        0x0000000c:    000002a9    ....    DCD    681
        0x00000010:    00000341    A...    DCD    833
        0x00000014:    00000343    C...    DCD    835
        0x00000018:    00000345    E...    DCD    837
        0x0000001c:    00000000    ....    DCD    0
        0x00000020:    00000000    ....    DCD    0
        0x00000024:    00000000    ....    DCD    0
        0x00000028:    00000000    ....    DCD    0
        0x0000002c:    00000347    G...    DCD    839
        0x00000030:    00000349    I...    DCD    841
        0x00000034:    00000000    ....    DCD    0
        0x00000038:    0000034b    K...    DCD    843
        0x0000003c:    0000034d    M...    DCD    845
        0x00000040:    0000034f    O...    DCD    847
        0x00000044:    0000034f    O...    DCD    847
        0x00000048:    0000034f    O...    DCD    847
        0x0000004c:    0000034f    O...    DCD    847
        0x00000050:    0000034f    O...    DCD    847
        0x00000054:    0000034f    O...    DCD    847
        0x00000058:    0000034f    O...    DCD    847
        0x0000005c:    0000034f    O...    DCD    847
        0x00000060:    0000034f    O...    DCD    847
        0x00000064:    0000034f    O...    DCD    847
        0x00000068:    0000034f    O...    DCD    847
        0x0000006c:    0000034f    O...    DCD    847
        0x00000070:    0000034f    O...    DCD    847
        0x00000074:    0000034f    O...    DCD    847
        0x00000078:    0000034f    O...    DCD    847
        0x0000007c:    0000034f    O...    DCD    847
        0x00000080:    0000034f    O...    DCD    847
        0x00000084:    0000034f    O...    DCD    847
        0x00000088:    0000034f    O...    DCD    847
        0x0000008c:    0000034f    O...    DCD    847
        0x00000090:    0000034f    O...    DCD    847
        0x00000094:    0000034f    O...    DCD    847
        0x00000098:    0000034f    O...    DCD    847
        0x0000009c:    0000034f    O...    DCD    847
        0x000000a0:    0000034f    O...    DCD    847
        0x000000a4:    0000034f    O...    DCD    847
        0x000000a8:    0000034f    O...    DCD    847
        0x000000ac:    0000034f    O...    DCD    847
        0x000000b0:    0000034f    O...    DCD    847
        0x000000b4:    0000034f    O...    DCD    847
        0x000000b8:    0000034f    O...    DCD    847
        0x000000bc:    0000034f    O...    DCD    847
        0x000000c0:    0000034f    O...    DCD    847
        0x000000c4:    0000034f    O...    DCD    847
        0x000000c8:    0000034f    O...    DCD    847
        0x000000cc:    0000034f    O...    DCD    847
        0x000000d0:    0000034f    O...    DCD    847
        0x000000d4:    0000034f    O...    DCD    847
        0x000000d8:    0000034f    O...    DCD    847
        0x000000dc:    0000034f    O...    DCD    847
        0x000000e0:    0000034f    O...    DCD    847
        0x000000e4:    0000034f    O...    DCD    847
        0x000000e8:    000007b9    ....    DCD    1977
        0x000000ec:    0000034f    O...    DCD    847
        0x000000f0:    0000034f    O...    DCD    847
        0x000000f4:    0000034f    O...    DCD    847
        0x000000f8:    0000034f    O...    DCD    847
        0x000000fc:    0000034f    O...    DCD    847
        0x00000100:    0000034f    O...    DCD    847
        0x00000104:    0000034f    O...    DCD    847
        0x00000108:    0000034f    O...    DCD    847
        0x0000010c:    0000034f    O...    DCD    847
        0x00000110:    0000034f    O...    DCD    847
        0x00000114:    0000034f    O...    DCD    847
        0x00000118:    0000034f    O...    DCD    847
        0x0000011c:    0000034f    O...    DCD    847
        0x00000120:    0000034f    O...    DCD    847
        0x00000124:    0000034f    O...    DCD    847
        0x00000128:    0000034f    O...    DCD    847
        0x0000012c:    0000034f    O...    DCD    847
        0x00000130:    0000034f    O...    DCD    847
        0x00000134:    0000034f    O...    DCD    847
        0x00000138:    0000034f    O...    DCD    847
        0x0000013c:    0000034f    O...    DCD    847
        0x00000140:    0000034f    O...    DCD    847
        0x00000144:    0000229d    ."..    DCD    8861
        0x00000148:    0000034f    O...    DCD    847
        0x0000014c:    0000034f    O...    DCD    847
        0x00000150:    0000034f    O...    DCD    847
        0x00000154:    0000034f    O...    DCD    847
        0x00000158:    0000034f    O...    DCD    847
        0x0000015c:    0000034f    O...    DCD    847
        0x00000160:    0000034f    O...    DCD    847
        0x00000164:    0000034f    O...    DCD    847
        0x00000168:    0000034f    O...    DCD    847
        0x0000016c:    0000034f    O...    DCD    847
        0x00000170:    0000034f    O...    DCD    847
        0x00000174:    0000034f    O...    DCD    847
        0x00000178:    0000034f    O...    DCD    847
        0x0000017c:    0000034f    O...    DCD    847
        0x00000180:    0000034f    O...    DCD    847
        0x00000184:    0000034f    O...    DCD    847
        0x00000188:    0000034f    O...    DCD    847
        0x0000018c:    0000034f    O...    DCD    847
        0x00000190:    0000034f    O...    DCD    847
        0x00000194:    0000034f    O...    DCD    847
        0x00000198:    0000034f    O...    DCD    847
        0x0000019c:    0000034f    O...    DCD    847
        0x000001a0:    0000034f    O...    DCD    847
        0x000001a4:    0000034f    O...    DCD    847
        0x000001a8:    0000034f    O...    DCD    847
        0x000001ac:    0000034f    O...    DCD    847
        0x000001b0:    0000034f    O...    DCD    847
        0x000001b4:    0000034f    O...    DCD    847
    $t
    !!!main
    __Vectors_End
    __main
        0x000001b8:    f000f802    ....    BL       __scatterload ; 0x1c0
        0x000001bc:    f000f864    ..d.    BL       __rt_entry ; 0x288
    !!!scatter
    __scatterload
    __scatterload_rt2
    __scatterload_rt2_thumb_only
        0x000001c0:    a00a        ..      ADR      r0,{pc}+0x2c ; 0x1ec
        0x000001c2:    e8900c00    ....    LDM      r0,{r10,r11}
        0x000001c6:    4482        .D      ADD      r10,r10,r0
        0x000001c8:    4483        .D      ADD      r11,r11,r0
        0x000001ca:    f1aa0701    ....    SUB      r7,r10,#1
    __scatterload_null
        0x000001ce:    45da        .E      CMP      r10,r11
        0x000001d0:    d101        ..      BNE      0x1d6 ; __scatterload_null + 8
        0x000001d2:    f000f859    ..Y.    BL       __rt_entry ; 0x288
        0x000001d6:    f2af0e09    ....    ADR      lr,{pc}-7 ; 0x1cf
        0x000001da:    e8ba000f    ....    LDM      r10!,{r0-r3}
        0x000001de:    f0130f01    ....    TST      r3,#1
        0x000001e2:    bf18        ..      IT       NE
        0x000001e4:    1afb        ..      SUBNE    r3,r7,r3
        0x000001e6:    f0430301    C...    ORR      r3,r3,#1
        0x000001ea:    4718        .G      BX       r3
    $d
        0x000001ec:    00002718    .'..    DCD    10008
        0x000001f0:    00002738    8'..    DCD    10040
    $t
    !!dczerorl2
    __decompress
    __decompress1
        0x000001f4:    440a        .D      ADD      r2,r2,r1
        0x000001f6:    f04f0c00    O...    MOV      r12,#0
        0x000001fa:    f8103b01    ...;    LDRB     r3,[r0],#1
        0x000001fe:    f0130407    ....    ANDS     r4,r3,#7
        0x00000202:    bf08        ..      IT       EQ
        0x00000204:    f8104b01    ...K    LDRBEQ   r4,[r0],#1
        0x00000208:    111d        ..      ASRS     r5,r3,#4
        0x0000020a:    bf08        ..      IT       EQ
        0x0000020c:    f8105b01    ...[    LDRBEQ   r5,[r0],#1
        0x00000210:    1e64        d.      SUBS     r4,r4,#1
        0x00000212:    d005        ..      BEQ      0x220 ; __decompress + 44
        0x00000214:    f8106b01    ...k    LDRB     r6,[r0],#1
        0x00000218:    1e64        d.      SUBS     r4,r4,#1
        0x0000021a:    f8016b01    ...k    STRB     r6,[r1],#1
        0x0000021e:    d1f9        ..      BNE      0x214 ; __decompress + 32
        0x00000220:    f0130f08    ....    TST      r3,#8
        0x00000224:    bf1e        ..      ITTT     NE
        0x00000226:    f8104b01    ...K    LDRBNE   r4,[r0],#1
        0x0000022a:    1cad        ..      ADDNE    r5,r5,#2
        0x0000022c:    1b0c        ..      SUBNE    r4,r1,r4
        0x0000022e:    d109        ..      BNE      0x244 ; __decompress + 80
        0x00000230:    1e6d        m.      SUBS     r5,r5,#1
        0x00000232:    bf58        X.      IT       PL
        0x00000234:    f801cb01    ....    STRBPL   r12,[r1],#1
        0x00000238:    d5fa        ..      BPL      0x230 ; __decompress + 60
        0x0000023a:    e005        ..      B        0x248 ; __decompress + 84
        0x0000023c:    f8146b01    ...k    LDRB     r6,[r4],#1
        0x00000240:    f8016b01    ...k    STRB     r6,[r1],#1
        0x00000244:    1e6d        m.      SUBS     r5,r5,#1
        0x00000246:    d5f9        ..      BPL      0x23c ; __decompress + 72
        0x00000248:    4291        .B      CMP      r1,r2
        0x0000024a:    d3d6        ..      BCC      0x1fa ; __decompress + 6
        0x0000024c:    4770        pG      BX       lr
        0x0000024e:    0000        ..      MOVS     r0,r0
    !!handler_zi
    __scatterload_zeroinit
        0x00000250:    2300        .#      MOVS     r3,#0
        0x00000252:    2400        .$      MOVS     r4,#0
        0x00000254:    2500        .%      MOVS     r5,#0
        0x00000256:    2600        .&      MOVS     r6,#0
        0x00000258:    3a10        .:      SUBS     r2,r2,#0x10
        0x0000025a:    bf28        (.      IT       CS
        0x0000025c:    c178        x.      STMCS    r1!,{r3-r6}
        0x0000025e:    d8fb        ..      BHI      0x258 ; __scatterload_zeroinit + 8
        0x00000260:    0752        R.      LSLS     r2,r2,#29
        0x00000262:    bf28        (.      IT       CS
        0x00000264:    c130        0.      STMCS    r1!,{r4,r5}
        0x00000266:    bf48        H.      IT       MI
        0x00000268:    600b        .`      STRMI    r3,[r1,#0]
        0x0000026a:    4770        pG      BX       lr
    .ARM.Collect$$_printf_percent$$00000009
    .ARM.Collect$$_printf_percent$$00000000
    _printf_d
    _printf_percent
        0x0000026c:    2964        d)      CMP      r1,#0x64
        0x0000026e:    f00080bb    ....    BEQ.W    _printf_int_dec ; 0x3e8
    .ARM.Collect$$_printf_percent$$0000000C
    _printf_x
        0x00000272:    2978        x)      CMP      r1,#0x78
        0x00000274:    f00080f4    ....    BEQ.W    _printf_int_hex ; 0x460
    .ARM.Collect$$_printf_percent$$00000017
    _printf_percent_end
        0x00000278:    2000        .       MOVS     r0,#0
        0x0000027a:    4770        pG      BX       lr
    .ARM.Collect$$libinit$$00000000
    __rt_lib_init
        0x0000027c:    b51f        ..      PUSH     {r0-r4,lr}
    .ARM.Collect$$libinit$$00000001
    __rt_lib_init_fp_1
        0x0000027e:    f002fb05    ....    BL       _fp_init ; 0x288c
    .ARM.Collect$$libinit$$00000004
    .ARM.Collect$$libinit$$0000000A
    .ARM.Collect$$libinit$$0000000C
    .ARM.Collect$$libinit$$0000000E
    .ARM.Collect$$libinit$$00000011
    .ARM.Collect$$libinit$$00000013
    .ARM.Collect$$libinit$$00000015
    .ARM.Collect$$libinit$$00000017
    .ARM.Collect$$libinit$$00000019
    .ARM.Collect$$libinit$$0000001B
    .ARM.Collect$$libinit$$0000001D
    .ARM.Collect$$libinit$$0000001F
    .ARM.Collect$$libinit$$00000021
    .ARM.Collect$$libinit$$00000023
    .ARM.Collect$$libinit$$00000025
    .ARM.Collect$$libinit$$0000002C
    .ARM.Collect$$libinit$$0000002E
    .ARM.Collect$$libinit$$00000030
    .ARM.Collect$$libinit$$00000032
    .ARM.Collect$$libinit$$00000033
    __rt_lib_init_alloca_1
    __rt_lib_init_argv_1
    __rt_lib_init_atexit_1
    __rt_lib_init_clock_1
    __rt_lib_init_cpp_1
    __rt_lib_init_exceptions_1
    __rt_lib_init_fp_trap_1
    __rt_lib_init_getenv_1
    __rt_lib_init_heap_1
    __rt_lib_init_lc_collate_1
    __rt_lib_init_lc_ctype_1
    __rt_lib_init_lc_monetary_1
    __rt_lib_init_lc_numeric_1
    __rt_lib_init_lc_time_1
    __rt_lib_init_preinit_1
    __rt_lib_init_rand_1
    __rt_lib_init_return
    __rt_lib_init_signal_1
    __rt_lib_init_stdio_1
    __rt_lib_init_user_alloc_1
        0x00000282:    bd1f        ..      POP      {r0-r4,pc}
    .ARM.Collect$$libshutdown$$00000000
    __rt_lib_shutdown
        0x00000284:    b510        ..      PUSH     {r4,lr}
    .ARM.Collect$$libshutdown$$00000002
    .ARM.Collect$$libshutdown$$00000004
    .ARM.Collect$$libshutdown$$00000007
    .ARM.Collect$$libshutdown$$0000000A
    .ARM.Collect$$libshutdown$$0000000C
    .ARM.Collect$$libshutdown$$0000000F
    .ARM.Collect$$libshutdown$$00000010
    __rt_lib_shutdown_cpp_1
    __rt_lib_shutdown_fp_trap_1
    __rt_lib_shutdown_heap_1
    __rt_lib_shutdown_return
    __rt_lib_shutdown_signal_1
    __rt_lib_shutdown_stdio_1
    __rt_lib_shutdown_user_alloc_1
        0x00000286:    bd10        ..      POP      {r4,pc}
    .ARM.Collect$$rtentry$$00000000
    .ARM.Collect$$rtentry$$00000002
    .ARM.Collect$$rtentry$$00000004
    __rt_entry
    __rt_entry_presh_1
    __rt_entry_sh
        0x00000288:    f000fa64    ..d.    BL       __user_setup_stackheap ; 0x754
        0x0000028c:    4611        .F      MOV      r1,r2
    .ARM.Collect$$rtentry$$00000009
    .ARM.Collect$$rtentry$$0000000A
    __rt_entry_li
    __rt_entry_postsh_1
        0x0000028e:    f7fffff5    ....    BL       __rt_lib_init ; 0x27c
    .ARM.Collect$$rtentry$$0000000C
    .ARM.Collect$$rtentry$$0000000D
    __rt_entry_main
    __rt_entry_postli_1
        0x00000292:    f002fa75    ..u.    BL       main ; 0x2780
        0x00000296:    f000fa82    ....    BL       exit ; 0x79e
    .ARM.Collect$$rtexit$$00000000
    __rt_exit
        0x0000029a:    b403        ..      PUSH     {r0,r1}
    .ARM.Collect$$rtexit$$00000002
    .ARM.Collect$$rtexit$$00000003
    __rt_exit_ls
    __rt_exit_prels_1
        0x0000029c:    f7fffff2    ....    BL       __rt_lib_shutdown ; 0x284
    .ARM.Collect$$rtexit$$00000004
    __rt_exit_exit
        0x000002a0:    bc03        ..      POP      {r0,r1}
        0x000002a2:    f002fa39    ..9.    BL       _sys_exit ; 0x2718
        0x000002a6:    0000        ..      MOVS     r0,r0
    .emb_text
    $v0
    HardFault_Handler
        0x000002a8:    4670        pF      MOV      r0,lr
        0x000002aa:    0740        @.      LSLS     r0,r0,#29
        0x000002ac:    d402        ..      BMI      0x2b4 ; HardFault_Handler + 12
        0x000002ae:    f3ef8008    ....    MRS      r0,MSP
        0x000002b2:    e001        ..      B        0x2b8 ; HardFault_Handler + 16
        0x000002b4:    f3ef8009    ....    MRS      r0,PSP
        0x000002b8:    6981        .i      LDR      r1,[r0,#0x18]
        0x000002ba:    880b        ..      LDRH     r3,[r1,#0]
        0x000002bc:    f64b62ab    K..b    MOV      r2,#0xbeab
        0x000002c0:    4293        .B      CMP      r3,r2
        0x000002c2:    d102        ..      BNE      0x2ca ; HardFault_Handler + 34
        0x000002c4:    3104        .1      ADDS     r1,#4
        0x000002c6:    6181        .a      STR      r1,[r0,#0x18]
        0x000002c8:    4770        pG      BX       lr
        0x000002ca:    2004        .       MOVS     r0,#4
        0x000002cc:    4671        qF      MOV      r1,lr
        0x000002ce:    4208        .B      TST      r0,r1
        0x000002d0:    d002        ..      BEQ      0x2d8 ; HardFault_Handler + 48
        0x000002d2:    f3ef8009    ....    MRS      r0,PSP
        0x000002d6:    e001        ..      B        0x2dc ; HardFault_Handler + 52
        0x000002d8:    f3ef8008    ....    MRS      r0,MSP
        0x000002dc:    4671        qF      MOV      r1,lr
        0x000002de:    4a01        .J      LDR      r2,[pc,#4] ; [0x2e4] = 0x1dcd
        0x000002e0:    4710        .G      BX       r2
        0x000002e2:    e7fe        ..      B        0x2e2 ; HardFault_Handler + 58
    $d
        0x000002e4:    00001dcd    ....    DCD    7629
    $t
    SH_DoCommand
        0x000002e8:    beab        ..      BKPT     #0xab
        0x000002ea:    e001        ..      B        0x2f0 ; SH_DoCommand + 8
        0x000002ec:    2000        .       MOVS     r0,#0
        0x000002ee:    4770        pG      BX       lr
        0x000002f0:    2a00        .*      CMP      r2,#0
        0x000002f2:    d000        ..      BEQ      0x2f6 ; SH_DoCommand + 14
        0x000002f4:    6010        .`      STR      r0,[r2,#0]
        0x000002f6:    2001        .       MOVS     r0,#1
        0x000002f8:    4770        pG      BX       lr
        0x000002fa:    0000        ..      MOVS     r0,r0
    .text
    $v0
    Reset_Handler
        0x000002fc:    4817        .H      LDR      r0,[pc,#92] ; [0x35c] = 0x40000100
        0x000002fe:    f04f0159    O.Y.    MOV      r1,#0x59
        0x00000302:    6001        .`      STR      r1,[r0,#0]
        0x00000304:    f04f0116    O...    MOV      r1,#0x16
        0x00000308:    6001        .`      STR      r1,[r0,#0]
        0x0000030a:    f04f0188    O...    MOV      r1,#0x88
        0x0000030e:    6001        .`      STR      r1,[r0,#0]
        0x00000310:    4813        .H      LDR      r0,[pc,#76] ; [0x360] = 0x40000200
        0x00000312:    6841        Ah      LDR      r1,[r0,#4]
        0x00000314:    f4414180    A..A    ORR      r1,r1,#0x4000
        0x00000318:    6041        A`      STR      r1,[r0,#4]
        0x0000031a:    4812        .H      LDR      r0,[pc,#72] ; [0x364] = 0x40007000
        0x0000031c:    6841        Ah      LDR      r1,[r0,#4]
        0x0000031e:    f0410102    A...    ORR      r1,r1,#2
        0x00000322:    6041        A`      STR      r1,[r0,#4]
        0x00000324:    6841        Ah      LDR      r1,[r0,#4]
        0x00000326:    f0410104    A...    ORR      r1,r1,#4
        0x0000032a:    6041        A`      STR      r1,[r0,#4]
        0x0000032c:    480e        .H      LDR      r0,[pc,#56] ; [0x368] = 0x20c9
        0x0000032e:    4780        .G      BLX      r0
        0x00000330:    480a        .H      LDR      r0,[pc,#40] ; [0x35c] = 0x40000100
        0x00000332:    f04f0100    O...    MOV      r1,#0
        0x00000336:    6001        .`      STR      r1,[r0,#0]
        0x00000338:    480c        .H      LDR      r0,[pc,#48] ; [0x36c] = 0x1b9
        0x0000033a:    4700        .G      BX       r0
    NMI_Handler
        0x0000033c:    e7fe        ..      B        NMI_Handler ; 0x33c
        0x0000033e:    e7fe        ..      B        0x33e ; NMI_Handler + 2
    MemManage_Handler
        0x00000340:    e7fe        ..      B        MemManage_Handler ; 0x340
    BusFault_Handler
        0x00000342:    e7fe        ..      B        BusFault_Handler ; 0x342
    UsageFault_Handler
        0x00000344:    e7fe        ..      B        UsageFault_Handler ; 0x344
    SVC_Handler
        0x00000346:    e7fe        ..      B        SVC_Handler ; 0x346
    DebugMon_Handler
        0x00000348:    e7fe        ..      B        DebugMon_Handler ; 0x348
    PendSV_Handler
        0x0000034a:    e7fe        ..      B        PendSV_Handler ; 0x34a
    SysTick_Handler
        0x0000034c:    e7fe        ..      B        SysTick_Handler ; 0x34c
    Default_Handler
    ACMP01_IRQHandler
    ADC01_IRQHandler
    ADC02_IRQHandler
    ADC03_IRQHandler
    BOD_IRQHandler
    BPWM0_IRQHandler
    BPWM1_IRQHandler
    BRAKE0_IRQHandler
    BRAKE1_IRQHandler
    CAN0_IRQHandler
    CAN1_IRQHandler
    CKFAIL_IRQHandler
    CRYPTO_IRQHandler
    DAC_IRQHandler
    ECAP0_IRQHandler
    ECAP1_IRQHandler
    EHCI_IRQHandler
    EINT0_IRQHandler
    EINT1_IRQHandler
    EINT2_IRQHandler
    EINT3_IRQHandler
    EINT4_IRQHandler
    EINT5_IRQHandler
    EINT6_IRQHandler
    EINT7_IRQHandler
    EMAC_RX_IRQHandler
    EMAC_TX_IRQHandler
    EPWM0P0_IRQHandler
    EPWM0P1_IRQHandler
    EPWM0P2_IRQHandler
    EPWM1P0_IRQHandler
    EPWM1P1_IRQHandler
    EPWM1P2_IRQHandler
    GPA_IRQHandler
    GPB_IRQHandler
    GPC_IRQHandler
    GPD_IRQHandler
    GPE_IRQHandler
    GPF_IRQHandler
    GPG_IRQHandler
    GPH_IRQHandler
    I2C0_IRQHandler
    I2C1_IRQHandler
    I2C2_IRQHandler
    I2S0_IRQHandler
    IRC_IRQHandler
    OHCI_IRQHandler
    OPA0_IRQHandler
    PDMA_IRQHandler
    PWRWU_IRQHandler
    QEI0_IRQHandler
    QEI1_IRQHandler
    QSPI0_IRQHandler
    RAMPE_IRQHandler
    RTC_IRQHandler
    SC0_IRQHandler
    SC1_IRQHandler
    SC2_IRQHandler
    SDH0_IRQHandler
    SDH1_IRQHandler
    SPI0_IRQHandler
    SPI1_IRQHandler
    SPI2_IRQHandler
    SPI3_IRQHandler
    SPIM_IRQHandler
    TAMPER_IRQHandler
    TMR0_IRQHandler
    TMR1_IRQHandler
    TMR2_IRQHandler
    TMR3_IRQHandler
    UART0_IRQHandler
    UART1_IRQHandler
    UART2_IRQHandler
    UART3_IRQHandler
    UART4_IRQHandler
    UART5_IRQHandler
    USBD_IRQHandler
    USBOTG20_IRQHandler
    USBOTG_IRQHandler
    USCI0_IRQHandler
    USCI1_IRQHandler
    WDT_IRQHandler
    WWDT_IRQHandler
        0x0000034e:    e7fe        ..      B        Default_Handler ; 0x34e
    __user_initial_stackheap
        0x00000350:    4807        .H      LDR      r0,[pc,#28] ; [0x370] = 0x20000908
        0x00000352:    4908        .I      LDR      r1,[pc,#32] ; [0x374] = 0x20001208
        0x00000354:    4a08        .J      LDR      r2,[pc,#32] ; [0x378] = 0x20000a08
        0x00000356:    4b09        .K      LDR      r3,[pc,#36] ; [0x37c] = 0x20000a08
        0x00000358:    4770        pG      BX       lr
    $d
        0x0000035a:    0000        ..      DCW    0
        0x0000035c:    40000100    ...@    DCD    1073742080
        0x00000360:    40000200    ...@    DCD    1073742336
        0x00000364:    40007000    .p.@    DCD    1073770496
        0x00000368:    000020c9    . ..    DCD    8393
        0x0000036c:    000001b9    ....    DCD    441
        0x00000370:    20000908    ...     DCD    536873224
        0x00000374:    20001208    ...     DCD    536875528
        0x00000378:    20000a08    ...     DCD    536873480
        0x0000037c:    20000a08    ...     DCD    536873480
    $t
    .text
    __2printf
        0x00000380:    b40f        ..      PUSH     {r0-r3}
        0x00000382:    4904        .I      LDR      r1,[pc,#16] ; [0x394] = 0x200001d4
        0x00000384:    b510        ..      PUSH     {r4,lr}
        0x00000386:    aa03        ..      ADD      r2,sp,#0xc
        0x00000388:    9802        ..      LDR      r0,[sp,#8]
        0x0000038a:    f000f9b5    ....    BL       _printf_char_file ; 0x6f8
        0x0000038e:    bc10        ..      POP      {r4}
        0x00000390:    f85dfb14    ]...    LDR      pc,[sp],#0x14
    $d
        0x00000394:    200001d4    ...     DCD    536871380
    $t
    .text
    _printf_pre_padding
        0x00000398:    b570        p.      PUSH     {r4-r6,lr}
        0x0000039a:    4604        .F      MOV      r4,r0
        0x0000039c:    6985        .i      LDR      r5,[r0,#0x18]
        0x0000039e:    6800        .h      LDR      r0,[r0,#0]
        0x000003a0:    06c1        ..      LSLS     r1,r0,#27
        0x000003a2:    d501        ..      BPL      0x3a8 ; _printf_pre_padding + 16
        0x000003a4:    2630        0&      MOVS     r6,#0x30
        0x000003a6:    e000        ..      B        0x3aa ; _printf_pre_padding + 18
        0x000003a8:    2620         &      MOVS     r6,#0x20
        0x000003aa:    07c0        ..      LSLS     r0,r0,#31
        0x000003ac:    d007        ..      BEQ      0x3be ; _printf_pre_padding + 38
        0x000003ae:    bd70        p.      POP      {r4-r6,pc}
        0x000003b0:    e9d42101    ...!    LDRD     r2,r1,[r4,#4]
        0x000003b4:    4630        0F      MOV      r0,r6
        0x000003b6:    4790        .G      BLX      r2
        0x000003b8:    6a20         j      LDR      r0,[r4,#0x20]
        0x000003ba:    1c40        @.      ADDS     r0,r0,#1
        0x000003bc:    6220         b      STR      r0,[r4,#0x20]
        0x000003be:    1e6d        m.      SUBS     r5,r5,#1
        0x000003c0:    d5f6        ..      BPL      0x3b0 ; _printf_pre_padding + 24
        0x000003c2:    bd70        p.      POP      {r4-r6,pc}
    _printf_post_padding
        0x000003c4:    b570        p.      PUSH     {r4-r6,lr}
        0x000003c6:    4604        .F      MOV      r4,r0
        0x000003c8:    6985        .i      LDR      r5,[r0,#0x18]
        0x000003ca:    7800        .x      LDRB     r0,[r0,#0]
        0x000003cc:    07c0        ..      LSLS     r0,r0,#31
        0x000003ce:    d107        ..      BNE      0x3e0 ; _printf_post_padding + 28
        0x000003d0:    bd70        p.      POP      {r4-r6,pc}
        0x000003d2:    e9d42101    ...!    LDRD     r2,r1,[r4,#4]
        0x000003d6:    2020                MOVS     r0,#0x20
        0x000003d8:    4790        .G      BLX      r2
        0x000003da:    6a20         j      LDR      r0,[r4,#0x20]
        0x000003dc:    1c40        @.      ADDS     r0,r0,#1
        0x000003de:    6220         b      STR      r0,[r4,#0x20]
        0x000003e0:    1e6d        m.      SUBS     r5,r5,#1
        0x000003e2:    d5f6        ..      BPL      0x3d2 ; _printf_post_padding + 14
        0x000003e4:    bd70        p.      POP      {r4-r6,pc}
        0x000003e6:    0000        ..      MOVS     r0,r0
    .text
    _printf_int_dec
        0x000003e8:    e92d41f0    -..A    PUSH     {r4-r8,lr}
        0x000003ec:    4606        .F      MOV      r6,r0
        0x000003ee:    2400        .$      MOVS     r4,#0
        0x000003f0:    6810        .h      LDR      r0,[r2,#0]
        0x000003f2:    2975        u)      CMP      r1,#0x75
        0x000003f4:    4631        1F      MOV      r1,r6
        0x000003f6:    a516        ..      ADR      r5,{pc}+0x5a ; 0x450
        0x000003f8:    d010        ..      BEQ      0x41c ; _printf_int_dec + 52
        0x000003fa:    f3af8000    ....    NOP.W    
        0x000003fe:    2800        .(      CMP      r0,#0
        0x00000400:    da02        ..      BGE      0x408 ; _printf_int_dec + 32
        0x00000402:    4240        @B      RSBS     r0,r0,#0
        0x00000404:    a513        ..      ADR      r5,{pc}+0x50 ; 0x454
        0x00000406:    e007        ..      B        0x418 ; _printf_int_dec + 48
        0x00000408:    6831        1h      LDR      r1,[r6,#0]
        0x0000040a:    078a        ..      LSLS     r2,r1,#30
        0x0000040c:    d501        ..      BPL      0x412 ; _printf_int_dec + 42
        0x0000040e:    a512        ..      ADR      r5,{pc}+0x4a ; 0x458
        0x00000410:    e002        ..      B        0x418 ; _printf_int_dec + 48
        0x00000412:    0749        I.      LSLS     r1,r1,#29
        0x00000414:    d504        ..      BPL      0x420 ; _printf_int_dec + 56
        0x00000416:    a511        ..      ADR      r5,{pc}+0x46 ; 0x45c
        0x00000418:    2401        .$      MOVS     r4,#1
        0x0000041a:    e001        ..      B        0x420 ; _printf_int_dec + 56
        0x0000041c:    f3af8000    ....    NOP.W    
        0x00000420:    2100        .!      MOVS     r1,#0
        0x00000422:    220a        ."      MOVS     r2,#0xa
        0x00000424:    f1060724    ..$.    ADD      r7,r6,#0x24
        0x00000428:    e009        ..      B        0x43e ; _printf_int_dec + 86
        0x0000042a:    fbb0fcf2    ....    UDIV     r12,r0,r2
        0x0000042e:    fbb0f3f2    ....    UDIV     r3,r0,r2
        0x00000432:    fb02001c    ....    MLS      r0,r2,r12,r0
        0x00000436:    3030        00      ADDS     r0,r0,#0x30
        0x00000438:    5478        xT      STRB     r0,[r7,r1]
        0x0000043a:    4618        .F      MOV      r0,r3
        0x0000043c:    1c49        I.      ADDS     r1,r1,#1
        0x0000043e:    2800        .(      CMP      r0,#0
        0x00000440:    d1f3        ..      BNE      0x42a ; _printf_int_dec + 66
        0x00000442:    4623        #F      MOV      r3,r4
        0x00000444:    462a        *F      MOV      r2,r5
        0x00000446:    4630        0F      MOV      r0,r6
        0x00000448:    e8bd41f0    ...A    POP      {r4-r8,lr}
        0x0000044c:    f000b8fa    ....    B.W      _printf_int_common ; 0x644
    $d
        0x00000450:    00000000    ....    DCD    0
        0x00000454:    0000002d    -...    DCD    45
        0x00000458:    0000002b    +...    DCD    43
        0x0000045c:    00000020     ...    DCD    32
    $t
    .text
    _printf_int_hex
    _printf_longlong_hex
        0x00000460:    b570        p.      PUSH     {r4-r6,lr}
        0x00000462:    4604        .F      MOV      r4,r0
        0x00000464:    460d        .F      MOV      r5,r1
        0x00000466:    4621        !F      MOV      r1,r4
        0x00000468:    6810        .h      LDR      r0,[r2,#0]
        0x0000046a:    f3af8000    ....    NOP.W    
        0x0000046e:    8821        !.      LDRH     r1,[r4,#0]
        0x00000470:    0509        ..      LSLS     r1,r1,#20
        0x00000472:    d502        ..      BPL      0x47a ; _printf_int_hex + 26
        0x00000474:    4a0f        .J      LDR      r2,[pc,#60] ; [0x4b4] = 0x244e
        0x00000476:    447a        zD      ADD      r2,r2,pc
        0x00000478:    e002        ..      B        0x480 ; _printf_int_hex + 32
        0x0000047a:    4a0e        .J      LDR      r2,[pc,#56] ; [0x4b4] = 0x244e
        0x0000047c:    447a        zD      ADD      r2,r2,pc
        0x0000047e:    320e        .2      ADDS     r2,r2,#0xe
        0x00000480:    2100        .!      MOVS     r1,#0
        0x00000482:    f1040324    ..$.    ADD      r3,r4,#0x24
        0x00000486:    e005        ..      B        0x494 ; _printf_int_hex + 52
        0x00000488:    f000060f    ....    AND      r6,r0,#0xf
        0x0000048c:    0900        ..      LSRS     r0,r0,#4
        0x0000048e:    5d96        .]      LDRB     r6,[r2,r6]
        0x00000490:    545e        ^T      STRB     r6,[r3,r1]
        0x00000492:    1c49        I.      ADDS     r1,r1,#1
        0x00000494:    2800        .(      CMP      r0,#0
        0x00000496:    d1f7        ..      BNE      0x488 ; _printf_int_hex + 40
        0x00000498:    7820         x      LDRB     r0,[r4,#0]
        0x0000049a:    2300        .#      MOVS     r3,#0
        0x0000049c:    0700        ..      LSLS     r0,r0,#28
        0x0000049e:    d504        ..      BPL      0x4aa ; _printf_int_hex + 74
        0x000004a0:    2d70        p-      CMP      r5,#0x70
        0x000004a2:    d002        ..      BEQ      0x4aa ; _printf_int_hex + 74
        0x000004a4:    b109        ..      CBZ      r1,0x4aa ; _printf_int_hex + 74
        0x000004a6:    2302        .#      MOVS     r3,#2
        0x000004a8:    3211        .2      ADDS     r2,r2,#0x11
        0x000004aa:    4620         F      MOV      r0,r4
        0x000004ac:    e8bd4070    ..p@    POP      {r4-r6,lr}
        0x000004b0:    f000b8c8    ....    B.W      _printf_int_common ; 0x644
    $d
        0x000004b4:    0000244e    N$..    DCD    9294
    $t
    .text
    __printf
        0x000004b8:    e92d5ff0    -.._    PUSH     {r4-r12,lr}
        0x000004bc:    4689        .F      MOV      r9,r1
        0x000004be:    4604        .F      MOV      r4,r0
        0x000004c0:    f04f0a00    O...    MOV      r10,#0
        0x000004c4:    f8dfb124    ..$.    LDR      r11,[pc,#292] ; [0x5ec] = 0x2424
        0x000004c8:    44fb        .D      ADD      r11,r11,pc
        0x000004ca:    f8c0a020    .. .    STR      r10,[r0,#0x20]
        0x000004ce:    4620         F      MOV      r0,r4
        0x000004d0:    68e1        .h      LDR      r1,[r4,#0xc]
        0x000004d2:    4788        .G      BLX      r1
        0x000004d4:    2800        .(      CMP      r0,#0
        0x000004d6:    d07d        }.      BEQ      0x5d4 ; __printf + 284
        0x000004d8:    2825        %(      CMP      r0,#0x25
        0x000004da:    d006        ..      BEQ      0x4ea ; __printf + 50
        0x000004dc:    e9d42101    ...!    LDRD     r2,r1,[r4,#4]
        0x000004e0:    4790        .G      BLX      r2
        0x000004e2:    6a20         j      LDR      r0,[r4,#0x20]
        0x000004e4:    1c40        @.      ADDS     r0,r0,#1
        0x000004e6:    6220         b      STR      r0,[r4,#0x20]
        0x000004e8:    e7f1        ..      B        0x4ce ; __printf + 22
        0x000004ea:    2500        .%      MOVS     r5,#0
        0x000004ec:    465f        _F      MOV      r7,r11
        0x000004ee:    4620         F      MOV      r0,r4
        0x000004f0:    68e1        .h      LDR      r1,[r4,#0xc]
        0x000004f2:    4788        .G      BLX      r1
        0x000004f4:    2820         (      CMP      r0,#0x20
        0x000004f6:    4606        .F      MOV      r6,r0
        0x000004f8:    db07        ..      BLT      0x50a ; __printf + 82
        0x000004fa:    2e31        1.      CMP      r6,#0x31
        0x000004fc:    d205        ..      BCS      0x50a ; __printf + 82
        0x000004fe:    19b8        ..      ADDS     r0,r7,r6
        0x00000500:    f8100c20    .. .    LDRB     r0,[r0,#-0x20]
        0x00000504:    b108        ..      CBZ      r0,0x50a ; __printf + 82
        0x00000506:    4305        .C      ORRS     r5,r5,r0
        0x00000508:    e7f1        ..      B        0x4ee ; __printf + 54
        0x0000050a:    07a8        ..      LSLS     r0,r5,#30
        0x0000050c:    d501        ..      BPL      0x512 ; __printf + 90
        0x0000050e:    f0250504    %...    BIC      r5,r5,#4
        0x00000512:    f8c4a01c    ....    STR      r10,[r4,#0x1c]
        0x00000516:    2700        .'      MOVS     r7,#0
        0x00000518:    f8c4a018    ....    STR      r10,[r4,#0x18]
        0x0000051c:    2e2a        *.      CMP      r6,#0x2a
        0x0000051e:    d009        ..      BEQ      0x534 ; __printf + 124
        0x00000520:    4630        0F      MOV      r0,r6
        0x00000522:    f002f8f1    ....    BL       _is_digit ; 0x2708
        0x00000526:    b338        8.      CBZ      r0,0x578 ; __printf + 192
        0x00000528:    eb040887    ....    ADD      r8,r4,r7,LSL #2
        0x0000052c:    3e30        0>      SUBS     r6,r6,#0x30
        0x0000052e:    f8c86018    ...`    STR      r6,[r8,#0x18]
        0x00000532:    e019        ..      B        0x568 ; __printf + 176
        0x00000534:    f8591b04    Y...    LDR      r1,[r9],#4
        0x00000538:    4620         F      MOV      r0,r4
        0x0000053a:    eb040287    ....    ADD      r2,r4,r7,LSL #2
        0x0000053e:    6191        .a      STR      r1,[r2,#0x18]
        0x00000540:    68e1        .h      LDR      r1,[r4,#0xc]
        0x00000542:    4788        .G      BLX      r1
        0x00000544:    2f01        ./      CMP      r7,#1
        0x00000546:    4606        .F      MOV      r6,r0
        0x00000548:    d118        ..      BNE      0x57c ; __printf + 196
        0x0000054a:    69e0        .i      LDR      r0,[r4,#0x1c]
        0x0000054c:    2800        .(      CMP      r0,#0
        0x0000054e:    da20         .      BGE      0x592 ; __printf + 218
        0x00000550:    f0250520    %. .    BIC      r5,r5,#0x20
        0x00000554:    e01d        ..      B        0x592 ; __printf + 218
        0x00000556:    f8d80018    ....    LDR      r0,[r8,#0x18]
        0x0000055a:    eb000080    ....    ADD      r0,r0,r0,LSL #2
        0x0000055e:    eb060040    ..@.    ADD      r0,r6,r0,LSL #1
        0x00000562:    3830        08      SUBS     r0,r0,#0x30
        0x00000564:    f8c80018    ....    STR      r0,[r8,#0x18]
        0x00000568:    4620         F      MOV      r0,r4
        0x0000056a:    68e1        .h      LDR      r1,[r4,#0xc]
        0x0000056c:    4788        .G      BLX      r1
        0x0000056e:    4606        .F      MOV      r6,r0
        0x00000570:    f002f8ca    ....    BL       _is_digit ; 0x2708
        0x00000574:    2800        .(      CMP      r0,#0
        0x00000576:    d1ee        ..      BNE      0x556 ; __printf + 158
        0x00000578:    2f01        ./      CMP      r7,#1
        0x0000057a:    d00a        ..      BEQ      0x592 ; __printf + 218
        0x0000057c:    2e2e        ..      CMP      r6,#0x2e
        0x0000057e:    d108        ..      BNE      0x592 ; __printf + 218
        0x00000580:    4620         F      MOV      r0,r4
        0x00000582:    68e1        .h      LDR      r1,[r4,#0xc]
        0x00000584:    4788        .G      BLX      r1
        0x00000586:    1c7f        ..      ADDS     r7,r7,#1
        0x00000588:    4606        .F      MOV      r6,r0
        0x0000058a:    2f02        ./      CMP      r7,#2
        0x0000058c:    f0450520    E. .    ORR      r5,r5,#0x20
        0x00000590:    dbc4        ..      BLT      0x51c ; __printf + 100
        0x00000592:    69a0        .i      LDR      r0,[r4,#0x18]
        0x00000594:    2800        .(      CMP      r0,#0
        0x00000596:    da03        ..      BGE      0x5a0 ; __printf + 232
        0x00000598:    4240        @B      RSBS     r0,r0,#0
        0x0000059a:    f0450501    E...    ORR      r5,r5,#1
        0x0000059e:    61a0        .a      STR      r0,[r4,#0x18]
        0x000005a0:    07e8        ..      LSLS     r0,r5,#31
        0x000005a2:    d001        ..      BEQ      0x5a8 ; __printf + 240
        0x000005a4:    f0250510    %...    BIC      r5,r5,#0x10
        0x000005a8:    b1a6        ..      CBZ      r6,0x5d4 ; __printf + 284
        0x000005aa:    f1a60041    ..A.    SUB      r0,r6,#0x41
        0x000005ae:    2819        .(      CMP      r0,#0x19
        0x000005b0:    d802        ..      BHI      0x5b8 ; __printf + 256
        0x000005b2:    3620         6      ADDS     r6,r6,#0x20
        0x000005b4:    f4456500    E..e    ORR      r5,r5,#0x800
        0x000005b8:    464a        JF      MOV      r2,r9
        0x000005ba:    4631        1F      MOV      r1,r6
        0x000005bc:    4620         F      MOV      r0,r4
        0x000005be:    6025        %`      STR      r5,[r4,#0]
        0x000005c0:    464d        MF      MOV      r5,r9
        0x000005c2:    f7fffe53    ..S.    BL       _printf_d ; 0x26c
        0x000005c6:    b160        `.      CBZ      r0,0x5e2 ; __printf + 298
        0x000005c8:    2801        .(      CMP      r0,#1
        0x000005ca:    d007        ..      BEQ      0x5dc ; __printf + 292
        0x000005cc:    1ded        ..      ADDS     r5,r5,#7
        0x000005ce:    f0250007    %...    BIC      r0,r5,#7
        0x000005d2:    e000        ..      B        0x5d6 ; __printf + 286
        0x000005d4:    e007        ..      B        0x5e6 ; __printf + 302
        0x000005d6:    f1000908    ....    ADD      r9,r0,#8
        0x000005da:    e778        x.      B        0x4ce ; __printf + 22
        0x000005dc:    f1050904    ....    ADD      r9,r5,#4
        0x000005e0:    e775        u.      B        0x4ce ; __printf + 22
        0x000005e2:    4630        0F      MOV      r0,r6
        0x000005e4:    e77a        z.      B        0x4dc ; __printf + 36
        0x000005e6:    6a20         j      LDR      r0,[r4,#0x20]
        0x000005e8:    e8bd9ff0    ....    POP      {r4-r12,pc}
    $d
        0x000005ec:    00002424    $$..    DCD    9252
    $t
    .text
    __aeabi_memclr4
    __aeabi_memclr8
    __rt_memclr_w
        0x000005f0:    f04f0200    O...    MOV      r2,#0
    _memset_w
        0x000005f4:    b500        ..      PUSH     {lr}
        0x000005f6:    4613        .F      MOV      r3,r2
        0x000005f8:    4694        .F      MOV      r12,r2
        0x000005fa:    4696        .F      MOV      lr,r2
        0x000005fc:    3920         9      SUBS     r1,r1,#0x20
        0x000005fe:    bf22        ".      ITTT     CS
        0x00000600:    e8a0500c    ...P    STMCS    r0!,{r2,r3,r12,lr}
        0x00000604:    e8a0500c    ...P    STMCS    r0!,{r2,r3,r12,lr}
        0x00000608:    f1b10120    .. .    SUBSCS   r1,r1,#0x20
        0x0000060c:    f4bfaff7    ....    BCS.W    0x5fe ; _memset_w + 10
        0x00000610:    0709        ..      LSLS     r1,r1,#28
        0x00000612:    bf28        (.      IT       CS
        0x00000614:    e8a0500c    ...P    STMCS    r0!,{r2,r3,r12,lr}
        0x00000618:    bf48        H.      IT       MI
        0x0000061a:    c00c        ..      STMMI    r0!,{r2,r3}
        0x0000061c:    f85deb04    ]...    POP      {lr}
        0x00000620:    0089        ..      LSLS     r1,r1,#2
        0x00000622:    bf28        (.      IT       CS
        0x00000624:    f8402b04    @..+    STRCS    r2,[r0],#4
        0x00000628:    bf08        ..      IT       EQ
        0x0000062a:    4770        pG      BXEQ     lr
        0x0000062c:    bf48        H.      IT       MI
        0x0000062e:    f8202b02     ..+    STRHMI   r2,[r0],#2
        0x00000632:    f0114f80    ...O    TST      r1,#0x40000000
        0x00000636:    bf18        ..      IT       NE
        0x00000638:    f8002b01    ...+    STRBNE   r2,[r0],#1
        0x0000063c:    4770        pG      BX       lr
    .text
    __use_two_region_memory
        0x0000063e:    4770        pG      BX       lr
    __rt_heap_escrow$2region
        0x00000640:    4770        pG      BX       lr
    __rt_heap_expand$2region
        0x00000642:    4770        pG      BX       lr
    .text
    _printf_int_common
        0x00000644:    e92d47f0    -..G    PUSH     {r4-r10,lr}
        0x00000648:    460d        .F      MOV      r5,r1
        0x0000064a:    4699        .F      MOV      r9,r3
        0x0000064c:    4692        .F      MOV      r10,r2
        0x0000064e:    4604        .F      MOV      r4,r0
        0x00000650:    f1000824    ..$.    ADD      r8,r0,#0x24
        0x00000654:    6801        .h      LDR      r1,[r0,#0]
        0x00000656:    0688        ..      LSLS     r0,r1,#26
        0x00000658:    d504        ..      BPL      0x664 ; _printf_int_common + 32
        0x0000065a:    69e0        .i      LDR      r0,[r4,#0x1c]
        0x0000065c:    f0210110    !...    BIC      r1,r1,#0x10
        0x00000660:    6021        !`      STR      r1,[r4,#0]
        0x00000662:    e000        ..      B        0x666 ; _printf_int_common + 34
        0x00000664:    2001        .       MOVS     r0,#1
        0x00000666:    42a8        .B      CMP      r0,r5
        0x00000668:    dd01        ..      BLE      0x66e ; _printf_int_common + 42
        0x0000066a:    1b47        G.      SUBS     r7,r0,r5
        0x0000066c:    e000        ..      B        0x670 ; _printf_int_common + 44
        0x0000066e:    2700        .'      MOVS     r7,#0
        0x00000670:    69a1        .i      LDR      r1,[r4,#0x18]
        0x00000672:    197a        z.      ADDS     r2,r7,r5
        0x00000674:    eb020009    ....    ADD      r0,r2,r9
        0x00000678:    1a08        ..      SUBS     r0,r1,r0
        0x0000067a:    61a0        .a      STR      r0,[r4,#0x18]
        0x0000067c:    7820         x      LDRB     r0,[r4,#0]
        0x0000067e:    06c0        ..      LSLS     r0,r0,#27
        0x00000680:    d402        ..      BMI      0x688 ; _printf_int_common + 68
        0x00000682:    4620         F      MOV      r0,r4
        0x00000684:    f7fffe88    ....    BL       _printf_pre_padding ; 0x398
        0x00000688:    2600        .&      MOVS     r6,#0
        0x0000068a:    e008        ..      B        0x69e ; _printf_int_common + 90
        0x0000068c:    e9d42101    ...!    LDRD     r2,r1,[r4,#4]
        0x00000690:    f81a0006    ....    LDRB     r0,[r10,r6]
        0x00000694:    4790        .G      BLX      r2
        0x00000696:    6a20         j      LDR      r0,[r4,#0x20]
        0x00000698:    1c40        @.      ADDS     r0,r0,#1
        0x0000069a:    1c76        v.      ADDS     r6,r6,#1
        0x0000069c:    6220         b      STR      r0,[r4,#0x20]
        0x0000069e:    454e        NE      CMP      r6,r9
        0x000006a0:    dbf4        ..      BLT      0x68c ; _printf_int_common + 72
        0x000006a2:    7820         x      LDRB     r0,[r4,#0]
        0x000006a4:    06c0        ..      LSLS     r0,r0,#27
        0x000006a6:    d50a        ..      BPL      0x6be ; _printf_int_common + 122
        0x000006a8:    4620         F      MOV      r0,r4
        0x000006aa:    f7fffe75    ..u.    BL       _printf_pre_padding ; 0x398
        0x000006ae:    e006        ..      B        0x6be ; _printf_int_common + 122
        0x000006b0:    e9d42101    ...!    LDRD     r2,r1,[r4,#4]
        0x000006b4:    2030        0       MOVS     r0,#0x30
        0x000006b6:    4790        .G      BLX      r2
        0x000006b8:    6a20         j      LDR      r0,[r4,#0x20]
        0x000006ba:    1c40        @.      ADDS     r0,r0,#1
        0x000006bc:    6220         b      STR      r0,[r4,#0x20]
        0x000006be:    1e38        8.      SUBS     r0,r7,#0
        0x000006c0:    f1a70701    ....    SUB      r7,r7,#1
        0x000006c4:    dcf4        ..      BGT      0x6b0 ; _printf_int_common + 108
        0x000006c6:    e007        ..      B        0x6d8 ; _printf_int_common + 148
        0x000006c8:    e9d42101    ...!    LDRD     r2,r1,[r4,#4]
        0x000006cc:    f8180005    ....    LDRB     r0,[r8,r5]
        0x000006d0:    4790        .G      BLX      r2
        0x000006d2:    6a20         j      LDR      r0,[r4,#0x20]
        0x000006d4:    1c40        @.      ADDS     r0,r0,#1
        0x000006d6:    6220         b      STR      r0,[r4,#0x20]
        0x000006d8:    1e28        (.      SUBS     r0,r5,#0
        0x000006da:    f1a50501    ....    SUB      r5,r5,#1
        0x000006de:    dcf3        ..      BGT      0x6c8 ; _printf_int_common + 132
        0x000006e0:    4620         F      MOV      r0,r4
        0x000006e2:    f7fffe6f    ..o.    BL       _printf_post_padding ; 0x3c4
        0x000006e6:    7820         x      LDRB     r0,[r4,#0]
        0x000006e8:    0600        ..      LSLS     r0,r0,#24
        0x000006ea:    d502        ..      BPL      0x6f2 ; _printf_int_common + 174
        0x000006ec:    2002        .       MOVS     r0,#2
        0x000006ee:    e8bd87f0    ....    POP      {r4-r10,pc}
        0x000006f2:    2001        .       MOVS     r0,#1
        0x000006f4:    e7fb        ..      B        0x6ee ; _printf_int_common + 170
        0x000006f6:    0000        ..      MOVS     r0,r0
    .text
    _printf_char_file
        0x000006f8:    4b07        .K      LDR      r3,[pc,#28] ; [0x718] = 0x2037
        0x000006fa:    b570        p.      PUSH     {r4-r6,lr}
        0x000006fc:    460d        .F      MOV      r5,r1
        0x000006fe:    447b        {D      ADD      r3,r3,pc
        0x00000700:    f000f811    ....    BL       _printf_char_common ; 0x726
        0x00000704:    4604        .F      MOV      r4,r0
        0x00000706:    4628        (F      MOV      r0,r5
        0x00000708:    f000f820    .. .    BL       ferror ; 0x74c
        0x0000070c:    b110        ..      CBZ      r0,0x714 ; _printf_char_file + 28
        0x0000070e:    f04f30ff    O..0    MOV      r0,#0xffffffff
        0x00000712:    bd70        p.      POP      {r4-r6,pc}
        0x00000714:    4620         F      MOV      r0,r4
        0x00000716:    bd70        p.      POP      {r4-r6,pc}
    $d
        0x00000718:    00002037    7 ..    DCD    8247
    $t
    .text
    _printf_input_char
        0x0000071c:    6901        .i      LDR      r1,[r0,#0x10]
        0x0000071e:    1c4a        J.      ADDS     r2,r1,#1
        0x00000720:    6102        .a      STR      r2,[r0,#0x10]
        0x00000722:    7808        .x      LDRB     r0,[r1,#0]
        0x00000724:    4770        pG      BX       lr
    _printf_char_common
        0x00000726:    b500        ..      PUSH     {lr}
        0x00000728:    b08f        ..      SUB      sp,sp,#0x3c
        0x0000072a:    e9cd3101    ...1    STRD     r3,r1,[sp,#4]
        0x0000072e:    2100        .!      MOVS     r1,#0
        0x00000730:    9105        ..      STR      r1,[sp,#0x14]
        0x00000732:    4905        .I      LDR      r1,[pc,#20] ; [0x748] = 0xffffffe5
        0x00000734:    4479        yD      ADD      r1,r1,pc
        0x00000736:    e9cd1003    ....    STRD     r1,r0,[sp,#0xc]
        0x0000073a:    4611        .F      MOV      r1,r2
        0x0000073c:    4668        hF      MOV      r0,sp
        0x0000073e:    f7fffebb    ....    BL       __printf ; 0x4b8
        0x00000742:    b00f        ..      ADD      sp,sp,#0x3c
        0x00000744:    bd00        ..      POP      {pc}
    $d
        0x00000746:    0000        ..      DCW    0
        0x00000748:    ffffffe5    ....    DCD    4294967269
    $t
    .text
    ferror
        0x0000074c:    7b00        .{      LDRB     r0,[r0,#0xc]
        0x0000074e:    f0000080    ....    AND      r0,r0,#0x80
        0x00000752:    4770        pG      BX       lr
    .text
    __user_setup_stackheap
        0x00000754:    4675        uF      MOV      r5,lr
        0x00000756:    f000f82b    ..+.    BL       __user_libspace ; 0x7b0
        0x0000075a:    46ae        .F      MOV      lr,r5
        0x0000075c:    0005        ..      MOVS     r5,r0
        0x0000075e:    4669        iF      MOV      r1,sp
        0x00000760:    4653        SF      MOV      r3,r10
        0x00000762:    f0200007     ...    BIC      r0,r0,#7
        0x00000766:    4685        .F      MOV      sp,r0
        0x00000768:    b018        ..      ADD      sp,sp,#0x60
        0x0000076a:    b520         .      PUSH     {r5,lr}
        0x0000076c:    f7fffdf0    ....    BL       __user_initial_stackheap ; 0x350
        0x00000770:    e8bd4020    .. @    POP      {r5,lr}
        0x00000774:    f04f0600    O...    MOV      r6,#0
        0x00000778:    f04f0700    O...    MOV      r7,#0
        0x0000077c:    f04f0800    O...    MOV      r8,#0
        0x00000780:    f04f0b00    O...    MOV      r11,#0
        0x00000784:    f0210107    !...    BIC      r1,r1,#7
        0x00000788:    46ac        .F      MOV      r12,r5
        0x0000078a:    e8ac09c0    ....    STM      r12!,{r6-r8,r11}
        0x0000078e:    e8ac09c0    ....    STM      r12!,{r6-r8,r11}
        0x00000792:    e8ac09c0    ....    STM      r12!,{r6-r8,r11}
        0x00000796:    e8ac09c0    ....    STM      r12!,{r6-r8,r11}
        0x0000079a:    468d        .F      MOV      sp,r1
        0x0000079c:    4770        pG      BX       lr
    .text
    exit
        0x0000079e:    b510        ..      PUSH     {r4,lr}
        0x000007a0:    4604        .F      MOV      r4,r0
        0x000007a2:    f3af8000    ....    NOP.W    
        0x000007a6:    4620         F      MOV      r0,r4
        0x000007a8:    e8bd4010    ...@    POP      {r4,lr}
        0x000007ac:    f7ffbd75    ..u.    B.W      __rt_exit ; 0x29a
    .text
    __user_libspace
    __user_perproc_libspace
    __user_perthread_libspace
        0x000007b0:    4800        .H      LDR      r0,[pc,#0] ; [0x7b4] = 0x200008a4
        0x000007b2:    4770        pG      BX       lr
    $d
        0x000007b4:    200008a4    ...     DCD    536873124
    $t
    i.ADC00_IRQHandler
    ADC00_IRQHandler
        0x000007b8:    2001        .       MOVS     r0,#1
        0x000007ba:    4905        .I      LDR      r1,[pc,#20] ; [0x7d0] = 0x400430f8
        0x000007bc:    6008        .`      STR      r0,[r1,#0]
        0x000007be:    4905        .I      LDR      r1,[pc,#20] ; [0x7d4] = 0x200001b8
        0x000007c0:    6008        .`      STR      r0,[r1,#0]
        0x000007c2:    4805        .H      LDR      r0,[pc,#20] ; [0x7d8] = 0x200001bc
        0x000007c4:    6800        .h      LDR      r0,[r0,#0]
        0x000007c6:    1c40        @.      ADDS     r0,r0,#1
        0x000007c8:    4903        .I      LDR      r1,[pc,#12] ; [0x7d8] = 0x200001bc
        0x000007ca:    6008        .`      STR      r0,[r1,#0]
        0x000007cc:    4770        pG      BX       lr
    $d
        0x000007ce:    0000        ..      DCW    0
        0x000007d0:    400430f8    .0.@    DCD    1074016504
        0x000007d4:    200001b8    ...     DCD    536871352
        0x000007d8:    200001bc    ...     DCD    536871356
    $t
    i.CLK_DisablePLL
    CLK_DisablePLL
        0x000007dc:    4804        .H      LDR      r0,[pc,#16] ; [0x7f0] = 0x40000240
        0x000007de:    6800        .h      LDR      r0,[r0,#0]
        0x000007e0:    f4403080    @..0    ORR      r0,r0,#0x10000
        0x000007e4:    f04f4180    O..A    MOV      r1,#0x40000000
        0x000007e8:    f8c10240    ..@.    STR      r0,[r1,#0x240]
        0x000007ec:    4770        pG      BX       lr
    $d
        0x000007ee:    0000        ..      DCW    0
        0x000007f0:    40000240    @..@    DCD    1073742400
    $t
    i.CLK_EnableModuleClock
    CLK_EnableModuleClock
        0x000007f4:    b510        ..      PUSH     {r4,lr}
        0x000007f6:    2200        ."      MOVS     r2,#0
        0x000007f8:    2100        .!      MOVS     r1,#0
        0x000007fa:    f000041f    ....    AND      r4,r0,#0x1f
        0x000007fe:    2301        .#      MOVS     r3,#1
        0x00000800:    fa03f204    ....    LSL      r2,r3,r4
        0x00000804:    4904        .I      LDR      r1,[pc,#16] ; [0x818] = 0x40000204
        0x00000806:    2303        .#      MOVS     r3,#3
        0x00000808:    ea037390    ...s    AND      r3,r3,r0,LSR #30
        0x0000080c:    eb010183    ....    ADD      r1,r1,r3,LSL #2
        0x00000810:    680b        .h      LDR      r3,[r1,#0]
        0x00000812:    4313        .C      ORRS     r3,r3,r2
        0x00000814:    600b        .`      STR      r3,[r1,#0]
        0x00000816:    bd10        ..      POP      {r4,pc}
    $d
        0x00000818:    40000204    ...@    DCD    1073742340
    $t
    i.CLK_EnablePLL
    CLK_EnablePLL
        0x0000081c:    e92d4ff3    -..O    PUSH     {r0,r1,r4-r11,lr}
        0x00000820:    b087        ..      SUB      sp,sp,#0x1c
        0x00000822:    460c        .F      MOV      r4,r1
        0x00000824:    f7ffffda    ....    BL       CLK_DisablePLL ; 0x7dc
        0x00000828:    9807        ..      LDR      r0,[sp,#0x1c]
        0x0000082a:    b980        ..      CBNZ     r0,0x84e ; CLK_EnablePLL + 50
        0x0000082c:    4859        YH      LDR      r0,[pc,#356] ; [0x994] = 0x40000200
        0x0000082e:    6800        .h      LDR      r0,[r0,#0]
        0x00000830:    f0400001    @...    ORR      r0,r0,#1
        0x00000834:    f04f4180    O..A    MOV      r1,#0x40000000
        0x00000838:    f8c10200    ....    STR      r0,[r1,#0x200]
        0x0000083c:    2001        .       MOVS     r0,#1
        0x0000083e:    f000f9c3    ....    BL       CLK_WaitClockReady ; 0xbc8
        0x00000842:    2000        .       MOVS     r0,#0
        0x00000844:    9006        ..      STR      r0,[sp,#0x18]
        0x00000846:    f8df9150    ..P.    LDR      r9,[pc,#336] ; [0x998] = 0xb71b00
        0x0000084a:    2602        .&      MOVS     r6,#2
        0x0000084c:    e010        ..      B        0x870 ; CLK_EnablePLL + 84
        0x0000084e:    4851        QH      LDR      r0,[pc,#324] ; [0x994] = 0x40000200
        0x00000850:    6800        .h      LDR      r0,[r0,#0]
        0x00000852:    f0400004    @...    ORR      r0,r0,#4
        0x00000856:    f04f4180    O..A    MOV      r1,#0x40000000
        0x0000085a:    f8c10200    ....    STR      r0,[r1,#0x200]
        0x0000085e:    2010        .       MOVS     r0,#0x10
        0x00000860:    f000f9b2    ....    BL       CLK_WaitClockReady ; 0xbc8
        0x00000864:    f44f2000    O..     MOV      r0,#0x80000
        0x00000868:    9006        ..      STR      r0,[sp,#0x18]
        0x0000086a:    f8df912c    ..,.    LDR      r9,[pc,#300] ; [0x998] = 0xb71b00
        0x0000086e:    2604        .&      MOVS     r6,#4
        0x00000870:    484a        JH      LDR      r0,[pc,#296] ; [0x99c] = 0x1dcd6500
        0x00000872:    4284        .B      CMP      r4,r0
        0x00000874:    d877        w.      BHI      0x966 ; CLK_EnablePLL + 330
        0x00000876:    484a        JH      LDR      r0,[pc,#296] ; [0x9a0] = 0x2faf080
        0x00000878:    4284        .B      CMP      r4,r0
        0x0000087a:    d374        t.      BCC      0x966 ; CLK_EnablePLL + 330
        0x0000087c:    f04f38ff    O..8    MOV      r8,#0xffffffff
        0x00000880:    2000        .       MOVS     r0,#0
        0x00000882:    9002        ..      STR      r0,[sp,#8]
        0x00000884:    9003        ..      STR      r0,[sp,#0xc]
        0x00000886:    9001        ..      STR      r0,[sp,#4]
        0x00000888:    9400        ..      STR      r4,[sp,#0]
        0x0000088a:    2501        .%      MOVS     r5,#1
        0x0000088c:    e04b        K.      B        0x926 ; CLK_EnablePLL + 266
        0x0000088e:    f1b80f00    ....    CMP      r8,#0
        0x00000892:    d100        ..      BNE      0x896 ; CLK_EnablePLL + 122
        0x00000894:    e049        I.      B        0x92a ; CLK_EnablePLL + 270
        0x00000896:    2d03        .-      CMP      r5,#3
        0x00000898:    d044        D.      BEQ      0x924 ; CLK_EnablePLL + 264
        0x0000089a:    2d04        .-      CMP      r5,#4
        0x0000089c:    d102        ..      BNE      0x8a4 ; CLK_EnablePLL + 136
        0x0000089e:    9800        ..      LDR      r0,[sp,#0]
        0x000008a0:    0084        ..      LSLS     r4,r0,#2
        0x000008a2:    e003        ..      B        0x8ac ; CLK_EnablePLL + 144
        0x000008a4:    2d02        .-      CMP      r5,#2
        0x000008a6:    d101        ..      BNE      0x8ac ; CLK_EnablePLL + 144
        0x000008a8:    9800        ..      LDR      r0,[sp,#0]
        0x000008aa:    0044        D.      LSLS     r4,r0,#1
        0x000008ac:    2602        .&      MOVS     r6,#2
        0x000008ae:    e036        6.      B        0x91e ; CLK_EnablePLL + 258
        0x000008b0:    f1b80f00    ....    CMP      r8,#0
        0x000008b4:    d100        ..      BNE      0x8b8 ; CLK_EnablePLL + 156
        0x000008b6:    e034        4.      B        0x922 ; CLK_EnablePLL + 262
        0x000008b8:    fbb9fbf6    ....    UDIV     r11,r9,r6
        0x000008bc:    4839        9H      LDR      r0,[pc,#228] ; [0x9a4] = 0x3d0900
        0x000008be:    4583        .E      CMP      r11,r0
        0x000008c0:    d32c        ,.      BCC      0x91c ; CLK_EnablePLL + 256
        0x000008c2:    0040        @.      LSLS     r0,r0,#1
        0x000008c4:    4583        .E      CMP      r11,r0
        0x000008c6:    d829        ).      BHI      0x91c ; CLK_EnablePLL + 256
        0x000008c8:    f04f0a02    O...    MOV      r10,#2
        0x000008cc:    e021        !.      B        0x912 ; CLK_EnablePLL + 246
        0x000008ce:    f3cb005d    ..].    UBFX     r0,r11,#1,#30
        0x000008d2:    fb00f70a    ....    MUL      r7,r0,r10
        0x000008d6:    4832        2H      LDR      r0,[pc,#200] ; [0x9a0] = 0x2faf080
        0x000008d8:    4287        .B      CMP      r7,r0
        0x000008da:    d318        ..      BCC      0x90e ; CLK_EnablePLL + 242
        0x000008dc:    4832        2H      LDR      r0,[pc,#200] ; [0x9a8] = 0x7735940
        0x000008de:    4287        .B      CMP      r7,r0
        0x000008e0:    d815        ..      BHI      0x90e ; CLK_EnablePLL + 242
        0x000008e2:    ebb70f94    ....    CMP      r7,r4,LSR #2
        0x000008e6:    d902        ..      BLS      0x8ee ; CLK_EnablePLL + 210
        0x000008e8:    eba70094    ....    SUB      r0,r7,r4,LSR #2
        0x000008ec:    e001        ..      B        0x8f2 ; CLK_EnablePLL + 214
        0x000008ee:    ebc70094    ....    RSB      r0,r7,r4,LSR #2
        0x000008f2:    9004        ..      STR      r0,[sp,#0x10]
        0x000008f4:    9804        ..      LDR      r0,[sp,#0x10]
        0x000008f6:    4540        @E      CMP      r0,r8
        0x000008f8:    d209        ..      BCS      0x90e ; CLK_EnablePLL + 242
        0x000008fa:    f8dd8010    ....    LDR      r8,[sp,#0x10]
        0x000008fe:    9602        ..      STR      r6,[sp,#8]
        0x00000900:    f8cda00c    ....    STR      r10,[sp,#0xc]
        0x00000904:    9501        ..      STR      r5,[sp,#4]
        0x00000906:    f1b80f00    ....    CMP      r8,#0
        0x0000090a:    d100        ..      BNE      0x90e ; CLK_EnablePLL + 242
        0x0000090c:    e005        ..      B        0x91a ; CLK_EnablePLL + 254
        0x0000090e:    f10a0a01    ....    ADD      r10,r10,#1
        0x00000912:    f2402001    @..     MOV      r0,#0x201
        0x00000916:    4582        .E      CMP      r10,r0
        0x00000918:    d9d9        ..      BLS      0x8ce ; CLK_EnablePLL + 178
        0x0000091a:    bf00        ..      NOP      
        0x0000091c:    1c76        v.      ADDS     r6,r6,#1
        0x0000091e:    2e20         .      CMP      r6,#0x20
        0x00000920:    d9c6        ..      BLS      0x8b0 ; CLK_EnablePLL + 148
        0x00000922:    bf00        ..      NOP      
        0x00000924:    1c6d        m.      ADDS     r5,r5,#1
        0x00000926:    2d04        .-      CMP      r5,#4
        0x00000928:    d9b1        ..      BLS      0x88e ; CLK_EnablePLL + 114
        0x0000092a:    bf00        ..      NOP      
        0x0000092c:    9801        ..      LDR      r0,[sp,#4]
        0x0000092e:    1e40        @.      SUBS     r0,r0,#1
        0x00000930:    9906        ..      LDR      r1,[sp,#0x18]
        0x00000932:    ea413180    A..1    ORR      r1,r1,r0,LSL #14
        0x00000936:    9802        ..      LDR      r0,[sp,#8]
        0x00000938:    1e40        @.      SUBS     r0,r0,#1
        0x0000093a:    ea412140    A.@!    ORR      r1,r1,r0,LSL #9
        0x0000093e:    9803        ..      LDR      r0,[sp,#0xc]
        0x00000940:    1e80        ..      SUBS     r0,r0,#2
        0x00000942:    4301        .C      ORRS     r1,r1,r0
        0x00000944:    4813        .H      LDR      r0,[pc,#76] ; [0x994] = 0x40000200
        0x00000946:    3040        @0      ADDS     r0,r0,#0x40
        0x00000948:    6001        .`      STR      r1,[r0,#0]
        0x0000094a:    2004        .       MOVS     r0,#4
        0x0000094c:    f000f93c    ..<.    BL       CLK_WaitClockReady ; 0xbc8
        0x00000950:    e9dd0101    ....    LDRD     r0,r1,[sp,#4]
        0x00000954:    4348        HC      MULS     r0,r1,r0
        0x00000956:    fbb9f0f0    ....    UDIV     r0,r9,r0
        0x0000095a:    9903        ..      LDR      r1,[sp,#0xc]
        0x0000095c:    4348        HC      MULS     r0,r1,r0
        0x0000095e:    0040        @.      LSLS     r0,r0,#1
        0x00000960:    9005        ..      STR      r0,[sp,#0x14]
        0x00000962:    e012        ..      B        0x98a ; CLK_EnablePLL + 366
        0x00000964:    e7ff        ..      B        0x966 ; CLK_EnablePLL + 330
        0x00000966:    9807        ..      LDR      r0,[sp,#0x1c]
        0x00000968:    b928        (.      CBNZ     r0,0x976 ; CLK_EnablePLL + 346
        0x0000096a:    f244201e    D..     MOV      r0,#0x421e
        0x0000096e:    4909        .I      LDR      r1,[pc,#36] ; [0x994] = 0x40000200
        0x00000970:    3140        @1      ADDS     r1,r1,#0x40
        0x00000972:    6008        .`      STR      r0,[r1,#0]
        0x00000974:    e003        ..      B        0x97e ; CLK_EnablePLL + 354
        0x00000976:    480d        .H      LDR      r0,[pc,#52] ; [0x9ac] = 0x8421e
        0x00000978:    4906        .I      LDR      r1,[pc,#24] ; [0x994] = 0x40000200
        0x0000097a:    3140        @1      ADDS     r1,r1,#0x40
        0x0000097c:    6008        .`      STR      r0,[r1,#0]
        0x0000097e:    2004        .       MOVS     r0,#4
        0x00000980:    f000f922    ..".    BL       CLK_WaitClockReady ; 0xbc8
        0x00000984:    f000f81e    ....    BL       CLK_GetPLLClockFreq ; 0x9c4
        0x00000988:    9005        ..      STR      r0,[sp,#0x14]
        0x0000098a:    9805        ..      LDR      r0,[sp,#0x14]
        0x0000098c:    b009        ..      ADD      sp,sp,#0x24
        0x0000098e:    e8bd8ff0    ....    POP      {r4-r11,pc}
    $d
        0x00000992:    0000        ..      DCW    0
        0x00000994:    40000200    ...@    DCD    1073742336
        0x00000998:    00b71b00    ....    DCD    12000000
        0x0000099c:    1dcd6500    .e..    DCD    500000000
        0x000009a0:    02faf080    ....    DCD    50000000
        0x000009a4:    003d0900    ..=.    DCD    4000000
        0x000009a8:    07735940    @Ys.    DCD    125000000
        0x000009ac:    0008421e    .B..    DCD    541214
    $t
    i.CLK_EnableXtalRC
    CLK_EnableXtalRC
        0x000009b0:    4903        .I      LDR      r1,[pc,#12] ; [0x9c0] = 0x40000200
        0x000009b2:    6809        .h      LDR      r1,[r1,#0]
        0x000009b4:    4301        .C      ORRS     r1,r1,r0
        0x000009b6:    f04f4280    O..B    MOV      r2,#0x40000000
        0x000009ba:    f8c21200    ....    STR      r1,[r2,#0x200]
        0x000009be:    4770        pG      BX       lr
    $d
        0x000009c0:    40000200    ...@    DCD    1073742336
    $t
    i.CLK_GetPLLClockFreq
    CLK_GetPLLClockFreq
        0x000009c4:    b5f8        ..      PUSH     {r3-r7,lr}
        0x000009c6:    2000        .       MOVS     r0,#0
        0x000009c8:    a618        ..      ADR      r6,{pc}+0x64 ; 0xa2c
        0x000009ca:    6836        6h      LDR      r6,[r6,#0]
        0x000009cc:    9600        ..      STR      r6,[sp,#0]
        0x000009ce:    4e18        .N      LDR      r6,[pc,#96] ; [0xa30] = 0x40000240
        0x000009d0:    6831        1h      LDR      r1,[r6,#0]
        0x000009d2:    f40126a0    ...&    AND      r6,r1,#0x50000
        0x000009d6:    b106        ..      CBZ      r6,0x9da ; CLK_GetPLLClockFreq + 22
        0x000009d8:    e027        '.      B        0xa2a ; CLK_GetPLLClockFreq + 102
        0x000009da:    f4013600    ...6    AND      r6,r1,#0x20000
        0x000009de:    f5b63f00    ...?    CMP      r6,#0x20000
        0x000009e2:    d109        ..      BNE      0x9f8 ; CLK_GetPLLClockFreq + 52
        0x000009e4:    f4012600    ...&    AND      r6,r1,#0x80000
        0x000009e8:    f5b62f00    .../    CMP      r6,#0x80000
        0x000009ec:    d101        ..      BNE      0x9f2 ; CLK_GetPLLClockFreq + 46
        0x000009ee:    4a11        .J      LDR      r2,[pc,#68] ; [0xa34] = 0xb71b00
        0x000009f0:    e000        ..      B        0x9f4 ; CLK_GetPLLClockFreq + 48
        0x000009f2:    4a10        .J      LDR      r2,[pc,#64] ; [0xa34] = 0xb71b00
        0x000009f4:    4610        .F      MOV      r0,r2
        0x000009f6:    e018        ..      B        0xa2a ; CLK_GetPLLClockFreq + 102
        0x000009f8:    f4012600    ...&    AND      r6,r1,#0x80000
        0x000009fc:    f5b62f00    .../    CMP      r6,#0x80000
        0x00000a00:    d101        ..      BNE      0xa06 ; CLK_GetPLLClockFreq + 66
        0x00000a02:    4a0c        .J      LDR      r2,[pc,#48] ; [0xa34] = 0xb71b00
        0x00000a04:    e000        ..      B        0xa08 ; CLK_GetPLLClockFreq + 68
        0x00000a06:    4a0b        .J      LDR      r2,[pc,#44] ; [0xa34] = 0xb71b00
        0x00000a08:    f3c13781    ...7    UBFX     r7,r1,#14,#2
        0x00000a0c:    f81d4007    ...@    LDRB     r4,[sp,r7]
        0x00000a10:    f3c10608    ....    UBFX     r6,r1,#0,#9
        0x00000a14:    1cb3        ..      ADDS     r3,r6,#2
        0x00000a16:    f3c12644    ..D&    UBFX     r6,r1,#9,#5
        0x00000a1a:    1c75        u.      ADDS     r5,r6,#1
        0x00000a1c:    0896        ..      LSRS     r6,r2,#2
        0x00000a1e:    435e        ^C      MULS     r6,r3,r6
        0x00000a20:    fb15f704    ....    SMULBB   r7,r5,r4
        0x00000a24:    fbb6f6f7    ....    UDIV     r6,r6,r7
        0x00000a28:    00f0        ..      LSLS     r0,r6,#3
        0x00000a2a:    bdf8        ..      POP      {r3-r7,pc}
    $d
        0x00000a2c:    04020201    ....    DCD    67240449
        0x00000a30:    40000240    @..@    DCD    1073742400
        0x00000a34:    00b71b00    ....    DCD    12000000
    $t
    i.CLK_SetCoreClock
    CLK_SetCoreClock
        0x00000a38:    b570        p.      PUSH     {r4-r6,lr}
        0x00000a3a:    4604        .F      MOV      r4,r0
        0x00000a3c:    4825        %H      LDR      r0,[pc,#148] ; [0xad4] = 0x40000250
        0x00000a3e:    6800        .h      LDR      r0,[r0,#0]
        0x00000a40:    f0000510    ....    AND      r5,r0,#0x10
        0x00000a44:    4824        $H      LDR      r0,[pc,#144] ; [0xad8] = 0xb71b000
        0x00000a46:    4284        .B      CMP      r4,r0
        0x00000a48:    d900        ..      BLS      0xa4c ; CLK_SetCoreClock + 20
        0x00000a4a:    4604        .F      MOV      r4,r0
        0x00000a4c:    4821        !H      LDR      r0,[pc,#132] ; [0xad4] = 0x40000250
        0x00000a4e:    3850        P8      SUBS     r0,r0,#0x50
        0x00000a50:    6800        .h      LDR      r0,[r0,#0]
        0x00000a52:    f0400004    @...    ORR      r0,r0,#4
        0x00000a56:    f04f4180    O..A    MOV      r1,#0x40000000
        0x00000a5a:    f8c10200    ....    STR      r0,[r1,#0x200]
        0x00000a5e:    2010        .       MOVS     r0,#0x10
        0x00000a60:    f000f8b2    ....    BL       CLK_WaitClockReady ; 0xbc8
        0x00000a64:    f04f4080    O..@    MOV      r0,#0x40000000
        0x00000a68:    f8d00210    ....    LDR      r0,[r0,#0x210]
        0x00000a6c:    f0400007    @...    ORR      r0,r0,#7
        0x00000a70:    f04f4180    O..A    MOV      r1,#0x40000000
        0x00000a74:    f8c10210    ....    STR      r0,[r1,#0x210]
        0x00000a78:    4608        .F      MOV      r0,r1
        0x00000a7a:    f8d00220    .. .    LDR      r0,[r0,#0x220]
        0x00000a7e:    f020000f     ...    BIC      r0,r0,#0xf
        0x00000a82:    f8c10220    .. .    STR      r0,[r1,#0x220]
        0x00000a86:    4813        .H      LDR      r0,[pc,#76] ; [0xad4] = 0x40000250
        0x00000a88:    3850        P8      SUBS     r0,r0,#0x50
        0x00000a8a:    6800        .h      LDR      r0,[r0,#0]
        0x00000a8c:    f0000001    ....    AND      r0,r0,#1
        0x00000a90:    b128        (.      CBZ      r0,0xa9e ; CLK_SetCoreClock + 102
        0x00000a92:    4621        !F      MOV      r1,r4
        0x00000a94:    2000        .       MOVS     r0,#0
        0x00000a96:    f7fffec1    ....    BL       CLK_EnablePLL ; 0x81c
        0x00000a9a:    4604        .F      MOV      r4,r0
        0x00000a9c:    e009        ..      B        0xab2 ; CLK_SetCoreClock + 122
        0x00000a9e:    4621        !F      MOV      r1,r4
        0x00000aa0:    f44f2000    O..     MOV      r0,#0x80000
        0x00000aa4:    f7fffeba    ....    BL       CLK_EnablePLL ; 0x81c
        0x00000aa8:    4604        .F      MOV      r4,r0
        0x00000aaa:    480a        .H      LDR      r0,[pc,#40] ; [0xad4] = 0x40000250
        0x00000aac:    6800        .h      LDR      r0,[r0,#0]
        0x00000aae:    f0000510    ....    AND      r5,r0,#0x10
        0x00000ab2:    2100        .!      MOVS     r1,#0
        0x00000ab4:    2002        .       MOVS     r0,#2
        0x00000ab6:    f000f811    ....    BL       CLK_SetHCLK ; 0xadc
        0x00000aba:    b945        E.      CBNZ     r5,0xace ; CLK_SetCoreClock + 150
        0x00000abc:    4805        .H      LDR      r0,[pc,#20] ; [0xad4] = 0x40000250
        0x00000abe:    3850        P8      SUBS     r0,r0,#0x50
        0x00000ac0:    6800        .h      LDR      r0,[r0,#0]
        0x00000ac2:    f0200004     ...    BIC      r0,r0,#4
        0x00000ac6:    f04f4180    O..A    MOV      r1,#0x40000000
        0x00000aca:    f8c10200    ....    STR      r0,[r1,#0x200]
        0x00000ace:    4620         F      MOV      r0,r4
        0x00000ad0:    bd70        p.      POP      {r4-r6,pc}
    $d
        0x00000ad2:    0000        ..      DCW    0
        0x00000ad4:    40000250    P..@    DCD    1073742416
        0x00000ad8:    0b71b000    ..q.    DCD    192000000
    $t
    i.CLK_SetHCLK
    CLK_SetHCLK
        0x00000adc:    b570        p.      PUSH     {r4-r6,lr}
        0x00000ade:    4604        .F      MOV      r4,r0
        0x00000ae0:    460d        .F      MOV      r5,r1
        0x00000ae2:    481c        .H      LDR      r0,[pc,#112] ; [0xb54] = 0x40000250
        0x00000ae4:    6800        .h      LDR      r0,[r0,#0]
        0x00000ae6:    f0000610    ....    AND      r6,r0,#0x10
        0x00000aea:    f04f4080    O..@    MOV      r0,#0x40000000
        0x00000aee:    f8d00200    ....    LDR      r0,[r0,#0x200]
        0x00000af2:    f0400004    @...    ORR      r0,r0,#4
        0x00000af6:    4917        .I      LDR      r1,[pc,#92] ; [0xb54] = 0x40000250
        0x00000af8:    3950        P9      SUBS     r1,r1,#0x50
        0x00000afa:    6008        .`      STR      r0,[r1,#0]
        0x00000afc:    2010        .       MOVS     r0,#0x10
        0x00000afe:    f000f863    ..c.    BL       CLK_WaitClockReady ; 0xbc8
        0x00000b02:    4814        .H      LDR      r0,[pc,#80] ; [0xb54] = 0x40000250
        0x00000b04:    3840        @8      SUBS     r0,r0,#0x40
        0x00000b06:    6800        .h      LDR      r0,[r0,#0]
        0x00000b08:    f0200007     ...    BIC      r0,r0,#7
        0x00000b0c:    1dc0        ..      ADDS     r0,r0,#7
        0x00000b0e:    f04f4180    O..A    MOV      r1,#0x40000000
        0x00000b12:    f8c10210    ....    STR      r0,[r1,#0x210]
        0x00000b16:    480f        .H      LDR      r0,[pc,#60] ; [0xb54] = 0x40000250
        0x00000b18:    3830        08      SUBS     r0,r0,#0x30
        0x00000b1a:    6800        .h      LDR      r0,[r0,#0]
        0x00000b1c:    f020000f     ...    BIC      r0,r0,#0xf
        0x00000b20:    4328        (C      ORRS     r0,r0,r5
        0x00000b22:    f8c10220    .. .    STR      r0,[r1,#0x220]
        0x00000b26:    480b        .H      LDR      r0,[pc,#44] ; [0xb54] = 0x40000250
        0x00000b28:    3840        @8      SUBS     r0,r0,#0x40
        0x00000b2a:    6800        .h      LDR      r0,[r0,#0]
        0x00000b2c:    f0200007     ...    BIC      r0,r0,#7
        0x00000b30:    4320         C      ORRS     r0,r0,r4
        0x00000b32:    4908        .I      LDR      r1,[pc,#32] ; [0xb54] = 0x40000250
        0x00000b34:    3940        @9      SUBS     r1,r1,#0x40
        0x00000b36:    6008        .`      STR      r0,[r1,#0]
        0x00000b38:    f001fa94    ....    BL       SystemCoreClockUpdate ; 0x2064
        0x00000b3c:    b946        F.      CBNZ     r6,0xb50 ; CLK_SetHCLK + 116
        0x00000b3e:    4805        .H      LDR      r0,[pc,#20] ; [0xb54] = 0x40000250
        0x00000b40:    3850        P8      SUBS     r0,r0,#0x50
        0x00000b42:    6800        .h      LDR      r0,[r0,#0]
        0x00000b44:    f0200004     ...    BIC      r0,r0,#4
        0x00000b48:    f04f4180    O..A    MOV      r1,#0x40000000
        0x00000b4c:    f8c10200    ....    STR      r0,[r1,#0x200]
        0x00000b50:    bd70        p.      POP      {r4-r6,pc}
    $d
        0x00000b52:    0000        ..      DCW    0
        0x00000b54:    40000250    P..@    DCD    1073742416
    $t
    i.CLK_SetModuleClock
    CLK_SetModuleClock
        0x00000b58:    b5f0        ..      PUSH     {r4-r7,lr}
        0x00000b5a:    2300        .#      MOVS     r3,#0
        0x00000b5c:    2400        .$      MOVS     r4,#0
        0x00000b5e:    f3c02587    ...%    UBFX     r5,r0,#10,#8
        0x00000b62:    b1dd        ..      CBZ      r5,0xb9c ; CLK_SetModuleClock + 68
        0x00000b64:    f3c04581    ...E    UBFX     r5,r0,#18,#2
        0x00000b68:    2d02        .-      CMP      r5,#2
        0x00000b6a:    d101        ..      BNE      0xb70 ; CLK_SetModuleClock + 24
        0x00000b6c:    4c15        .L      LDR      r4,[pc,#84] ; [0xbc4] = 0x4000022c
        0x00000b6e:    e00c        ..      B        0xb8a ; CLK_SetModuleClock + 50
        0x00000b70:    f3c04581    ...E    UBFX     r5,r0,#18,#2
        0x00000b74:    2d03        .-      CMP      r5,#3
        0x00000b76:    d102        ..      BNE      0xb7e ; CLK_SetModuleClock + 38
        0x00000b78:    4c12        .L      LDR      r4,[pc,#72] ; [0xbc4] = 0x4000022c
        0x00000b7a:    1d24        $.      ADDS     r4,r4,#4
        0x00000b7c:    e005        ..      B        0xb8a ; CLK_SetModuleClock + 50
        0x00000b7e:    f3c04581    ...E    UBFX     r5,r0,#18,#2
        0x00000b82:    4e10        .N      LDR      r6,[pc,#64] ; [0xbc4] = 0x4000022c
        0x00000b84:    3e0c        .>      SUBS     r6,r6,#0xc
        0x00000b86:    eb060485    ....    ADD      r4,r6,r5,LSL #2
        0x00000b8a:    6825        %h      LDR      r5,[r4,#0]
        0x00000b8c:    f3c02687    ...&    UBFX     r6,r0,#10,#8
        0x00000b90:    f3c01744    ..D.    UBFX     r7,r0,#5,#5
        0x00000b94:    40be        .@      LSLS     r6,r6,r7
        0x00000b96:    43b5        .C      BICS     r5,r5,r6
        0x00000b98:    4315        .C      ORRS     r5,r5,r2
        0x00000b9a:    6025        %`      STR      r5,[r4,#0]
        0x00000b9c:    f3c06542    ..Be    UBFX     r5,r0,#25,#3
        0x00000ba0:    b175        u.      CBZ      r5,0xbc0 ; CLK_SetModuleClock + 104
        0x00000ba2:    f3c07501    ...u    UBFX     r5,r0,#28,#2
        0x00000ba6:    4e07        .N      LDR      r6,[pc,#28] ; [0xbc4] = 0x4000022c
        0x00000ba8:    3e1c        .>      SUBS     r6,r6,#0x1c
        0x00000baa:    eb060385    ....    ADD      r3,r6,r5,LSL #2
        0x00000bae:    681d        .h      LDR      r5,[r3,#0]
        0x00000bb0:    f3c06642    ..Bf    UBFX     r6,r0,#25,#3
        0x00000bb4:    f3c05704    ...W    UBFX     r7,r0,#20,#5
        0x00000bb8:    40be        .@      LSLS     r6,r6,r7
        0x00000bba:    43b5        .C      BICS     r5,r5,r6
        0x00000bbc:    430d        .C      ORRS     r5,r5,r1
        0x00000bbe:    601d        .`      STR      r5,[r3,#0]
        0x00000bc0:    bdf0        ..      POP      {r4-r7,pc}
    $d
        0x00000bc2:    0000        ..      DCW    0
        0x00000bc4:    4000022c    ,..@    DCD    1073742380
    $t
    i.CLK_WaitClockReady
    CLK_WaitClockReady
        0x00000bc8:    b510        ..      PUSH     {r4,lr}
        0x00000bca:    4601        .F      MOV      r1,r0
        0x00000bcc:    4a07        .J      LDR      r2,[pc,#28] ; [0xbec] = 0x20f580
        0x00000bce:    2001        .       MOVS     r0,#1
        0x00000bd0:    e005        ..      B        0xbde ; CLK_WaitClockReady + 22
        0x00000bd2:    1e13        ..      SUBS     r3,r2,#0
        0x00000bd4:    f1a20201    ....    SUB      r2,r2,#1
        0x00000bd8:    dc01        ..      BGT      0xbde ; CLK_WaitClockReady + 22
        0x00000bda:    2000        .       MOVS     r0,#0
        0x00000bdc:    e004        ..      B        0xbe8 ; CLK_WaitClockReady + 32
        0x00000bde:    4b04        .K      LDR      r3,[pc,#16] ; [0xbf0] = 0x40000250
        0x00000be0:    681b        .h      LDR      r3,[r3,#0]
        0x00000be2:    400b        .@      ANDS     r3,r3,r1
        0x00000be4:    428b        .B      CMP      r3,r1
        0x00000be6:    d1f4        ..      BNE      0xbd2 ; CLK_WaitClockReady + 10
        0x00000be8:    bf00        ..      NOP      
        0x00000bea:    bd10        ..      POP      {r4,pc}
    $d
        0x00000bec:    0020f580    .. .    DCD    2160000
        0x00000bf0:    40000250    P..@    DCD    1073742416
    $t
    i.CalCheckSum
    CalCheckSum
        0x00000bf4:    b530        0.      PUSH     {r4,r5,lr}
        0x00000bf6:    4602        .F      MOV      r2,r0
        0x00000bf8:    2300        .#      MOVS     r3,#0
        0x00000bfa:    2000        .       MOVS     r0,#0
        0x00000bfc:    e003        ..      B        0xc06 ; CalCheckSum + 18
        0x00000bfe:    461c        .F      MOV      r4,r3
        0x00000c00:    1c5b        [.      ADDS     r3,r3,#1
        0x00000c02:    5d14        .]      LDRB     r4,[r2,r4]
        0x00000c04:    4420         D      ADD      r0,r0,r4
        0x00000c06:    1e0c        ..      SUBS     r4,r1,#0
        0x00000c08:    f1a10101    ....    SUB      r1,r1,#1
        0x00000c0c:    d1f7        ..      BNE      0xbfe ; CalCheckSum + 10
        0x00000c0e:    bd30        0.      POP      {r4,r5,pc}
    i.EADC_ConfigSampleModule
    EADC_ConfigSampleModule
        0x00000c10:    b530        0.      PUSH     {r4,r5,lr}
        0x00000c12:    f1000480    ....    ADD      r4,r0,#0x80
        0x00000c16:    f8544021    T.!@    LDR      r4,[r4,r1,LSL #2]
        0x00000c1a:    4d08        .M      LDR      r5,[pc,#32] ; [0xc3c] = 0xffe0ffc0
        0x00000c1c:    402c        ,@      ANDS     r4,r4,r5
        0x00000c1e:    f1000580    ....    ADD      r5,r0,#0x80
        0x00000c22:    f8454021    E.!@    STR      r4,[r5,r1,LSL #2]
        0x00000c26:    462c        ,F      MOV      r4,r5
        0x00000c28:    f8544021    T.!@    LDR      r4,[r4,r1,LSL #2]
        0x00000c2c:    ea420503    B...    ORR      r5,r2,r3
        0x00000c30:    432c        ,C      ORRS     r4,r4,r5
        0x00000c32:    f1000580    ....    ADD      r5,r0,#0x80
        0x00000c36:    f8454021    E.!@    STR      r4,[r5,r1,LSL #2]
        0x00000c3a:    bd30        0.      POP      {r4,r5,pc}
    $d
        0x00000c3c:    ffe0ffc0    ....    DCD    4292935616
    $t
    i.EADC_FunctionTest
    EADC_FunctionTest
        0x00000c40:    b530        0.      PUSH     {r4,r5,lr}
        0x00000c42:    b087        ..      SUB      sp,sp,#0x1c
        0x00000c44:    2500        .%      MOVS     r5,#0
        0x00000c46:    2118        .!      MOVS     r1,#0x18
        0x00000c48:    a801        ..      ADD      r0,sp,#4
        0x00000c4a:    f7fffcd1    ....    BL       __aeabi_memclr4 ; 0x5f0
        0x00000c4e:    2100        .!      MOVS     r1,#0
        0x00000c50:    4831        1H      LDR      r0,[pc,#196] ; [0xd18] = 0x40043000
        0x00000c52:    f000f87d    ..}.    BL       EADC_Open ; 0xd50
        0x00000c56:    2400        .$      MOVS     r4,#0
        0x00000c58:    e05a        Z.      B        0xd10 ; EADC_FunctionTest + 208
        0x00000c5a:    4623        #F      MOV      r3,r4
        0x00000c5c:    f44f2200    O.."    MOV      r2,#0x80000
        0x00000c60:    2100        .!      MOVS     r1,#0
        0x00000c62:    482d        -H      LDR      r0,[pc,#180] ; [0xd18] = 0x40043000
        0x00000c64:    f7ffffd4    ....    BL       EADC_ConfigSampleModule ; 0xc10
        0x00000c68:    2001        .       MOVS     r0,#1
        0x00000c6a:    492b        +I      LDR      r1,[pc,#172] ; [0xd18] = 0x40043000
        0x00000c6c:    31f8        .1      ADDS     r1,r1,#0xf8
        0x00000c6e:    6008        .`      STR      r0,[r1,#0]
        0x00000c70:    4829        )H      LDR      r0,[pc,#164] ; [0xd18] = 0x40043000
        0x00000c72:    6d00        .m      LDR      r0,[r0,#0x50]
        0x00000c74:    f0400004    @...    ORR      r0,r0,#4
        0x00000c78:    4927        'I      LDR      r1,[pc,#156] ; [0xd18] = 0x40043000
        0x00000c7a:    6508        .e      STR      r0,[r1,#0x50]
        0x00000c7c:    4608        .F      MOV      r0,r1
        0x00000c7e:    f8d000d0    ....    LDR      r0,[r0,#0xd0]
        0x00000c82:    f0400001    @...    ORR      r0,r0,#1
        0x00000c86:    4924        $I      LDR      r1,[pc,#144] ; [0xd18] = 0x40043000
        0x00000c88:    31d0        .1      ADDS     r1,r1,#0xd0
        0x00000c8a:    6008        .`      STR      r0,[r1,#0]
        0x00000c8c:    202a        *       MOVS     r0,#0x2a
        0x00000c8e:    f001f8b5    ....    BL       NVIC_EnableIRQ ; 0x1dfc
        0x00000c92:    4621        !F      MOV      r1,r4
        0x00000c94:    a021        !.      ADR      r0,{pc}+0x88 ; 0xd1c
        0x00000c96:    f7fffb73    ..s.    BL       __2printf ; 0x380
        0x00000c9a:    2000        .       MOVS     r0,#0
        0x00000c9c:    4928        (I      LDR      r1,[pc,#160] ; [0xd40] = 0x200001b8
        0x00000c9e:    6008        .`      STR      r0,[r1,#0]
        0x00000ca0:    4928        (I      LDR      r1,[pc,#160] ; [0xd44] = 0x200001bc
        0x00000ca2:    6008        .`      STR      r0,[r1,#0]
        0x00000ca4:    2101        .!      MOVS     r1,#1
        0x00000ca6:    4828        (H      LDR      r0,[pc,#160] ; [0xd48] = 0x40058000
        0x00000ca8:    f000f917    ....    BL       EPWM_Start ; 0xeda
        0x00000cac:    e020         .      B        0xcf0 ; EADC_FunctionTest + 176
        0x00000cae:    bf00        ..      NOP      
        0x00000cb0:    4823        #H      LDR      r0,[pc,#140] ; [0xd40] = 0x200001b8
        0x00000cb2:    6800        .h      LDR      r0,[r0,#0]
        0x00000cb4:    2800        .(      CMP      r0,#0
        0x00000cb6:    d0fb        ..      BEQ      0xcb0 ; EADC_FunctionTest + 112
        0x00000cb8:    2000        .       MOVS     r0,#0
        0x00000cba:    4921        !I      LDR      r1,[pc,#132] ; [0xd40] = 0x200001b8
        0x00000cbc:    6008        .`      STR      r0,[r1,#0]
        0x00000cbe:    4816        .H      LDR      r0,[pc,#88] ; [0xd18] = 0x40043000
        0x00000cc0:    6800        .h      LDR      r0,[r0,#0]
        0x00000cc2:    b281        ..      UXTH     r1,r0
        0x00000cc4:    481f        .H      LDR      r0,[pc,#124] ; [0xd44] = 0x200001bc
        0x00000cc6:    6800        .h      LDR      r0,[r0,#0]
        0x00000cc8:    1e40        @.      SUBS     r0,r0,#1
        0x00000cca:    aa01        ..      ADD      r2,sp,#4
        0x00000ccc:    f8421020    B. .    STR      r1,[r2,r0,LSL #2]
        0x00000cd0:    481c        .H      LDR      r0,[pc,#112] ; [0xd44] = 0x200001bc
        0x00000cd2:    6800        .h      LDR      r0,[r0,#0]
        0x00000cd4:    2806        .(      CMP      r0,#6
        0x00000cd6:    d900        ..      BLS      0xcda ; EADC_FunctionTest + 154
        0x00000cd8:    e00b        ..      B        0xcf2 ; EADC_FunctionTest + 178
        0x00000cda:    481a        .H      LDR      r0,[pc,#104] ; [0xd44] = 0x200001bc
        0x00000cdc:    6800        .h      LDR      r0,[r0,#0]
        0x00000cde:    1e40        @.      SUBS     r0,r0,#1
        0x00000ce0:    a901        ..      ADD      r1,sp,#4
        0x00000ce2:    f8510020    Q. .    LDR      r0,[r1,r0,LSL #2]
        0x00000ce6:    4919        .I      LDR      r1,[pc,#100] ; [0xd4c] = 0x20000708
        0x00000ce8:    f8410025    A.%.    STR      r0,[r1,r5,LSL #2]
        0x00000cec:    1c68        h.      ADDS     r0,r5,#1
        0x00000cee:    b2c5        ..      UXTB     r5,r0
        0x00000cf0:    e7dd        ..      B        0xcae ; EADC_FunctionTest + 110
        0x00000cf2:    bf00        ..      NOP      
        0x00000cf4:    2101        .!      MOVS     r1,#1
        0x00000cf6:    4814        .H      LDR      r0,[pc,#80] ; [0xd48] = 0x40058000
        0x00000cf8:    f000f8eb    ....    BL       EPWM_ForceStop ; 0xed2
        0x00000cfc:    4806        .H      LDR      r0,[pc,#24] ; [0xd18] = 0x40043000
        0x00000cfe:    30d0        .0      ADDS     r0,r0,#0xd0
        0x00000d00:    6800        .h      LDR      r0,[r0,#0]
        0x00000d02:    f0200001     ...    BIC      r0,r0,#1
        0x00000d06:    4904        .I      LDR      r1,[pc,#16] ; [0xd18] = 0x40043000
        0x00000d08:    f8c100d0    ....    STR      r0,[r1,#0xd0]
        0x00000d0c:    1c60        `.      ADDS     r0,r4,#1
        0x00000d0e:    b2c4        ..      UXTB     r4,r0
        0x00000d10:    2c10        .,      CMP      r4,#0x10
        0x00000d12:    dba2        ..      BLT      0xc5a ; EADC_FunctionTest + 26
        0x00000d14:    b007        ..      ADD      sp,sp,#0x1c
        0x00000d16:    bd30        0.      POP      {r4,r5,pc}
    $d
        0x00000d18:    40043000    .0.@    DCD    1074016256
        0x00000d1c:    766e6f43    Conv    DCD    1986948931
        0x00000d20:    69737265    ersi    DCD    1769173605
        0x00000d24:    72206e6f    on r    DCD    1914728047
        0x00000d28:    6c757365    esul    DCD    1819636581
        0x00000d2c:    666f2074    t of    DCD    1718558836
        0x00000d30:    61686320     cha    DCD    1634231072
        0x00000d34:    6c656e6e    nnel    DCD    1818586734
        0x00000d38:    3a642520     %d:    DCD    979641632
        0x00000d3c:    0000000a    ....    DCD    10
        0x00000d40:    200001b8    ...     DCD    536871352
        0x00000d44:    200001bc    ...     DCD    536871356
        0x00000d48:    40058000    ...@    DCD    1074102272
        0x00000d4c:    20000708    ...     DCD    536872712
    $t
    i.EADC_Open
    EADC_Open
        0x00000d50:    6d02        .m      LDR      r2,[r0,#0x50]
        0x00000d52:    f4227280    "..r    BIC      r2,r2,#0x100
        0x00000d56:    6502        .e      STR      r2,[r0,#0x50]
        0x00000d58:    6d02        .m      LDR      r2,[r0,#0x50]
        0x00000d5a:    f0410301    A...    ORR      r3,r1,#1
        0x00000d5e:    431a        .C      ORRS     r2,r2,r3
        0x00000d60:    6502        .e      STR      r2,[r0,#0x50]
        0x00000d62:    bf00        ..      NOP      
        0x00000d64:    f8d02110    ...!    LDR      r2,[r0,#0x110]
        0x00000d68:    f0020201    ....    AND      r2,r2,#1
        0x00000d6c:    2a00        .*      CMP      r2,#0
        0x00000d6e:    d0f9        ..      BEQ      0xd64 ; EADC_Open + 20
        0x00000d70:    4770        pG      BX       lr
    i.EPA_Handler
    EPA_Handler
        0x00000d72:    b510        ..      PUSH     {r4,lr}
        0x00000d74:    f000facc    ....    BL       HID_SetInReport ; 0x1310
        0x00000d78:    bd10        ..      POP      {r4,pc}
        0x00000d7a:    0000        ..      MOVS     r0,r0
    i.EPB_Handler
    EPB_Handler
        0x00000d7c:    b570        p.      PUSH     {r4-r6,lr}
        0x00000d7e:    4809        .H      LDR      r0,[pc,#36] ; [0xda4] = 0x40019098
        0x00000d80:    6800        .h      LDR      r0,[r0,#0]
        0x00000d82:    b285        ..      UXTH     r5,r0
        0x00000d84:    2400        .$      MOVS     r4,#0
        0x00000d86:    e005        ..      B        0xd94 ; EPB_Handler + 24
        0x00000d88:    4806        .H      LDR      r0,[pc,#24] ; [0xda4] = 0x40019098
        0x00000d8a:    380c        .8      SUBS     r0,r0,#0xc
        0x00000d8c:    7800        .x      LDRB     r0,[r0,#0]
        0x00000d8e:    4906        .I      LDR      r1,[pc,#24] ; [0xda8] = 0x20000428
        0x00000d90:    5508        .U      STRB     r0,[r1,r4]
        0x00000d92:    1c64        d.      ADDS     r4,r4,#1
        0x00000d94:    42ac        .B      CMP      r4,r5
        0x00000d96:    d3f7        ..      BCC      0xd88 ; EPB_Handler + 12
        0x00000d98:    4629        )F      MOV      r1,r5
        0x00000d9a:    4803        .H      LDR      r0,[pc,#12] ; [0xda8] = 0x20000428
        0x00000d9c:    f000f9d0    ....    BL       HID_GetOutReport ; 0x1140
        0x00000da0:    bd70        p.      POP      {r4-r6,pc}
    $d
        0x00000da2:    0000        ..      DCW    0
        0x00000da4:    40019098    ...@    DCD    1073844376
        0x00000da8:    20000428    (..     DCD    536871976
    $t
    i.EPWM0_Init
    EPWM0_Init
        0x00000dac:    b510        ..      PUSH     {r4,lr}
        0x00000dae:    200a        .       MOVS     r0,#0xa
        0x00000db0:    4931        1I      LDR      r1,[pc,#196] ; [0xe78] = 0x40058000
        0x00000db2:    6148        Ha      STR      r0,[r1,#0x14]
        0x00000db4:    4608        .F      MOV      r0,r1
        0x00000db6:    6840        @h      LDR      r0,[r0,#4]
        0x00000db8:    f0200003     ...    BIC      r0,r0,#3
        0x00000dbc:    6048        H`      STR      r0,[r1,#4]
        0x00000dbe:    f44f707a    O.zp    MOV      r0,#0x3e8
        0x00000dc2:    6508        .e      STR      r0,[r1,#0x50]
        0x00000dc4:    0040        @.      LSLS     r0,r0,#1
        0x00000dc6:    6308        .c      STR      r0,[r1,#0x30]
        0x00000dc8:    2201        ."      MOVS     r2,#1
        0x00000dca:    2100        .!      MOVS     r1,#0
        0x00000dcc:    482a        *H      LDR      r0,[pc,#168] ; [0xe78] = 0x40058000
        0x00000dce:    f000f855    ..U.    BL       EPWM_EnableADCTrigger ; 0xe7c
        0x00000dd2:    bf00        ..      NOP      
        0x00000dd4:    2000        .       MOVS     r0,#0
        0x00000dd6:    e047        G.      B        0xe68 ; EPWM0_Init + 188
        0x00000dd8:    2101        .!      MOVS     r1,#1
        0x00000dda:    4081        .@      LSLS     r1,r1,r0
        0x00000ddc:    f0010101    ....    AND      r1,r1,#1
        0x00000de0:    b3f1        ..      CBZ      r1,0xe60 ; EPWM0_Init + 180
        0x00000de2:    4925        %I      LDR      r1,[pc,#148] ; [0xe78] = 0x40058000
        0x00000de4:    31b0        .1      ADDS     r1,r1,#0xb0
        0x00000de6:    6809        .h      LDR      r1,[r1,#0]
        0x00000de8:    0043        C.      LSLS     r3,r0,#1
        0x00000dea:    2203        ."      MOVS     r2,#3
        0x00000dec:    409a        .@      LSLS     r2,r2,r3
        0x00000dee:    4391        .C      BICS     r1,r1,r2
        0x00000df0:    0043        C.      LSLS     r3,r0,#1
        0x00000df2:    2202        ."      MOVS     r2,#2
        0x00000df4:    409a        .@      LSLS     r2,r2,r3
        0x00000df6:    4311        .C      ORRS     r1,r1,r2
        0x00000df8:    4a1f        .J      LDR      r2,[pc,#124] ; [0xe78] = 0x40058000
        0x00000dfa:    f8c210b0    ....    STR      r1,[r2,#0xb0]
        0x00000dfe:    491e        .I      LDR      r1,[pc,#120] ; [0xe78] = 0x40058000
        0x00000e00:    31b0        .1      ADDS     r1,r1,#0xb0
        0x00000e02:    6809        .h      LDR      r1,[r1,#0]
        0x00000e04:    2210        ."      MOVS     r2,#0x10
        0x00000e06:    eb020340    ..@.    ADD      r3,r2,r0,LSL #1
        0x00000e0a:    2203        ."      MOVS     r2,#3
        0x00000e0c:    409a        .@      LSLS     r2,r2,r3
        0x00000e0e:    4391        .C      BICS     r1,r1,r2
        0x00000e10:    2210        ."      MOVS     r2,#0x10
        0x00000e12:    eb020340    ..@.    ADD      r3,r2,r0,LSL #1
        0x00000e16:    2200        ."      MOVS     r2,#0
        0x00000e18:    409a        .@      LSLS     r2,r2,r3
        0x00000e1a:    4311        .C      ORRS     r1,r1,r2
        0x00000e1c:    4a16        .J      LDR      r2,[pc,#88] ; [0xe78] = 0x40058000
        0x00000e1e:    f8c210b0    ....    STR      r1,[r2,#0xb0]
        0x00000e22:    4915        .I      LDR      r1,[pc,#84] ; [0xe78] = 0x40058000
        0x00000e24:    31b4        .1      ADDS     r1,r1,#0xb4
        0x00000e26:    6809        .h      LDR      r1,[r1,#0]
        0x00000e28:    0043        C.      LSLS     r3,r0,#1
        0x00000e2a:    2203        ."      MOVS     r2,#3
        0x00000e2c:    409a        .@      LSLS     r2,r2,r3
        0x00000e2e:    4391        .C      BICS     r1,r1,r2
        0x00000e30:    0043        C.      LSLS     r3,r0,#1
        0x00000e32:    2201        ."      MOVS     r2,#1
        0x00000e34:    409a        .@      LSLS     r2,r2,r3
        0x00000e36:    4311        .C      ORRS     r1,r1,r2
        0x00000e38:    4a0f        .J      LDR      r2,[pc,#60] ; [0xe78] = 0x40058000
        0x00000e3a:    f8c210b4    ....    STR      r1,[r2,#0xb4]
        0x00000e3e:    490e        .I      LDR      r1,[pc,#56] ; [0xe78] = 0x40058000
        0x00000e40:    31b4        .1      ADDS     r1,r1,#0xb4
        0x00000e42:    6809        .h      LDR      r1,[r1,#0]
        0x00000e44:    2210        ."      MOVS     r2,#0x10
        0x00000e46:    eb020340    ..@.    ADD      r3,r2,r0,LSL #1
        0x00000e4a:    2203        ."      MOVS     r2,#3
        0x00000e4c:    409a        .@      LSLS     r2,r2,r3
        0x00000e4e:    4391        .C      BICS     r1,r1,r2
        0x00000e50:    2210        ."      MOVS     r2,#0x10
        0x00000e52:    eb020340    ..@.    ADD      r3,r2,r0,LSL #1
        0x00000e56:    2200        ."      MOVS     r2,#0
        0x00000e58:    409a        .@      LSLS     r2,r2,r3
        0x00000e5a:    4311        .C      ORRS     r1,r1,r2
        0x00000e5c:    4a06        .J      LDR      r2,[pc,#24] ; [0xe78] = 0x40058000
        0x00000e5e:    e000        ..      B        0xe62 ; EPWM0_Init + 182
        0x00000e60:    e001        ..      B        0xe66 ; EPWM0_Init + 186
        0x00000e62:    f8c210b4    ....    STR      r1,[r2,#0xb4]
        0x00000e66:    1c40        @.      ADDS     r0,r0,#1
        0x00000e68:    2806        .(      CMP      r0,#6
        0x00000e6a:    dbb5        ..      BLT      0xdd8 ; EPWM0_Init + 44
        0x00000e6c:    bf00        ..      NOP      
        0x00000e6e:    2101        .!      MOVS     r1,#1
        0x00000e70:    4801        .H      LDR      r0,[pc,#4] ; [0xe78] = 0x40058000
        0x00000e72:    f000f828    ..(.    BL       EPWM_EnableOutput ; 0xec6
        0x00000e76:    bd10        ..      POP      {r4,pc}
    $d
        0x00000e78:    40058000    ...@    DCD    1074102272
    $t
    i.EPWM_EnableADCTrigger
    EPWM_EnableADCTrigger
        0x00000e7c:    b530        0.      PUSH     {r4,r5,lr}
        0x00000e7e:    2904        .)      CMP      r1,#4
        0x00000e80:    d20f        ..      BCS      0xea2 ; EPWM_EnableADCTrigger + 38
        0x00000e82:    f8503ff8    P..?    LDR      r3,[r0,#0xf8]!
        0x00000e86:    00cd        ..      LSLS     r5,r1,#3
        0x00000e88:    240f        .$      MOVS     r4,#0xf
        0x00000e8a:    40ac        .@      LSLS     r4,r4,r5
        0x00000e8c:    43a3        .C      BICS     r3,r3,r4
        0x00000e8e:    6003        .`      STR      r3,[r0,#0]
        0x00000e90:    f0420380    B...    ORR      r3,r2,#0x80
        0x00000e94:    00cc        ..      LSLS     r4,r1,#3
        0x00000e96:    40a3        .@      LSLS     r3,r3,r4
        0x00000e98:    6804        .h      LDR      r4,[r0,#0]
        0x00000e9a:    4323        #C      ORRS     r3,r3,r4
        0x00000e9c:    f84039f8    @..9    STR      r3,[r0],#-0xf8
        0x00000ea0:    e010        ..      B        0xec4 ; EPWM_EnableADCTrigger + 72
        0x00000ea2:    f8503ffc    P..?    LDR      r3,[r0,#0xfc]!
        0x00000ea6:    1f0c        ..      SUBS     r4,r1,#4
        0x00000ea8:    00e5        ..      LSLS     r5,r4,#3
        0x00000eaa:    240f        .$      MOVS     r4,#0xf
        0x00000eac:    40ac        .@      LSLS     r4,r4,r5
        0x00000eae:    43a3        .C      BICS     r3,r3,r4
        0x00000eb0:    6003        .`      STR      r3,[r0,#0]
        0x00000eb2:    f0420380    B...    ORR      r3,r2,#0x80
        0x00000eb6:    1f0c        ..      SUBS     r4,r1,#4
        0x00000eb8:    00e4        ..      LSLS     r4,r4,#3
        0x00000eba:    40a3        .@      LSLS     r3,r3,r4
        0x00000ebc:    6804        .h      LDR      r4,[r0,#0]
        0x00000ebe:    4323        #C      ORRS     r3,r3,r4
        0x00000ec0:    f84039fc    @..9    STR      r3,[r0],#-0xfc
        0x00000ec4:    bd30        0.      POP      {r4,r5,pc}
    i.EPWM_EnableOutput
    EPWM_EnableOutput
        0x00000ec6:    f8d020d8    ...     LDR      r2,[r0,#0xd8]
        0x00000eca:    430a        .C      ORRS     r2,r2,r1
        0x00000ecc:    f8c020d8    ...     STR      r2,[r0,#0xd8]
        0x00000ed0:    4770        pG      BX       lr
    i.EPWM_ForceStop
    EPWM_ForceStop
        0x00000ed2:    6a02        .j      LDR      r2,[r0,#0x20]
        0x00000ed4:    438a        .C      BICS     r2,r2,r1
        0x00000ed6:    6202        .b      STR      r2,[r0,#0x20]
        0x00000ed8:    4770        pG      BX       lr
    i.EPWM_Start
    EPWM_Start
        0x00000eda:    6a02        .j      LDR      r2,[r0,#0x20]
        0x00000edc:    430a        .C      ORRS     r2,r2,r1
        0x00000ede:    6202        .b      STR      r2,[r0,#0x20]
        0x00000ee0:    4770        pG      BX       lr
        0x00000ee2:    0000        ..      MOVS     r0,r0
    i.HID_ClassRequest
    HID_ClassRequest
        0x00000ee4:    481e        .H      LDR      r0,[pc,#120] ; [0xf60] = 0x200001e0
        0x00000ee6:    7800        .x      LDRB     r0,[r0,#0]
        0x00000ee8:    f0000080    ....    AND      r0,r0,#0x80
        0x00000eec:    b178        x.      CBZ      r0,0xf0e ; HID_ClassRequest + 42
        0x00000eee:    481c        .H      LDR      r0,[pc,#112] ; [0xf60] = 0x200001e0
        0x00000ef0:    7840        @x      LDRB     r0,[r0,#1]
        0x00000ef2:    2801        .(      CMP      r0,#1
        0x00000ef4:    d004        ..      BEQ      0xf00 ; HID_ClassRequest + 28
        0x00000ef6:    2802        .(      CMP      r0,#2
        0x00000ef8:    d003        ..      BEQ      0xf02 ; HID_ClassRequest + 30
        0x00000efa:    2803        .(      CMP      r0,#3
        0x00000efc:    d002        ..      BEQ      0xf04 ; HID_ClassRequest + 32
        0x00000efe:    bf00        ..      NOP      
        0x00000f00:    bf00        ..      NOP      
        0x00000f02:    bf00        ..      NOP      
        0x00000f04:    2002        .       MOVS     r0,#2
        0x00000f06:    4917        .I      LDR      r1,[pc,#92] ; [0xf64] = 0x40019000
        0x00000f08:    62c8        .b      STR      r0,[r1,#0x2c]
        0x00000f0a:    bf00        ..      NOP      
        0x00000f0c:    e026        &.      B        0xf5c ; HID_ClassRequest + 120
        0x00000f0e:    4814        .H      LDR      r0,[pc,#80] ; [0xf60] = 0x200001e0
        0x00000f10:    7840        @x      LDRB     r0,[r0,#1]
        0x00000f12:    2809        .(      CMP      r0,#9
        0x00000f14:    d004        ..      BEQ      0xf20 ; HID_ClassRequest + 60
        0x00000f16:    280a        .(      CMP      r0,#0xa
        0x00000f18:    d011        ..      BEQ      0xf3e ; HID_ClassRequest + 90
        0x00000f1a:    280b        .(      CMP      r0,#0xb
        0x00000f1c:    d118        ..      BNE      0xf50 ; HID_ClassRequest + 108
        0x00000f1e:    e018        ..      B        0xf52 ; HID_ClassRequest + 110
        0x00000f20:    480f        .H      LDR      r0,[pc,#60] ; [0xf60] = 0x200001e0
        0x00000f22:    8840        @.      LDRH     r0,[r0,#2]
        0x00000f24:    2103        .!      MOVS     r1,#3
        0x00000f26:    ebb12f10    .../    CMP      r1,r0,LSR #8
        0x00000f2a:    d107        ..      BNE      0xf3c ; HID_ClassRequest + 88
        0x00000f2c:    f44f6080    O..`    MOV      r0,#0x400
        0x00000f30:    490c        .I      LDR      r1,[pc,#48] ; [0xf64] = 0x40019000
        0x00000f32:    6348        Hc      STR      r0,[r1,#0x34]
        0x00000f34:    2000        .       MOVS     r0,#0
        0x00000f36:    62c8        .b      STR      r0,[r1,#0x2c]
        0x00000f38:    1508        ..      ASRS     r0,r1,#20
        0x00000f3a:    6308        .c      STR      r0,[r1,#0x30]
        0x00000f3c:    e00d        ..      B        0xf5a ; HID_ClassRequest + 118
        0x00000f3e:    f44f6080    O..`    MOV      r0,#0x400
        0x00000f42:    4908        .I      LDR      r1,[pc,#32] ; [0xf64] = 0x40019000
        0x00000f44:    6348        Hc      STR      r0,[r1,#0x34]
        0x00000f46:    2000        .       MOVS     r0,#0
        0x00000f48:    62c8        .b      STR      r0,[r1,#0x2c]
        0x00000f4a:    1508        ..      ASRS     r0,r1,#20
        0x00000f4c:    6308        .c      STR      r0,[r1,#0x30]
        0x00000f4e:    e004        ..      B        0xf5a ; HID_ClassRequest + 118
        0x00000f50:    bf00        ..      NOP      
        0x00000f52:    2002        .       MOVS     r0,#2
        0x00000f54:    4903        .I      LDR      r1,[pc,#12] ; [0xf64] = 0x40019000
        0x00000f56:    62c8        .b      STR      r0,[r1,#0x2c]
        0x00000f58:    bf00        ..      NOP      
        0x00000f5a:    bf00        ..      NOP      
        0x00000f5c:    4770        pG      BX       lr
    $d
        0x00000f5e:    0000        ..      DCW    0
        0x00000f60:    200001e0    ...     DCD    536871392
        0x00000f64:    40019000    ...@    DCD    1073844224
    $t
    i.HID_CmdEraseSectors
    HID_CmdEraseSectors
        0x00000f68:    e92d41f0    -..A    PUSH     {r4-r8,lr}
        0x00000f6c:    4604        .F      MOV      r4,r0
        0x00000f6e:    f8d47002    ...p    LDR      r7,[r4,#2]
        0x00000f72:    f8d45006    ...P    LDR      r5,[r4,#6]
        0x00000f76:    462a        *F      MOV      r2,r5
        0x00000f78:    4639        9F      MOV      r1,r7
        0x00000f7a:    a006        ..      ADR      r0,{pc}+0x1a ; 0xf94
        0x00000f7c:    f7fffa00    ....    BL       __2printf ; 0x380
        0x00000f80:    2600        .&      MOVS     r6,#0
        0x00000f82:    e000        ..      B        0xf86 ; HID_CmdEraseSectors + 30
        0x00000f84:    1c76        v.      ADDS     r6,r6,#1
        0x00000f86:    42ae        .B      CMP      r6,r5
        0x00000f88:    d3fc        ..      BCC      0xf84 ; HID_CmdEraseSectors + 28
        0x00000f8a:    2000        .       MOVS     r0,#0
        0x00000f8c:    7020         p      STRB     r0,[r4,#0]
        0x00000f8e:    e8bd81f0    ....    POP      {r4-r8,pc}
    $d
        0x00000f92:    0000        ..      DCW    0
        0x00000f94:    73617245    Eras    DCD    1935766085
        0x00000f98:    6f632065    e co    DCD    1868767333
        0x00000f9c:    6e616d6d    mman    DCD    1851878765
        0x00000fa0:    202d2064    d -     DCD    539828324
        0x00000fa4:    74636553    Sect    DCD    1952671059
        0x00000fa8:    203a726f    or:     DCD    540701295
        0x00000fac:    20206425    %d      DCD    538993701
        0x00000fb0:    63655320     Sec    DCD    1667584800
        0x00000fb4:    20726f74    tor     DCD    544370548
        0x00000fb8:    3a746e43    Cnt:    DCD    980708931
        0x00000fbc:    0a642520     %d.    DCD    174335264
        0x00000fc0:    00000000    ....    DCD    0
    $t
    i.HID_CmdReadPages
    HID_CmdReadPages
        0x00000fc4:    e92d41f0    -..A    PUSH     {r4-r8,lr}
        0x00000fc8:    4605        .F      MOV      r5,r0
        0x00000fca:    f8d58002    ....    LDR      r8,[r5,#2]
        0x00000fce:    f8d57006    ...p    LDR      r7,[r5,#6]
        0x00000fd2:    f001fbb9    ....    BL       int32_to_int8 ; 0x2748
        0x00000fd6:    2f00        ./      CMP      r7,#0
        0x00000fd8:    d036        6.      BEQ      0x1048 ; HID_CmdReadPages + 132
        0x00000fda:    2400        .$      MOVS     r4,#0
        0x00000fdc:    e003        ..      B        0xfe6 ; HID_CmdReadPages + 34
        0x00000fde:    2000        .       MOVS     r0,#0
        0x00000fe0:    491b        .I      LDR      r1,[pc,#108] ; [0x1050] = 0x20000228
        0x00000fe2:    5508        .U      STRB     r0,[r1,r4]
        0x00000fe4:    1c64        d.      ADDS     r4,r4,#1
        0x00000fe6:    f5b47f00    ....    CMP      r4,#0x200
        0x00000fea:    dbf8        ..      BLT      0xfde ; HID_CmdReadPages + 26
        0x00000fec:    2400        .$      MOVS     r4,#0
        0x00000fee:    e004        ..      B        0xffa ; HID_CmdReadPages + 54
        0x00000ff0:    4818        .H      LDR      r0,[pc,#96] ; [0x1054] = 0x20000628
        0x00000ff2:    5d00        .]      LDRB     r0,[r0,r4]
        0x00000ff4:    4916        .I      LDR      r1,[pc,#88] ; [0x1050] = 0x20000228
        0x00000ff6:    5508        .U      STRB     r0,[r1,r4]
        0x00000ff8:    1c64        d.      ADDS     r4,r4,#1
        0x00000ffa:    2cc0        .,      CMP      r4,#0xc0
        0x00000ffc:    dbf8        ..      BLT      0xff0 ; HID_CmdReadPages + 44
        0x00000ffe:    f44f7000    O..p    MOV      r0,#0x200
        0x00001002:    4915        .I      LDR      r1,[pc,#84] ; [0x1058] = 0x200001b0
        0x00001004:    6008        .`      STR      r0,[r1,#0]
        0x00001006:    2001        .       MOVS     r0,#1
        0x00001008:    f8c5000a    ....    STR      r0,[r5,#0xa]
        0x0000100c:    4813        .H      LDR      r0,[pc,#76] ; [0x105c] = 0x200001a8
        0x0000100e:    6800        .h      LDR      r0,[r0,#0]
        0x00001010:    6809        .h      LDR      r1,[r1,#0]
        0x00001012:    4288        .B      CMP      r0,r1
        0x00001014:    d202        ..      BCS      0x101c ; HID_CmdReadPages + 88
        0x00001016:    4811        .H      LDR      r0,[pc,#68] ; [0x105c] = 0x200001a8
        0x00001018:    6800        .h      LDR      r0,[r0,#0]
        0x0000101a:    e001        ..      B        0x1020 ; HID_CmdReadPages + 92
        0x0000101c:    480e        .H      LDR      r0,[pc,#56] ; [0x1058] = 0x200001b0
        0x0000101e:    6800        .h      LDR      r0,[r0,#0]
        0x00001020:    4606        .F      MOV      r6,r0
        0x00001022:    2400        .$      MOVS     r4,#0
        0x00001024:    e004        ..      B        0x1030 ; HID_CmdReadPages + 108
        0x00001026:    480a        .H      LDR      r0,[pc,#40] ; [0x1050] = 0x20000228
        0x00001028:    5d00        .]      LDRB     r0,[r0,r4]
        0x0000102a:    490d        .I      LDR      r1,[pc,#52] ; [0x1060] = 0x40019064
        0x0000102c:    7008        .p      STRB     r0,[r1,#0]
        0x0000102e:    1c64        d.      ADDS     r4,r4,#1
        0x00001030:    42b4        .B      CMP      r4,r6
        0x00001032:    d3f8        ..      BCC      0x1026 ; HID_CmdReadPages + 98
        0x00001034:    480a        .H      LDR      r0,[pc,#40] ; [0x1060] = 0x40019064
        0x00001036:    3864        d8      SUBS     r0,r0,#0x64
        0x00001038:    67c6        .g      STR      r6,[r0,#0x7c]
        0x0000103a:    2140        @!      MOVS     r1,#0x40
        0x0000103c:    66c1        .f      STR      r1,[r0,#0x6c]
        0x0000103e:    4806        .H      LDR      r0,[pc,#24] ; [0x1058] = 0x200001b0
        0x00001040:    6800        .h      LDR      r0,[r0,#0]
        0x00001042:    1b80        ..      SUBS     r0,r0,r6
        0x00001044:    4904        .I      LDR      r1,[pc,#16] ; [0x1058] = 0x200001b0
        0x00001046:    6008        .`      STR      r0,[r1,#0]
        0x00001048:    2000        .       MOVS     r0,#0
        0x0000104a:    e8bd81f0    ....    POP      {r4-r8,pc}
    $d
        0x0000104e:    0000        ..      DCW    0
        0x00001050:    20000228    (..     DCD    536871464
        0x00001054:    20000628    (..     DCD    536872488
        0x00001058:    200001b0    ...     DCD    536871344
        0x0000105c:    200001a8    ...     DCD    536871336
        0x00001060:    40019064    d..@    DCD    1073844324
    $t
    i.HID_CmdTest
    HID_CmdTest
        0x00001064:    e92d41f0    -..A    PUSH     {r4-r8,lr}
        0x00001068:    4604        .F      MOV      r4,r0
        0x0000106a:    4626        &F      MOV      r6,r4
        0x0000106c:    7862        bx      LDRB     r2,[r4,#1]
        0x0000106e:    4810        .H      LDR      r0,[pc,#64] ; [0x10b0] = 0x200001b4
        0x00001070:    6801        .h      LDR      r1,[r0,#0]
        0x00001072:    6800        .h      LDR      r0,[r0,#0]
        0x00001074:    1c40        @.      ADDS     r0,r0,#1
        0x00001076:    4f0e        .O      LDR      r7,[pc,#56] ; [0x10b0] = 0x200001b4
        0x00001078:    6038        8`      STR      r0,[r7,#0]
        0x0000107a:    a00e        ..      ADR      r0,{pc}+0x3a ; 0x10b4
        0x0000107c:    f7fff980    ....    BL       __2printf ; 0x380
        0x00001080:    2500        .%      MOVS     r5,#0
        0x00001082:    e00a        ..      B        0x109a ; HID_CmdTest + 54
        0x00001084:    f005000f    ....    AND      r0,r5,#0xf
        0x00001088:    b910        ..      CBNZ     r0,0x1090 ; HID_CmdTest + 44
        0x0000108a:    a013        ..      ADR      r0,{pc}+0x4e ; 0x10d8
        0x0000108c:    f7fff978    ..x.    BL       __2printf ; 0x380
        0x00001090:    5d71        q]      LDRB     r1,[r6,r5]
        0x00001092:    a012        ..      ADR      r0,{pc}+0x4a ; 0x10dc
        0x00001094:    f7fff974    ..t.    BL       __2printf ; 0x380
        0x00001098:    1c6d        m.      ADDS     r5,r5,#1
        0x0000109a:    7860        `x      LDRB     r0,[r4,#1]
        0x0000109c:    42a8        .B      CMP      r0,r5
        0x0000109e:    dcf1        ..      BGT      0x1084 ; HID_CmdTest + 32
        0x000010a0:    a00d        ..      ADR      r0,{pc}+0x38 ; 0x10d8
        0x000010a2:    f7fff96d    ..m.    BL       __2printf ; 0x380
        0x000010a6:    2000        .       MOVS     r0,#0
        0x000010a8:    7020         p      STRB     r0,[r4,#0]
        0x000010aa:    e8bd81f0    ....    POP      {r4-r8,pc}
    $d
        0x000010ae:    0000        ..      DCW    0
        0x000010b0:    200001b4    ...     DCD    536871348
        0x000010b4:    20746547    Get     DCD    544499015
        0x000010b8:    74736574    test    DCD    1953719668
        0x000010bc:    6d6f6320     com    DCD    1836016416
        0x000010c0:    646e616d    mand    DCD    1684955501
        0x000010c4:    64252320     #%d    DCD    1680155424
        0x000010c8:    64252820     (%d    DCD    1680156704
        0x000010cc:    74796220     byt    DCD    1954112032
        0x000010d0:    0a297365    es).    DCD    170488677
        0x000010d4:    00000000    ....    DCD    0
        0x000010d8:    0000000a    ....    DCD    10
        0x000010dc:    32302520     %02    DCD    842016032
        0x000010e0:    00000078    x...    DCD    120
    $t
    i.HID_CmdWritePages
    HID_CmdWritePages
        0x000010e4:    b570        p.      PUSH     {r4-r6,lr}
        0x000010e6:    4604        .F      MOV      r4,r0
        0x000010e8:    f8545f02    T.._    LDR      r5,[r4,#2]!
        0x000010ec:    6866        fh      LDR      r6,[r4,#4]
        0x000010ee:    4632        2F      MOV      r2,r6
        0x000010f0:    4629        )F      MOV      r1,r5
        0x000010f2:    a004        ..      ADR      r0,{pc}+0x12 ; 0x1104
        0x000010f4:    f7fff944    ..D.    BL       __2printf ; 0x380
        0x000010f8:    2000        .       MOVS     r0,#0
        0x000010fa:    4910        .I      LDR      r1,[pc,#64] ; [0x113c] = 0x200001b0
        0x000010fc:    6008        .`      STR      r0,[r1,#0]
        0x000010fe:    60a0        .`      STR      r0,[r4,#8]
        0x00001100:    1ea4        ..      SUBS     r4,r4,#2
        0x00001102:    bd70        p.      POP      {r4-r6,pc}
    $d
        0x00001104:    74697257    Writ    DCD    1953067607
        0x00001108:    6f632065    e co    DCD    1868767333
        0x0000110c:    6e616d6d    mman    DCD    1851878765
        0x00001110:    202d2064    d -     DCD    539828324
        0x00001114:    72617453    Star    DCD    1918989395
        0x00001118:    61702074    t pa    DCD    1634738292
        0x0000111c:    203a6567    ge:     DCD    540697959
        0x00001120:    20206425    %d      DCD    538993701
        0x00001124:    61502020      Pa    DCD    1632641056
        0x00001128:    20736567    ges     DCD    544433511
        0x0000112c:    626d754e    Numb    DCD    1651340622
        0x00001130:    3a737265    ers:    DCD    980644453
        0x00001134:    0a642520     %d.    DCD    174335264
        0x00001138:    00000000    ....    DCD    0
        0x0000113c:    200001b0    ...     DCD    536871344
    $t
    i.HID_GetOutReport
    HID_GetOutReport
        0x00001140:    e92d47f0    -..G    PUSH     {r4-r10,lr}
        0x00001144:    4606        .F      MOV      r6,r0
        0x00001146:    460d        .F      MOV      r5,r1
        0x00001148:    481d        .H      LDR      r0,[pc,#116] ; [0x11c0] = 0x20000214
        0x0000114a:    7807        .x      LDRB     r7,[r0,#0]
        0x0000114c:    f8d09002    ....    LDR      r9,[r0,#2]
        0x00001150:    f8d08006    ....    LDR      r8,[r0,#6]
        0x00001154:    f8d0400a    ...@    LDR      r4,[r0,#0xa]
        0x00001158:    2fc3        ./      CMP      r7,#0xc3
        0x0000115a:    d127        '.      BNE      0x11ac ; HID_GetOutReport + 108
        0x0000115c:    4544        DE      CMP      r4,r8
        0x0000115e:    d225        %.      BCS      0x11ac ; HID_GetOutReport + 108
        0x00001160:    4918        .I      LDR      r1,[pc,#96] ; [0x11c4] = 0x20000228
        0x00001162:    4a19        .J      LDR      r2,[pc,#100] ; [0x11c8] = 0x200001b0
        0x00001164:    6812        .h      LDR      r2,[r2,#0]
        0x00001166:    1888        ..      ADDS     r0,r1,r2
        0x00001168:    462a        *F      MOV      r2,r5
        0x0000116a:    4631        1F      MOV      r1,r6
        0x0000116c:    f000fb56    ..V.    BL       HSUSBD_MemCopy ; 0x181c
        0x00001170:    4815        .H      LDR      r0,[pc,#84] ; [0x11c8] = 0x200001b0
        0x00001172:    6800        .h      LDR      r0,[r0,#0]
        0x00001174:    4428        (D      ADD      r0,r0,r5
        0x00001176:    4914        .I      LDR      r1,[pc,#80] ; [0x11c8] = 0x200001b0
        0x00001178:    6008        .`      STR      r0,[r1,#0]
        0x0000117a:    4608        .F      MOV      r0,r1
        0x0000117c:    6800        .h      LDR      r0,[r0,#0]
        0x0000117e:    f5b07f00    ....    CMP      r0,#0x200
        0x00001182:    d30e        ..      BCC      0x11a2 ; HID_GetOutReport + 98
        0x00001184:    eb090104    ....    ADD      r1,r9,r4
        0x00001188:    a010        ..      ADR      r0,{pc}+0x44 ; 0x11cc
        0x0000118a:    f7fff8f9    ....    BL       __2printf ; 0x380
        0x0000118e:    1c64        d.      ADDS     r4,r4,#1
        0x00001190:    4544        DE      CMP      r4,r8
        0x00001192:    d303        ..      BCC      0x119c ; HID_GetOutReport + 92
        0x00001194:    2700        .'      MOVS     r7,#0
        0x00001196:    a012        ..      ADR      r0,{pc}+0x4a ; 0x11e0
        0x00001198:    f7fff8f2    ....    BL       __2printf ; 0x380
        0x0000119c:    2000        .       MOVS     r0,#0
        0x0000119e:    490a        .I      LDR      r1,[pc,#40] ; [0x11c8] = 0x200001b0
        0x000011a0:    6008        .`      STR      r0,[r1,#0]
        0x000011a2:    4807        .H      LDR      r0,[pc,#28] ; [0x11c0] = 0x20000214
        0x000011a4:    7007        .p      STRB     r7,[r0,#0]
        0x000011a6:    f8c0400a    ...@    STR      r4,[r0,#0xa]
        0x000011aa:    e007        ..      B        0x11bc ; HID_GetOutReport + 124
        0x000011ac:    4629        )F      MOV      r1,r5
        0x000011ae:    4630        0F      MOV      r0,r6
        0x000011b0:    f000fe30    ..0.    BL       ProcessCommand ; 0x1e14
        0x000011b4:    b110        ..      CBZ      r0,0x11bc ; HID_GetOutReport + 124
        0x000011b6:    a011        ..      ADR      r0,{pc}+0x46 ; 0x11fc
        0x000011b8:    f7fff8e2    ....    BL       __2printf ; 0x380
        0x000011bc:    e8bd87f0    ....    POP      {r4-r10,pc}
    $d
        0x000011c0:    20000214    ...     DCD    536871444
        0x000011c4:    20000228    (..     DCD    536871464
        0x000011c8:    200001b0    ...     DCD    536871344
        0x000011cc:    74697257    Writ    DCD    1953067607
        0x000011d0:    20676e69    ing     DCD    543649385
        0x000011d4:    65676170    page    DCD    1701273968
        0x000011d8:    0a642520     %d.    DCD    174335264
        0x000011dc:    00000000    ....    DCD    0
        0x000011e0:    74697257    Writ    DCD    1953067607
        0x000011e4:    6f632065    e co    DCD    1868767333
        0x000011e8:    6e616d6d    mman    DCD    1851878765
        0x000011ec:    6f632064    d co    DCD    1868767332
        0x000011f0:    656c706d    mple    DCD    1701605485
        0x000011f4:    0a2e6574    te..    DCD    170812788
        0x000011f8:    00000000    ....    DCD    0
        0x000011fc:    6e6b6e55    Unkn    DCD    1852534357
        0x00001200:    206e776f    own     DCD    544110447
        0x00001204:    20444948    HID     DCD    541346120
        0x00001208:    6d6d6f63    comm    DCD    1835888483
        0x0000120c:    21646e61    and!    DCD    560229985
        0x00001210:    0000000a    ....    DCD    10
    $t
    i.HID_Init
    HID_Init
        0x00001214:    b510        ..      PUSH     {r4,lr}
        0x00001216:    200f        .       MOVS     r0,#0xf
        0x00001218:    4909        .I      LDR      r1,[pc,#36] ; [0x1240] = 0x40019000
        0x0000121a:    6088        .`      STR      r0,[r1,#8]
        0x0000121c:    f44f7093    O..p    MOV      r0,#0x126
        0x00001220:    6148        Ha      STR      r0,[r1,#0x14]
        0x00001222:    2000        .       MOVS     r0,#0
        0x00001224:    6208        .b      STR      r0,[r1,#0x20]
        0x00001226:    2240        @"      MOVS     r2,#0x40
        0x00001228:    2100        .!      MOVS     r1,#0
        0x0000122a:    20ff        .       MOVS     r0,#0xff
        0x0000122c:    f000fb78    ..x.    BL       HSUSBD_SetEpBufAddr ; 0x1920
        0x00001230:    f2404002    @..@    MOV      r0,#0x402
        0x00001234:    4902        .I      LDR      r1,[pc,#8] ; [0x1240] = 0x40019000
        0x00001236:    6308        .c      STR      r0,[r1,#0x30]
        0x00001238:    f000f836    ..6.    BL       HID_InitForHighSpeed ; 0x12a8
        0x0000123c:    bd10        ..      POP      {r4,pc}
    $d
        0x0000123e:    0000        ..      DCW    0
        0x00001240:    40019000    ...@    DCD    1073844224
    $t
    i.HID_InitForFullSpeed
    HID_InitForFullSpeed
        0x00001244:    b510        ..      PUSH     {r4,lr}
        0x00001246:    f44f7200    O..r    MOV      r2,#0x200
        0x0000124a:    4611        .F      MOV      r1,r2
        0x0000124c:    2000        .       MOVS     r0,#0
        0x0000124e:    f000fb67    ..g.    BL       HSUSBD_SetEpBufAddr ; 0x1920
        0x00001252:    2140        @!      MOVS     r1,#0x40
        0x00001254:    4811        .H      LDR      r0,[pc,#68] ; [0x129c] = 0x40019000
        0x00001256:    6781        .g      STR      r1,[r0,#0x78]
        0x00001258:    2308        .#      MOVS     r3,#8
        0x0000125a:    2204        ."      MOVS     r2,#4
        0x0000125c:    2101        .!      MOVS     r1,#1
        0x0000125e:    2000        .       MOVS     r0,#0
        0x00001260:    f000f8ce    ....    BL       HSUSBD_ConfigEp ; 0x1400
        0x00001264:    2040        @       MOVS     r0,#0x40
        0x00001266:    490e        .I      LDR      r1,[pc,#56] ; [0x12a0] = 0x200001a8
        0x00001268:    6008        .`      STR      r0,[r1,#0]
        0x0000126a:    00c2        ..      LSLS     r2,r0,#3
        0x0000126c:    f44f61c0    O..a    MOV      r1,#0x600
        0x00001270:    2001        .       MOVS     r0,#1
        0x00001272:    f000fb55    ..U.    BL       HSUSBD_SetEpBufAddr ; 0x1920
        0x00001276:    2140        @!      MOVS     r1,#0x40
        0x00001278:    4808        .H      LDR      r0,[pc,#32] ; [0x129c] = 0x40019000
        0x0000127a:    30a0        .0      ADDS     r0,r0,#0xa0
        0x0000127c:    6001        .`      STR      r1,[r0,#0]
        0x0000127e:    2300        .#      MOVS     r3,#0
        0x00001280:    2204        ."      MOVS     r2,#4
        0x00001282:    2102        .!      MOVS     r1,#2
        0x00001284:    2001        .       MOVS     r0,#1
        0x00001286:    f000f8bb    ....    BL       HSUSBD_ConfigEp ; 0x1400
        0x0000128a:    2111        .!      MOVS     r1,#0x11
        0x0000128c:    4803        .H      LDR      r0,[pc,#12] ; [0x129c] = 0x40019000
        0x0000128e:    3094        .0      ADDS     r0,r0,#0x94
        0x00001290:    6001        .`      STR      r1,[r0,#0]
        0x00001292:    2040        @       MOVS     r0,#0x40
        0x00001294:    4903        .I      LDR      r1,[pc,#12] ; [0x12a4] = 0x200001ac
        0x00001296:    6008        .`      STR      r0,[r1,#0]
        0x00001298:    bd10        ..      POP      {r4,pc}
    $d
        0x0000129a:    0000        ..      DCW    0
        0x0000129c:    40019000    ...@    DCD    1073844224
        0x000012a0:    200001a8    ...     DCD    536871336
        0x000012a4:    200001ac    ...     DCD    536871340
    $t
    i.HID_InitForHighSpeed
    HID_InitForHighSpeed
        0x000012a8:    b510        ..      PUSH     {r4,lr}
        0x000012aa:    f44f7200    O..r    MOV      r2,#0x200
        0x000012ae:    4611        .F      MOV      r1,r2
        0x000012b0:    2000        .       MOVS     r0,#0
        0x000012b2:    f000fb35    ..5.    BL       HSUSBD_SetEpBufAddr ; 0x1920
        0x000012b6:    f44f7100    O..q    MOV      r1,#0x200
        0x000012ba:    4812        .H      LDR      r0,[pc,#72] ; [0x1304] = 0x40019000
        0x000012bc:    6781        .g      STR      r1,[r0,#0x78]
        0x000012be:    2308        .#      MOVS     r3,#8
        0x000012c0:    2204        ."      MOVS     r2,#4
        0x000012c2:    2101        .!      MOVS     r1,#1
        0x000012c4:    2000        .       MOVS     r0,#0
        0x000012c6:    f000f89b    ....    BL       HSUSBD_ConfigEp ; 0x1400
        0x000012ca:    f44f7000    O..p    MOV      r0,#0x200
        0x000012ce:    490e        .I      LDR      r1,[pc,#56] ; [0x1308] = 0x200001a8
        0x000012d0:    6008        .`      STR      r0,[r1,#0]
        0x000012d2:    4602        .F      MOV      r2,r0
        0x000012d4:    f44f61c0    O..a    MOV      r1,#0x600
        0x000012d8:    2001        .       MOVS     r0,#1
        0x000012da:    f000fb21    ..!.    BL       HSUSBD_SetEpBufAddr ; 0x1920
        0x000012de:    f44f7100    O..q    MOV      r1,#0x200
        0x000012e2:    4808        .H      LDR      r0,[pc,#32] ; [0x1304] = 0x40019000
        0x000012e4:    30a0        .0      ADDS     r0,r0,#0xa0
        0x000012e6:    6001        .`      STR      r1,[r0,#0]
        0x000012e8:    2300        .#      MOVS     r3,#0
        0x000012ea:    2204        ."      MOVS     r2,#4
        0x000012ec:    2102        .!      MOVS     r1,#2
        0x000012ee:    2001        .       MOVS     r0,#1
        0x000012f0:    f000f886    ....    BL       HSUSBD_ConfigEp ; 0x1400
        0x000012f4:    2111        .!      MOVS     r1,#0x11
        0x000012f6:    4803        .H      LDR      r0,[pc,#12] ; [0x1304] = 0x40019000
        0x000012f8:    3094        .0      ADDS     r0,r0,#0x94
        0x000012fa:    6001        .`      STR      r1,[r0,#0]
        0x000012fc:    1540        @.      ASRS     r0,r0,#21
        0x000012fe:    4903        .I      LDR      r1,[pc,#12] ; [0x130c] = 0x200001ac
        0x00001300:    6008        .`      STR      r0,[r1,#0]
        0x00001302:    bd10        ..      POP      {r4,pc}
    $d
        0x00001304:    40019000    ...@    DCD    1073844224
        0x00001308:    200001a8    ...     DCD    536871336
        0x0000130c:    200001ac    ...     DCD    536871340
    $t
    i.HID_SetInReport
    HID_SetInReport
        0x00001310:    e92d47f0    -..G    PUSH     {r4-r10,lr}
        0x00001314:    4824        $H      LDR      r0,[pc,#144] ; [0x13a8] = 0x20000214
        0x00001316:    7807        .x      LDRB     r7,[r0,#0]
        0x00001318:    f8d09002    ....    LDR      r9,[r0,#2]
        0x0000131c:    f8d08006    ....    LDR      r8,[r0,#6]
        0x00001320:    f8d0500a    ...P    LDR      r5,[r0,#0xa]
        0x00001324:    2fd2        ./      CMP      r7,#0xd2
        0x00001326:    d139        9.      BNE      0x139c ; HID_SetInReport + 140
        0x00001328:    4545        EE      CMP      r5,r8
        0x0000132a:    d307        ..      BCC      0x133c ; HID_SetInReport + 44
        0x0000132c:    481f        .H      LDR      r0,[pc,#124] ; [0x13ac] = 0x200001b0
        0x0000132e:    6800        .h      LDR      r0,[r0,#0]
        0x00001330:    b920         .      CBNZ     r0,0x133c ; HID_SetInReport + 44
        0x00001332:    2700        .'      MOVS     r7,#0
        0x00001334:    a01e        ..      ADR      r0,{pc}+0x7c ; 0x13b0
        0x00001336:    f7fff823    ..#.    BL       __2printf ; 0x380
        0x0000133a:    e02f        /.      B        0x139c ; HID_SetInReport + 140
        0x0000133c:    481b        .H      LDR      r0,[pc,#108] ; [0x13ac] = 0x200001b0
        0x0000133e:    6800        .h      LDR      r0,[r0,#0]
        0x00001340:    b968        h.      CBNZ     r0,0x135e ; HID_SetInReport + 78
        0x00001342:    2400        .$      MOVS     r4,#0
        0x00001344:    e003        ..      B        0x134e ; HID_SetInReport + 62
        0x00001346:    2056        V       MOVS     r0,#0x56
        0x00001348:    491f        .I      LDR      r1,[pc,#124] ; [0x13c8] = 0x20000228
        0x0000134a:    5508        .U      STRB     r0,[r1,r4]
        0x0000134c:    1c64        d.      ADDS     r4,r4,#1
        0x0000134e:    f5b47f00    ....    CMP      r4,#0x200
        0x00001352:    dbf8        ..      BLT      0x1346 ; HID_SetInReport + 54
        0x00001354:    f44f7000    O..p    MOV      r0,#0x200
        0x00001358:    4914        .I      LDR      r1,[pc,#80] ; [0x13ac] = 0x200001b0
        0x0000135a:    6008        .`      STR      r0,[r1,#0]
        0x0000135c:    1c6d        m.      ADDS     r5,r5,#1
        0x0000135e:    481b        .H      LDR      r0,[pc,#108] ; [0x13cc] = 0x200001a8
        0x00001360:    6800        .h      LDR      r0,[r0,#0]
        0x00001362:    4912        .I      LDR      r1,[pc,#72] ; [0x13ac] = 0x200001b0
        0x00001364:    6809        .h      LDR      r1,[r1,#0]
        0x00001366:    4288        .B      CMP      r0,r1
        0x00001368:    d202        ..      BCS      0x1370 ; HID_SetInReport + 96
        0x0000136a:    4818        .H      LDR      r0,[pc,#96] ; [0x13cc] = 0x200001a8
        0x0000136c:    6800        .h      LDR      r0,[r0,#0]
        0x0000136e:    e001        ..      B        0x1374 ; HID_SetInReport + 100
        0x00001370:    480e        .H      LDR      r0,[pc,#56] ; [0x13ac] = 0x200001b0
        0x00001372:    6800        .h      LDR      r0,[r0,#0]
        0x00001374:    4606        .F      MOV      r6,r0
        0x00001376:    2400        .$      MOVS     r4,#0
        0x00001378:    e004        ..      B        0x1384 ; HID_SetInReport + 116
        0x0000137a:    4813        .H      LDR      r0,[pc,#76] ; [0x13c8] = 0x20000228
        0x0000137c:    5d00        .]      LDRB     r0,[r0,r4]
        0x0000137e:    4914        .I      LDR      r1,[pc,#80] ; [0x13d0] = 0x40019064
        0x00001380:    7008        .p      STRB     r0,[r1,#0]
        0x00001382:    1c64        d.      ADDS     r4,r4,#1
        0x00001384:    42b4        .B      CMP      r4,r6
        0x00001386:    d3f8        ..      BCC      0x137a ; HID_SetInReport + 106
        0x00001388:    4811        .H      LDR      r0,[pc,#68] ; [0x13d0] = 0x40019064
        0x0000138a:    3864        d8      SUBS     r0,r0,#0x64
        0x0000138c:    67c6        .g      STR      r6,[r0,#0x7c]
        0x0000138e:    2140        @!      MOVS     r1,#0x40
        0x00001390:    66c1        .f      STR      r1,[r0,#0x6c]
        0x00001392:    4806        .H      LDR      r0,[pc,#24] ; [0x13ac] = 0x200001b0
        0x00001394:    6800        .h      LDR      r0,[r0,#0]
        0x00001396:    1b80        ..      SUBS     r0,r0,r6
        0x00001398:    4904        .I      LDR      r1,[pc,#16] ; [0x13ac] = 0x200001b0
        0x0000139a:    6008        .`      STR      r0,[r1,#0]
        0x0000139c:    4802        .H      LDR      r0,[pc,#8] ; [0x13a8] = 0x20000214
        0x0000139e:    7007        .p      STRB     r7,[r0,#0]
        0x000013a0:    f8c0500a    ...P    STR      r5,[r0,#0xa]
        0x000013a4:    e8bd87f0    ....    POP      {r4-r10,pc}
    $d
        0x000013a8:    20000214    ...     DCD    536871444
        0x000013ac:    200001b0    ...     DCD    536871344
        0x000013b0:    64616552    Read    DCD    1684104530
        0x000013b4:    6d6f6320     com    DCD    1836016416
        0x000013b8:    646e616d    mand    DCD    1684955501
        0x000013bc:    6d6f6320     com    DCD    1836016416
        0x000013c0:    74656c70    plet    DCD    1952803952
        0x000013c4:    000a2165    e!..    DCD    663909
        0x000013c8:    20000228    (..     DCD    536871464
        0x000013cc:    200001a8    ...     DCD    536871336
        0x000013d0:    40019064    d..@    DCD    1073844324
    $t
    i.HID_VendorRequest
    HID_VendorRequest
        0x000013d4:    4808        .H      LDR      r0,[pc,#32] ; [0x13f8] = 0x200001e0
        0x000013d6:    7800        .x      LDRB     r0,[r0,#0]
        0x000013d8:    f0000080    ....    AND      r0,r0,#0x80
        0x000013dc:    b128        (.      CBZ      r0,0x13ea ; HID_VendorRequest + 22
        0x000013de:    bf00        ..      NOP      
        0x000013e0:    2002        .       MOVS     r0,#2
        0x000013e2:    4906        .I      LDR      r1,[pc,#24] ; [0x13fc] = 0x40019000
        0x000013e4:    62c8        .b      STR      r0,[r1,#0x2c]
        0x000013e6:    bf00        ..      NOP      
        0x000013e8:    e005        ..      B        0x13f6 ; HID_VendorRequest + 34
        0x000013ea:    bf00        ..      NOP      
        0x000013ec:    2002        .       MOVS     r0,#2
        0x000013ee:    4903        .I      LDR      r1,[pc,#12] ; [0x13fc] = 0x40019000
        0x000013f0:    62c8        .b      STR      r0,[r1,#0x2c]
        0x000013f2:    bf00        ..      NOP      
        0x000013f4:    bf00        ..      NOP      
        0x000013f6:    4770        pG      BX       lr
    $d
        0x000013f8:    200001e0    ...     DCD    536871392
        0x000013fc:    40019000    ...@    DCD    1073844224
    $t
    i.HSUSBD_ConfigEp
    HSUSBD_ConfigEp
        0x00001400:    b570        p.      PUSH     {r4-r6,lr}
        0x00001402:    2a02        .*      CMP      r2,#2
        0x00001404:    d107        ..      BNE      0x1416 ; HSUSBD_ConfigEp + 22
        0x00001406:    2501        .%      MOVS     r5,#1
        0x00001408:    4c13        .L      LDR      r4,[pc,#76] ; [0x1458] = 0x40019064
        0x0000140a:    eb000680    ....    ADD      r6,r0,r0,LSL #2
        0x0000140e:    eb0404c6    ....    ADD      r4,r4,r6,LSL #3
        0x00001412:    6125        %a      STR      r5,[r4,#0x10]
        0x00001414:    e012        ..      B        0x143c ; HSUSBD_ConfigEp + 60
        0x00001416:    2a04        .*      CMP      r2,#4
        0x00001418:    d107        ..      BNE      0x142a ; HSUSBD_ConfigEp + 42
        0x0000141a:    2503        .%      MOVS     r5,#3
        0x0000141c:    4c0e        .L      LDR      r4,[pc,#56] ; [0x1458] = 0x40019064
        0x0000141e:    eb000680    ....    ADD      r6,r0,r0,LSL #2
        0x00001422:    eb0404c6    ....    ADD      r4,r4,r6,LSL #3
        0x00001426:    6125        %a      STR      r5,[r4,#0x10]
        0x00001428:    e008        ..      B        0x143c ; HSUSBD_ConfigEp + 60
        0x0000142a:    2a06        .*      CMP      r2,#6
        0x0000142c:    d106        ..      BNE      0x143c ; HSUSBD_ConfigEp + 60
        0x0000142e:    2505        .%      MOVS     r5,#5
        0x00001430:    4c09        .L      LDR      r4,[pc,#36] ; [0x1458] = 0x40019064
        0x00001432:    eb000680    ....    ADD      r6,r0,r0,LSL #2
        0x00001436:    eb0404c6    ....    ADD      r4,r4,r6,LSL #3
        0x0000143a:    6125        %a      STR      r5,[r4,#0x10]
        0x0000143c:    ea420403    B...    ORR      r4,r2,r3
        0x00001440:    f0440401    D...    ORR      r4,r4,#1
        0x00001444:    ea441501    D...    ORR      r5,r4,r1,LSL #4
        0x00001448:    4c03        .L      LDR      r4,[pc,#12] ; [0x1458] = 0x40019064
        0x0000144a:    eb000680    ....    ADD      r6,r0,r0,LSL #2
        0x0000144e:    eb0404c6    ....    ADD      r4,r4,r6,LSL #3
        0x00001452:    61e5        .a      STR      r5,[r4,#0x1c]
        0x00001454:    bd70        p.      POP      {r4-r6,pc}
    $d
        0x00001456:    0000        ..      DCW    0
        0x00001458:    40019064    d..@    DCD    1073844324
    $t
    i.HSUSBD_CtrlIn
    HSUSBD_CtrlIn
        0x0000145c:    b50c        ..      PUSH     {r2,r3,lr}
        0x0000145e:    4930        0I      LDR      r1,[pc,#192] ; [0x1520] = 0x20000210
        0x00001460:    6809        .h      LDR      r1,[r1,#0]
        0x00001462:    4a30        0J      LDR      r2,[pc,#192] ; [0x1524] = 0x20000200
        0x00001464:    6812        .h      LDR      r2,[r2,#0]
        0x00001466:    4291        .B      CMP      r1,r2
        0x00001468:    d323        #.      BCC      0x14b2 ; HSUSBD_CtrlIn + 86
        0x0000146a:    492e        .I      LDR      r1,[pc,#184] ; [0x1524] = 0x20000200
        0x0000146c:    6809        .h      LDR      r1,[r1,#0]
        0x0000146e:    0889        ..      LSRS     r1,r1,#2
        0x00001470:    9100        ..      STR      r1,[sp,#0]
        0x00001472:    2100        .!      MOVS     r1,#0
        0x00001474:    9101        ..      STR      r1,[sp,#4]
        0x00001476:    e00c        ..      B        0x1492 ; HSUSBD_CtrlIn + 54
        0x00001478:    492b        +I      LDR      r1,[pc,#172] ; [0x1528] = 0x200001fc
        0x0000147a:    6809        .h      LDR      r1,[r1,#0]
        0x0000147c:    6809        .h      LDR      r1,[r1,#0]
        0x0000147e:    4a2b        +J      LDR      r2,[pc,#172] ; [0x152c] = 0x40019000
        0x00001480:    6291        .b      STR      r1,[r2,#0x28]
        0x00001482:    4929        )I      LDR      r1,[pc,#164] ; [0x1528] = 0x200001fc
        0x00001484:    6809        .h      LDR      r1,[r1,#0]
        0x00001486:    1d09        ..      ADDS     r1,r1,#4
        0x00001488:    4a27        'J      LDR      r2,[pc,#156] ; [0x1528] = 0x200001fc
        0x0000148a:    6011        .`      STR      r1,[r2,#0]
        0x0000148c:    9901        ..      LDR      r1,[sp,#4]
        0x0000148e:    1c49        I.      ADDS     r1,r1,#1
        0x00001490:    9101        ..      STR      r1,[sp,#4]
        0x00001492:    e9dd2100    ...!    LDRD     r2,r1,[sp,#0]
        0x00001496:    4291        .B      CMP      r1,r2
        0x00001498:    d3ee        ..      BCC      0x1478 ; HSUSBD_CtrlIn + 28
        0x0000149a:    4922        "I      LDR      r1,[pc,#136] ; [0x1524] = 0x20000200
        0x0000149c:    6809        .h      LDR      r1,[r1,#0]
        0x0000149e:    4a23        #J      LDR      r2,[pc,#140] ; [0x152c] = 0x40019000
        0x000014a0:    6391        .c      STR      r1,[r2,#0x38]
        0x000014a2:    491f        .I      LDR      r1,[pc,#124] ; [0x1520] = 0x20000210
        0x000014a4:    6809        .h      LDR      r1,[r1,#0]
        0x000014a6:    4a1f        .J      LDR      r2,[pc,#124] ; [0x1524] = 0x20000200
        0x000014a8:    6812        .h      LDR      r2,[r2,#0]
        0x000014aa:    1a89        ..      SUBS     r1,r1,r2
        0x000014ac:    4a1c        .J      LDR      r2,[pc,#112] ; [0x1520] = 0x20000210
        0x000014ae:    6011        .`      STR      r1,[r2,#0]
        0x000014b0:    e034        4.      B        0x151c ; HSUSBD_CtrlIn + 192
        0x000014b2:    491b        .I      LDR      r1,[pc,#108] ; [0x1520] = 0x20000210
        0x000014b4:    6809        .h      LDR      r1,[r1,#0]
        0x000014b6:    0889        ..      LSRS     r1,r1,#2
        0x000014b8:    9100        ..      STR      r1,[sp,#0]
        0x000014ba:    2100        .!      MOVS     r1,#0
        0x000014bc:    9101        ..      STR      r1,[sp,#4]
        0x000014be:    e00c        ..      B        0x14da ; HSUSBD_CtrlIn + 126
        0x000014c0:    4919        .I      LDR      r1,[pc,#100] ; [0x1528] = 0x200001fc
        0x000014c2:    6809        .h      LDR      r1,[r1,#0]
        0x000014c4:    6809        .h      LDR      r1,[r1,#0]
        0x000014c6:    4a19        .J      LDR      r2,[pc,#100] ; [0x152c] = 0x40019000
        0x000014c8:    6291        .b      STR      r1,[r2,#0x28]
        0x000014ca:    4917        .I      LDR      r1,[pc,#92] ; [0x1528] = 0x200001fc
        0x000014cc:    6809        .h      LDR      r1,[r1,#0]
        0x000014ce:    1d09        ..      ADDS     r1,r1,#4
        0x000014d0:    4a15        .J      LDR      r2,[pc,#84] ; [0x1528] = 0x200001fc
        0x000014d2:    6011        .`      STR      r1,[r2,#0]
        0x000014d4:    9901        ..      LDR      r1,[sp,#4]
        0x000014d6:    1c49        I.      ADDS     r1,r1,#1
        0x000014d8:    9101        ..      STR      r1,[sp,#4]
        0x000014da:    e9dd2100    ...!    LDRD     r2,r1,[sp,#0]
        0x000014de:    4291        .B      CMP      r1,r2
        0x000014e0:    d3ee        ..      BCC      0x14c0 ; HSUSBD_CtrlIn + 100
        0x000014e2:    2100        .!      MOVS     r1,#0
        0x000014e4:    9101        ..      STR      r1,[sp,#4]
        0x000014e6:    e009        ..      B        0x14fc ; HSUSBD_CtrlIn + 160
        0x000014e8:    490f        .I      LDR      r1,[pc,#60] ; [0x1528] = 0x200001fc
        0x000014ea:    6809        .h      LDR      r1,[r1,#0]
        0x000014ec:    9a01        ..      LDR      r2,[sp,#4]
        0x000014ee:    5c88        .\      LDRB     r0,[r1,r2]
        0x000014f0:    490e        .I      LDR      r1,[pc,#56] ; [0x152c] = 0x40019000
        0x000014f2:    3128        (1      ADDS     r1,r1,#0x28
        0x000014f4:    7008        .p      STRB     r0,[r1,#0]
        0x000014f6:    9901        ..      LDR      r1,[sp,#4]
        0x000014f8:    1c49        I.      ADDS     r1,r1,#1
        0x000014fa:    9101        ..      STR      r1,[sp,#4]
        0x000014fc:    4908        .I      LDR      r1,[pc,#32] ; [0x1520] = 0x20000210
        0x000014fe:    7809        .x      LDRB     r1,[r1,#0]
        0x00001500:    f0010103    ....    AND      r1,r1,#3
        0x00001504:    9a01        ..      LDR      r2,[sp,#4]
        0x00001506:    4291        .B      CMP      r1,r2
        0x00001508:    d8ee        ..      BHI      0x14e8 ; HSUSBD_CtrlIn + 140
        0x0000150a:    4905        .I      LDR      r1,[pc,#20] ; [0x1520] = 0x20000210
        0x0000150c:    6809        .h      LDR      r1,[r1,#0]
        0x0000150e:    4a07        .J      LDR      r2,[pc,#28] ; [0x152c] = 0x40019000
        0x00001510:    6391        .c      STR      r1,[r2,#0x38]
        0x00001512:    2100        .!      MOVS     r1,#0
        0x00001514:    4a04        .J      LDR      r2,[pc,#16] ; [0x1528] = 0x200001fc
        0x00001516:    6011        .`      STR      r1,[r2,#0]
        0x00001518:    4a01        .J      LDR      r2,[pc,#4] ; [0x1520] = 0x20000210
        0x0000151a:    6011        .`      STR      r1,[r2,#0]
        0x0000151c:    bd0c        ..      POP      {r2,r3,pc}
    $d
        0x0000151e:    0000        ..      DCW    0
        0x00001520:    20000210    ...     DCD    536871440
        0x00001524:    20000200    ...     DCD    536871424
        0x00001528:    200001fc    ...     DCD    536871420
        0x0000152c:    40019000    ...@    DCD    1073844224
    $t
    i.HSUSBD_GetDescriptor
    HSUSBD_GetDescriptor
        0x00001530:    b5f0        ..      PUSH     {r4-r7,lr}
        0x00001532:    2500        .%      MOVS     r5,#0
        0x00001534:    48b3        .H      LDR      r0,[pc,#716] ; [0x1804] = 0x200001e0
        0x00001536:    88c3        ..      LDRH     r3,[r0,#6]
        0x00001538:    2000        .       MOVS     r0,#0
        0x0000153a:    49b3        .I      LDR      r1,[pc,#716] ; [0x1808] = 0x20000209
        0x0000153c:    7008        .p      STRB     r0,[r1,#0]
        0x0000153e:    48b1        .H      LDR      r0,[pc,#708] ; [0x1804] = 0x200001e0
        0x00001540:    8840        @.      LDRH     r0,[r0,#2]
        0x00001542:    0a00        ..      LSRS     r0,r0,#8
        0x00001544:    2806        .(      CMP      r0,#6
        0x00001546:    d063        c.      BEQ      0x1610 ; HSUSBD_GetDescriptor + 224
        0x00001548:    dc06        ..      BGT      0x1558 ; HSUSBD_GetDescriptor + 40
        0x0000154a:    2801        .(      CMP      r0,#1
        0x0000154c:    d00b        ..      BEQ      0x1566 ; HSUSBD_GetDescriptor + 54
        0x0000154e:    2802        .(      CMP      r0,#2
        0x00001550:    d016        ..      BEQ      0x1580 ; HSUSBD_GetDescriptor + 80
        0x00001552:    2803        .(      CMP      r0,#3
        0x00001554:    d17d        }.      BNE      0x1652 ; HSUSBD_GetDescriptor + 290
        0x00001556:    e11a        ..      B        0x178e ; HSUSBD_GetDescriptor + 606
        0x00001558:    2807        .(      CMP      r0,#7
        0x0000155a:    d066        f.      BEQ      0x162a ; HSUSBD_GetDescriptor + 250
        0x0000155c:    2821        !(      CMP      r0,#0x21
        0x0000155e:    d079        y.      BEQ      0x1654 ; HSUSBD_GetDescriptor + 292
        0x00001560:    2822        "(      CMP      r0,#0x22
        0x00001562:    d1f7        ..      BNE      0x1554 ; HSUSBD_GetDescriptor + 36
        0x00001564:    e0c7        ..      B        0x16f6 ; HSUSBD_GetDescriptor + 454
        0x00001566:    2b12        .+      CMP      r3,#0x12
        0x00001568:    d201        ..      BCS      0x156e ; HSUSBD_GetDescriptor + 62
        0x0000156a:    4618        .F      MOV      r0,r3
        0x0000156c:    e000        ..      B        0x1570 ; HSUSBD_GetDescriptor + 64
        0x0000156e:    2012        .       MOVS     r0,#0x12
        0x00001570:    4603        .F      MOV      r3,r0
        0x00001572:    49a6        .I      LDR      r1,[pc,#664] ; [0x180c] = 0x200001e8
        0x00001574:    6809        .h      LDR      r1,[r1,#0]
        0x00001576:    6808        .h      LDR      r0,[r1,#0]
        0x00001578:    4619        .F      MOV      r1,r3
        0x0000157a:    f000f98b    ....    BL       HSUSBD_PrepareCtrlIn ; 0x1894
        0x0000157e:    e13e        >.      B        0x17fe ; HSUSBD_GetDescriptor + 718
        0x00001580:    48a3        .H      LDR      r0,[pc,#652] ; [0x1810] = 0x40019000
        0x00001582:    6980        .i      LDR      r0,[r0,#0x18]
        0x00001584:    f0000004    ....    AND      r0,r0,#4
        0x00001588:    2804        .(      CMP      r0,#4
        0x0000158a:    d120         .      BNE      0x15ce ; HSUSBD_GetDescriptor + 158
        0x0000158c:    489f        .H      LDR      r0,[pc,#636] ; [0x180c] = 0x200001e8
        0x0000158e:    6800        .h      LDR      r0,[r0,#0]
        0x00001590:    6840        @h      LDR      r0,[r0,#4]
        0x00001592:    78c4        .x      LDRB     r4,[r0,#3]
        0x00001594:    489d        .H      LDR      r0,[pc,#628] ; [0x180c] = 0x200001e8
        0x00001596:    6800        .h      LDR      r0,[r0,#0]
        0x00001598:    6840        @h      LDR      r0,[r0,#4]
        0x0000159a:    7880        .x      LDRB     r0,[r0,#2]
        0x0000159c:    eb002404    ...$    ADD      r4,r0,r4,LSL #8
        0x000015a0:    42a3        .B      CMP      r3,r4
        0x000015a2:    d201        ..      BCS      0x15a8 ; HSUSBD_GetDescriptor + 120
        0x000015a4:    4618        .F      MOV      r0,r3
        0x000015a6:    e000        ..      B        0x15aa ; HSUSBD_GetDescriptor + 122
        0x000015a8:    4620         F      MOV      r0,r4
        0x000015aa:    4603        .F      MOV      r3,r0
        0x000015ac:    4899        .H      LDR      r0,[pc,#612] ; [0x1814] = 0x20000200
        0x000015ae:    6800        .h      LDR      r0,[r0,#0]
        0x000015b0:    fbb3f1f0    ....    UDIV     r1,r3,r0
        0x000015b4:    fb003011    ...0    MLS      r0,r0,r1,r3
        0x000015b8:    b910        ..      CBNZ     r0,0x15c0 ; HSUSBD_GetDescriptor + 144
        0x000015ba:    2001        .       MOVS     r0,#1
        0x000015bc:    4992        .I      LDR      r1,[pc,#584] ; [0x1808] = 0x20000209
        0x000015be:    7008        .p      STRB     r0,[r1,#0]
        0x000015c0:    4992        .I      LDR      r1,[pc,#584] ; [0x180c] = 0x200001e8
        0x000015c2:    6809        .h      LDR      r1,[r1,#0]
        0x000015c4:    6848        Hh      LDR      r0,[r1,#4]
        0x000015c6:    4619        .F      MOV      r1,r3
        0x000015c8:    f000f964    ..d.    BL       HSUSBD_PrepareCtrlIn ; 0x1894
        0x000015cc:    e01f        ..      B        0x160e ; HSUSBD_GetDescriptor + 222
        0x000015ce:    488f        .H      LDR      r0,[pc,#572] ; [0x180c] = 0x200001e8
        0x000015d0:    6800        .h      LDR      r0,[r0,#0]
        0x000015d2:    6900        .i      LDR      r0,[r0,#0x10]
        0x000015d4:    78c4        .x      LDRB     r4,[r0,#3]
        0x000015d6:    488d        .H      LDR      r0,[pc,#564] ; [0x180c] = 0x200001e8
        0x000015d8:    6800        .h      LDR      r0,[r0,#0]
        0x000015da:    6900        .i      LDR      r0,[r0,#0x10]
        0x000015dc:    7880        .x      LDRB     r0,[r0,#2]
        0x000015de:    eb002404    ...$    ADD      r4,r0,r4,LSL #8
        0x000015e2:    42a3        .B      CMP      r3,r4
        0x000015e4:    d201        ..      BCS      0x15ea ; HSUSBD_GetDescriptor + 186
        0x000015e6:    4618        .F      MOV      r0,r3
        0x000015e8:    e000        ..      B        0x15ec ; HSUSBD_GetDescriptor + 188
        0x000015ea:    4620         F      MOV      r0,r4
        0x000015ec:    4603        .F      MOV      r3,r0
        0x000015ee:    4889        .H      LDR      r0,[pc,#548] ; [0x1814] = 0x20000200
        0x000015f0:    6800        .h      LDR      r0,[r0,#0]
        0x000015f2:    fbb3f1f0    ....    UDIV     r1,r3,r0
        0x000015f6:    fb003011    ...0    MLS      r0,r0,r1,r3
        0x000015fa:    b910        ..      CBNZ     r0,0x1602 ; HSUSBD_GetDescriptor + 210
        0x000015fc:    2001        .       MOVS     r0,#1
        0x000015fe:    4982        .I      LDR      r1,[pc,#520] ; [0x1808] = 0x20000209
        0x00001600:    7008        .p      STRB     r0,[r1,#0]
        0x00001602:    4982        .I      LDR      r1,[pc,#520] ; [0x180c] = 0x200001e8
        0x00001604:    6809        .h      LDR      r1,[r1,#0]
        0x00001606:    6908        .i      LDR      r0,[r1,#0x10]
        0x00001608:    4619        .F      MOV      r1,r3
        0x0000160a:    f000f943    ..C.    BL       HSUSBD_PrepareCtrlIn ; 0x1894
        0x0000160e:    e0f6        ..      B        0x17fe ; HSUSBD_GetDescriptor + 718
        0x00001610:    2b0a        .+      CMP      r3,#0xa
        0x00001612:    d201        ..      BCS      0x1618 ; HSUSBD_GetDescriptor + 232
        0x00001614:    4618        .F      MOV      r0,r3
        0x00001616:    e000        ..      B        0x161a ; HSUSBD_GetDescriptor + 234
        0x00001618:    200a        .       MOVS     r0,#0xa
        0x0000161a:    4603        .F      MOV      r3,r0
        0x0000161c:    497b        {I      LDR      r1,[pc,#492] ; [0x180c] = 0x200001e8
        0x0000161e:    6809        .h      LDR      r1,[r1,#0]
        0x00001620:    68c8        .h      LDR      r0,[r1,#0xc]
        0x00001622:    4619        .F      MOV      r1,r3
        0x00001624:    f000f936    ..6.    BL       HSUSBD_PrepareCtrlIn ; 0x1894
        0x00001628:    e0e9        ..      B        0x17fe ; HSUSBD_GetDescriptor + 718
        0x0000162a:    4879        yH      LDR      r0,[pc,#484] ; [0x1810] = 0x40019000
        0x0000162c:    6980        .i      LDR      r0,[r0,#0x18]
        0x0000162e:    f0000004    ....    AND      r0,r0,#4
        0x00001632:    2804        .(      CMP      r0,#4
        0x00001634:    d122        ".      BNE      0x167c ; HSUSBD_GetDescriptor + 332
        0x00001636:    4875        uH      LDR      r0,[pc,#468] ; [0x180c] = 0x200001e8
        0x00001638:    6800        .h      LDR      r0,[r0,#0]
        0x0000163a:    6940        @i      LDR      r0,[r0,#0x14]
        0x0000163c:    78c4        .x      LDRB     r4,[r0,#3]
        0x0000163e:    4873        sH      LDR      r0,[pc,#460] ; [0x180c] = 0x200001e8
        0x00001640:    6800        .h      LDR      r0,[r0,#0]
        0x00001642:    6940        @i      LDR      r0,[r0,#0x14]
        0x00001644:    7880        .x      LDRB     r0,[r0,#2]
        0x00001646:    eb002404    ...$    ADD      r4,r0,r4,LSL #8
        0x0000164a:    42a3        .B      CMP      r3,r4
        0x0000164c:    d203        ..      BCS      0x1656 ; HSUSBD_GetDescriptor + 294
        0x0000164e:    4618        .F      MOV      r0,r3
        0x00001650:    e002        ..      B        0x1658 ; HSUSBD_GetDescriptor + 296
        0x00001652:    e0cf        ..      B        0x17f4 ; HSUSBD_GetDescriptor + 708
        0x00001654:    e033        3.      B        0x16be ; HSUSBD_GetDescriptor + 398
        0x00001656:    4620         F      MOV      r0,r4
        0x00001658:    4603        .F      MOV      r3,r0
        0x0000165a:    486e        nH      LDR      r0,[pc,#440] ; [0x1814] = 0x20000200
        0x0000165c:    6800        .h      LDR      r0,[r0,#0]
        0x0000165e:    fbb3f1f0    ....    UDIV     r1,r3,r0
        0x00001662:    fb003011    ...0    MLS      r0,r0,r1,r3
        0x00001666:    b910        ..      CBNZ     r0,0x166e ; HSUSBD_GetDescriptor + 318
        0x00001668:    2001        .       MOVS     r0,#1
        0x0000166a:    4967        gI      LDR      r1,[pc,#412] ; [0x1808] = 0x20000209
        0x0000166c:    7008        .p      STRB     r0,[r1,#0]
        0x0000166e:    4967        gI      LDR      r1,[pc,#412] ; [0x180c] = 0x200001e8
        0x00001670:    6809        .h      LDR      r1,[r1,#0]
        0x00001672:    6948        Hi      LDR      r0,[r1,#0x14]
        0x00001674:    4619        .F      MOV      r1,r3
        0x00001676:    f000f90d    ....    BL       HSUSBD_PrepareCtrlIn ; 0x1894
        0x0000167a:    e01f        ..      B        0x16bc ; HSUSBD_GetDescriptor + 396
        0x0000167c:    4863        cH      LDR      r0,[pc,#396] ; [0x180c] = 0x200001e8
        0x0000167e:    6800        .h      LDR      r0,[r0,#0]
        0x00001680:    6980        .i      LDR      r0,[r0,#0x18]
        0x00001682:    78c4        .x      LDRB     r4,[r0,#3]
        0x00001684:    4861        aH      LDR      r0,[pc,#388] ; [0x180c] = 0x200001e8
        0x00001686:    6800        .h      LDR      r0,[r0,#0]
        0x00001688:    6980        .i      LDR      r0,[r0,#0x18]
        0x0000168a:    7880        .x      LDRB     r0,[r0,#2]
        0x0000168c:    eb002404    ...$    ADD      r4,r0,r4,LSL #8
        0x00001690:    42a3        .B      CMP      r3,r4
        0x00001692:    d201        ..      BCS      0x1698 ; HSUSBD_GetDescriptor + 360
        0x00001694:    4618        .F      MOV      r0,r3
        0x00001696:    e000        ..      B        0x169a ; HSUSBD_GetDescriptor + 362
        0x00001698:    4620         F      MOV      r0,r4
        0x0000169a:    4603        .F      MOV      r3,r0
        0x0000169c:    485d        ]H      LDR      r0,[pc,#372] ; [0x1814] = 0x20000200
        0x0000169e:    6800        .h      LDR      r0,[r0,#0]
        0x000016a0:    fbb3f1f0    ....    UDIV     r1,r3,r0
        0x000016a4:    fb003011    ...0    MLS      r0,r0,r1,r3
        0x000016a8:    b910        ..      CBNZ     r0,0x16b0 ; HSUSBD_GetDescriptor + 384
        0x000016aa:    2001        .       MOVS     r0,#1
        0x000016ac:    4956        VI      LDR      r1,[pc,#344] ; [0x1808] = 0x20000209
        0x000016ae:    7008        .p      STRB     r0,[r1,#0]
        0x000016b0:    4956        VI      LDR      r1,[pc,#344] ; [0x180c] = 0x200001e8
        0x000016b2:    6809        .h      LDR      r1,[r1,#0]
        0x000016b4:    6988        .i      LDR      r0,[r1,#0x18]
        0x000016b6:    4619        .F      MOV      r1,r3
        0x000016b8:    f000f8ec    ....    BL       HSUSBD_PrepareCtrlIn ; 0x1894
        0x000016bc:    e09f        ..      B        0x17fe ; HSUSBD_GetDescriptor + 718
        0x000016be:    2b09        .+      CMP      r3,#9
        0x000016c0:    d201        ..      BCS      0x16c6 ; HSUSBD_GetDescriptor + 406
        0x000016c2:    4618        .F      MOV      r0,r3
        0x000016c4:    e000        ..      B        0x16c8 ; HSUSBD_GetDescriptor + 408
        0x000016c6:    2009        .       MOVS     r0,#9
        0x000016c8:    4603        .F      MOV      r3,r0
        0x000016ca:    4953        SI      LDR      r1,[pc,#332] ; [0x1818] = 0x20000898
        0x000016cc:    484f        OH      LDR      r0,[pc,#316] ; [0x180c] = 0x200001e8
        0x000016ce:    6800        .h      LDR      r0,[r0,#0]
        0x000016d0:    6840        @h      LDR      r0,[r0,#4]
        0x000016d2:    f1000212    ....    ADD      r2,r0,#0x12
        0x000016d6:    461c        .F      MOV      r4,r3
        0x000016d8:    2000        .       MOVS     r0,#0
        0x000016da:    e002        ..      B        0x16e2 ; HSUSBD_GetDescriptor + 434
        0x000016dc:    5c16        .\      LDRB     r6,[r2,r0]
        0x000016de:    540e        .T      STRB     r6,[r1,r0]
        0x000016e0:    1c40        @.      ADDS     r0,r0,#1
        0x000016e2:    1e26        &.      SUBS     r6,r4,#0
        0x000016e4:    f1a40401    ....    SUB      r4,r4,#1
        0x000016e8:    d1f8        ..      BNE      0x16dc ; HSUSBD_GetDescriptor + 428
        0x000016ea:    bf00        ..      NOP      
        0x000016ec:    4619        .F      MOV      r1,r3
        0x000016ee:    484a        JH      LDR      r0,[pc,#296] ; [0x1818] = 0x20000898
        0x000016f0:    f000f8d0    ....    BL       HSUSBD_PrepareCtrlIn ; 0x1894
        0x000016f4:    e083        ..      B        0x17fe ; HSUSBD_GetDescriptor + 718
        0x000016f6:    4847        GH      LDR      r0,[pc,#284] ; [0x1814] = 0x20000200
        0x000016f8:    6800        .h      LDR      r0,[r0,#0]
        0x000016fa:    fbb3f1f0    ....    UDIV     r1,r3,r0
        0x000016fe:    fb003011    ...0    MLS      r0,r0,r1,r3
        0x00001702:    b910        ..      CBNZ     r0,0x170a ; HSUSBD_GetDescriptor + 474
        0x00001704:    2001        .       MOVS     r0,#1
        0x00001706:    4940        @I      LDR      r1,[pc,#256] ; [0x1808] = 0x20000209
        0x00001708:    7008        .p      STRB     r0,[r1,#0]
        0x0000170a:    4841        AH      LDR      r0,[pc,#260] ; [0x1810] = 0x40019000
        0x0000170c:    6980        .i      LDR      r0,[r0,#0x18]
        0x0000170e:    f0000004    ....    AND      r0,r0,#4
        0x00001712:    2804        .(      CMP      r0,#4
        0x00001714:    d11d        ..      BNE      0x1752 ; HSUSBD_GetDescriptor + 546
        0x00001716:    483d        =H      LDR      r0,[pc,#244] ; [0x180c] = 0x200001e8
        0x00001718:    6800        .h      LDR      r0,[r0,#0]
        0x0000171a:    6a00        .j      LDR      r0,[r0,#0x20]
        0x0000171c:    4939        9I      LDR      r1,[pc,#228] ; [0x1804] = 0x200001e0
        0x0000171e:    7909        .y      LDRB     r1,[r1,#4]
        0x00001720:    f8500021    P.!.    LDR      r0,[r0,r1,LSL #2]
        0x00001724:    4298        .B      CMP      r0,r3
        0x00001726:    d901        ..      BLS      0x172c ; HSUSBD_GetDescriptor + 508
        0x00001728:    4618        .F      MOV      r0,r3
        0x0000172a:    e006        ..      B        0x173a ; HSUSBD_GetDescriptor + 522
        0x0000172c:    4837        7H      LDR      r0,[pc,#220] ; [0x180c] = 0x200001e8
        0x0000172e:    6800        .h      LDR      r0,[r0,#0]
        0x00001730:    6a00        .j      LDR      r0,[r0,#0x20]
        0x00001732:    4934        4I      LDR      r1,[pc,#208] ; [0x1804] = 0x200001e0
        0x00001734:    7909        .y      LDRB     r1,[r1,#4]
        0x00001736:    f8500021    P.!.    LDR      r0,[r0,r1,LSL #2]
        0x0000173a:    4603        .F      MOV      r3,r0
        0x0000173c:    4933        3I      LDR      r1,[pc,#204] ; [0x180c] = 0x200001e8
        0x0000173e:    6809        .h      LDR      r1,[r1,#0]
        0x00001740:    69c9        .i      LDR      r1,[r1,#0x1c]
        0x00001742:    4a30        0J      LDR      r2,[pc,#192] ; [0x1804] = 0x200001e0
        0x00001744:    7912        .y      LDRB     r2,[r2,#4]
        0x00001746:    f8510022    Q.".    LDR      r0,[r1,r2,LSL #2]
        0x0000174a:    4619        .F      MOV      r1,r3
        0x0000174c:    f000f8a2    ....    BL       HSUSBD_PrepareCtrlIn ; 0x1894
        0x00001750:    e01c        ..      B        0x178c ; HSUSBD_GetDescriptor + 604
        0x00001752:    482e        .H      LDR      r0,[pc,#184] ; [0x180c] = 0x200001e8
        0x00001754:    6800        .h      LDR      r0,[r0,#0]
        0x00001756:    6a80        .j      LDR      r0,[r0,#0x28]
        0x00001758:    492a        *I      LDR      r1,[pc,#168] ; [0x1804] = 0x200001e0
        0x0000175a:    7909        .y      LDRB     r1,[r1,#4]
        0x0000175c:    f8500021    P.!.    LDR      r0,[r0,r1,LSL #2]
        0x00001760:    4298        .B      CMP      r0,r3
        0x00001762:    d901        ..      BLS      0x1768 ; HSUSBD_GetDescriptor + 568
        0x00001764:    4618        .F      MOV      r0,r3
        0x00001766:    e006        ..      B        0x1776 ; HSUSBD_GetDescriptor + 582
        0x00001768:    4828        (H      LDR      r0,[pc,#160] ; [0x180c] = 0x200001e8
        0x0000176a:    6800        .h      LDR      r0,[r0,#0]
        0x0000176c:    6a80        .j      LDR      r0,[r0,#0x28]
        0x0000176e:    4925        %I      LDR      r1,[pc,#148] ; [0x1804] = 0x200001e0
        0x00001770:    7909        .y      LDRB     r1,[r1,#4]
        0x00001772:    f8500021    P.!.    LDR      r0,[r0,r1,LSL #2]
        0x00001776:    4603        .F      MOV      r3,r0
        0x00001778:    4924        $I      LDR      r1,[pc,#144] ; [0x180c] = 0x200001e8
        0x0000177a:    6809        .h      LDR      r1,[r1,#0]
        0x0000177c:    6a49        Ij      LDR      r1,[r1,#0x24]
        0x0000177e:    4a21        !J      LDR      r2,[pc,#132] ; [0x1804] = 0x200001e0
        0x00001780:    7912        .y      LDRB     r2,[r2,#4]
        0x00001782:    f8510022    Q.".    LDR      r0,[r1,r2,LSL #2]
        0x00001786:    4619        .F      MOV      r1,r3
        0x00001788:    f000f884    ....    BL       HSUSBD_PrepareCtrlIn ; 0x1894
        0x0000178c:    e037        7.      B        0x17fe ; HSUSBD_GetDescriptor + 718
        0x0000178e:    481d        .H      LDR      r0,[pc,#116] ; [0x1804] = 0x200001e0
        0x00001790:    7880        .x      LDRB     r0,[r0,#2]
        0x00001792:    2808        .(      CMP      r0,#8
        0x00001794:    d229        ).      BCS      0x17ea ; HSUSBD_GetDescriptor + 698
        0x00001796:    481d        .H      LDR      r0,[pc,#116] ; [0x180c] = 0x200001e8
        0x00001798:    6800        .h      LDR      r0,[r0,#0]
        0x0000179a:    6880        .h      LDR      r0,[r0,#8]
        0x0000179c:    4919        .I      LDR      r1,[pc,#100] ; [0x1804] = 0x200001e0
        0x0000179e:    7889        .x      LDRB     r1,[r1,#2]
        0x000017a0:    f8500021    P.!.    LDR      r0,[r0,r1,LSL #2]
        0x000017a4:    7800        .x      LDRB     r0,[r0,#0]
        0x000017a6:    4298        .B      CMP      r0,r3
        0x000017a8:    d901        ..      BLS      0x17ae ; HSUSBD_GetDescriptor + 638
        0x000017aa:    4618        .F      MOV      r0,r3
        0x000017ac:    e007        ..      B        0x17be ; HSUSBD_GetDescriptor + 654
        0x000017ae:    4817        .H      LDR      r0,[pc,#92] ; [0x180c] = 0x200001e8
        0x000017b0:    6800        .h      LDR      r0,[r0,#0]
        0x000017b2:    6880        .h      LDR      r0,[r0,#8]
        0x000017b4:    4913        .I      LDR      r1,[pc,#76] ; [0x1804] = 0x200001e0
        0x000017b6:    7889        .x      LDRB     r1,[r1,#2]
        0x000017b8:    f8500021    P.!.    LDR      r0,[r0,r1,LSL #2]
        0x000017bc:    7800        .x      LDRB     r0,[r0,#0]
        0x000017be:    4603        .F      MOV      r3,r0
        0x000017c0:    4814        .H      LDR      r0,[pc,#80] ; [0x1814] = 0x20000200
        0x000017c2:    6800        .h      LDR      r0,[r0,#0]
        0x000017c4:    fbb3f1f0    ....    UDIV     r1,r3,r0
        0x000017c8:    fb003011    ...0    MLS      r0,r0,r1,r3
        0x000017cc:    b910        ..      CBNZ     r0,0x17d4 ; HSUSBD_GetDescriptor + 676
        0x000017ce:    2001        .       MOVS     r0,#1
        0x000017d0:    490d        .I      LDR      r1,[pc,#52] ; [0x1808] = 0x20000209
        0x000017d2:    7008        .p      STRB     r0,[r1,#0]
        0x000017d4:    490d        .I      LDR      r1,[pc,#52] ; [0x180c] = 0x200001e8
        0x000017d6:    6809        .h      LDR      r1,[r1,#0]
        0x000017d8:    6889        .h      LDR      r1,[r1,#8]
        0x000017da:    4a0a        .J      LDR      r2,[pc,#40] ; [0x1804] = 0x200001e0
        0x000017dc:    7892        .x      LDRB     r2,[r2,#2]
        0x000017de:    f8510022    Q.".    LDR      r0,[r1,r2,LSL #2]
        0x000017e2:    4619        .F      MOV      r1,r3
        0x000017e4:    f000f856    ..V.    BL       HSUSBD_PrepareCtrlIn ; 0x1894
        0x000017e8:    e003        ..      B        0x17f2 ; HSUSBD_GetDescriptor + 706
        0x000017ea:    2002        .       MOVS     r0,#2
        0x000017ec:    4908        .I      LDR      r1,[pc,#32] ; [0x1810] = 0x40019000
        0x000017ee:    62c8        .b      STR      r0,[r1,#0x2c]
        0x000017f0:    2501        .%      MOVS     r5,#1
        0x000017f2:    e004        ..      B        0x17fe ; HSUSBD_GetDescriptor + 718
        0x000017f4:    2002        .       MOVS     r0,#2
        0x000017f6:    4906        .I      LDR      r1,[pc,#24] ; [0x1810] = 0x40019000
        0x000017f8:    62c8        .b      STR      r0,[r1,#0x2c]
        0x000017fa:    2501        .%      MOVS     r5,#1
        0x000017fc:    bf00        ..      NOP      
        0x000017fe:    bf00        ..      NOP      
        0x00001800:    4628        (F      MOV      r0,r5
        0x00001802:    bdf0        ..      POP      {r4-r7,pc}
    $d
        0x00001804:    200001e0    ...     DCD    536871392
        0x00001808:    20000209    ...     DCD    536871433
        0x0000180c:    200001e8    ...     DCD    536871400
        0x00001810:    40019000    ...@    DCD    1073844224
        0x00001814:    20000200    ...     DCD    536871424
        0x00001818:    20000898    ...     DCD    536873112
    $t
    i.HSUSBD_MemCopy
    HSUSBD_MemCopy
        0x0000181c:    b530        0.      PUSH     {r4,r5,lr}
        0x0000181e:    4603        .F      MOV      r3,r0
        0x00001820:    2000        .       MOVS     r0,#0
        0x00001822:    e002        ..      B        0x182a ; HSUSBD_MemCopy + 14
        0x00001824:    5c0c        .\      LDRB     r4,[r1,r0]
        0x00001826:    541c        .T      STRB     r4,[r3,r0]
        0x00001828:    1c40        @.      ADDS     r0,r0,#1
        0x0000182a:    1e14        ..      SUBS     r4,r2,#0
        0x0000182c:    f1a20201    ....    SUB      r2,r2,#1
        0x00001830:    d1f8        ..      BNE      0x1824 ; HSUSBD_MemCopy + 8
        0x00001832:    bd30        0.      POP      {r4,r5,pc}
    i.HSUSBD_Open
    HSUSBD_Open
        0x00001834:    b510        ..      PUSH     {r4,lr}
        0x00001836:    4b11        .K      LDR      r3,[pc,#68] ; [0x187c] = 0x200001e8
        0x00001838:    6018        .`      STR      r0,[r3,#0]
        0x0000183a:    4b11        .K      LDR      r3,[pc,#68] ; [0x1880] = 0x200001f0
        0x0000183c:    6019        .`      STR      r1,[r3,#0]
        0x0000183e:    4b11        .K      LDR      r3,[pc,#68] ; [0x1884] = 0x200001f4
        0x00001840:    601a        .`      STR      r2,[r3,#0]
        0x00001842:    4b0e        .K      LDR      r3,[pc,#56] ; [0x187c] = 0x200001e8
        0x00001844:    681b        .h      LDR      r3,[r3,#0]
        0x00001846:    681b        .h      LDR      r3,[r3,#0]
        0x00001848:    79db        .y      LDRB     r3,[r3,#7]
        0x0000184a:    4c0f        .L      LDR      r4,[pc,#60] ; [0x1888] = 0x20000200
        0x0000184c:    6023        #`      STR      r3,[r4,#0]
        0x0000184e:    4b0f        .K      LDR      r3,[pc,#60] ; [0x188c] = 0x40019704
        0x00001850:    681b        .h      LDR      r3,[r3,#0]
        0x00001852:    f4437300    C..s    ORR      r3,r3,#0x200
        0x00001856:    4c0d        .L      LDR      r4,[pc,#52] ; [0x188c] = 0x40019704
        0x00001858:    6023        #`      STR      r3,[r4,#0]
        0x0000185a:    e006        ..      B        0x186a ; HSUSBD_Open + 54
        0x0000185c:    2420         $      MOVS     r4,#0x20
        0x0000185e:    4b0c        .K      LDR      r3,[pc,#48] ; [0x1890] = 0x40019000
        0x00001860:    679c        .g      STR      r4,[r3,#0x78]
        0x00001862:    6f9b        .o      LDR      r3,[r3,#0x78]
        0x00001864:    2b20         +      CMP      r3,#0x20
        0x00001866:    d100        ..      BNE      0x186a ; HSUSBD_Open + 54
        0x00001868:    e000        ..      B        0x186c ; HSUSBD_Open + 56
        0x0000186a:    e7f7        ..      B        0x185c ; HSUSBD_Open + 40
        0x0000186c:    bf00        ..      NOP      
        0x0000186e:    4b07        .K      LDR      r3,[pc,#28] ; [0x188c] = 0x40019704
        0x00001870:    681b        .h      LDR      r3,[r3,#0]
        0x00001872:    f4237380    #..s    BIC      r3,r3,#0x100
        0x00001876:    4c05        .L      LDR      r4,[pc,#20] ; [0x188c] = 0x40019704
        0x00001878:    6023        #`      STR      r3,[r4,#0]
        0x0000187a:    bd10        ..      POP      {r4,pc}
    $d
        0x0000187c:    200001e8    ...     DCD    536871400
        0x00001880:    200001f0    ...     DCD    536871408
        0x00001884:    200001f4    ...     DCD    536871412
        0x00001888:    20000200    ...     DCD    536871424
        0x0000188c:    40019704    ...@    DCD    1073846020
        0x00001890:    40019000    ...@    DCD    1073844224
    $t
    i.HSUSBD_PrepareCtrlIn
    HSUSBD_PrepareCtrlIn
        0x00001894:    4a02        .J      LDR      r2,[pc,#8] ; [0x18a0] = 0x200001fc
        0x00001896:    6010        .`      STR      r0,[r2,#0]
        0x00001898:    4a02        .J      LDR      r2,[pc,#8] ; [0x18a4] = 0x20000210
        0x0000189a:    6011        .`      STR      r1,[r2,#0]
        0x0000189c:    4770        pG      BX       lr
    $d
        0x0000189e:    0000        ..      DCW    0
        0x000018a0:    200001fc    ...     DCD    536871420
        0x000018a4:    20000210    ...     DCD    536871440
    $t
    i.HSUSBD_ProcessSetupPacket
    HSUSBD_ProcessSetupPacket
        0x000018a8:    b510        ..      PUSH     {r4,lr}
        0x000018aa:    4819        .H      LDR      r0,[pc,#100] ; [0x1910] = 0x40019000
        0x000018ac:    6c40        @l      LDR      r0,[r0,#0x44]
        0x000018ae:    4919        .I      LDR      r1,[pc,#100] ; [0x1914] = 0x200001e0
        0x000018b0:    7008        .p      STRB     r0,[r1,#0]
        0x000018b2:    4817        .H      LDR      r0,[pc,#92] ; [0x1910] = 0x40019000
        0x000018b4:    6c40        @l      LDR      r0,[r0,#0x44]
        0x000018b6:    0a00        ..      LSRS     r0,r0,#8
        0x000018b8:    7048        Hp      STRB     r0,[r1,#1]
        0x000018ba:    4815        .H      LDR      r0,[pc,#84] ; [0x1910] = 0x40019000
        0x000018bc:    6c80        .l      LDR      r0,[r0,#0x48]
        0x000018be:    8048        H.      STRH     r0,[r1,#2]
        0x000018c0:    4813        .H      LDR      r0,[pc,#76] ; [0x1910] = 0x40019000
        0x000018c2:    6cc0        .l      LDR      r0,[r0,#0x4c]
        0x000018c4:    8088        ..      STRH     r0,[r1,#4]
        0x000018c6:    4812        .H      LDR      r0,[pc,#72] ; [0x1910] = 0x40019000
        0x000018c8:    6d00        .m      LDR      r0,[r0,#0x50]
        0x000018ca:    80c8        ..      STRH     r0,[r1,#6]
        0x000018cc:    4608        .F      MOV      r0,r1
        0x000018ce:    7800        .x      LDRB     r0,[r0,#0]
        0x000018d0:    f0000060    ..`.    AND      r0,r0,#0x60
        0x000018d4:    b120         .      CBZ      r0,0x18e0 ; HSUSBD_ProcessSetupPacket + 56
        0x000018d6:    2820         (      CMP      r0,#0x20
        0x000018d8:    d005        ..      BEQ      0x18e6 ; HSUSBD_ProcessSetupPacket + 62
        0x000018da:    2840        @(      CMP      r0,#0x40
        0x000018dc:    d111        ..      BNE      0x1902 ; HSUSBD_ProcessSetupPacket + 90
        0x000018de:    e009        ..      B        0x18f4 ; HSUSBD_ProcessSetupPacket + 76
        0x000018e0:    f000f842    ..B.    BL       HSUSBD_StandardRequest ; 0x1968
        0x000018e4:    e011        ..      B        0x190a ; HSUSBD_ProcessSetupPacket + 98
        0x000018e6:    480c        .H      LDR      r0,[pc,#48] ; [0x1918] = 0x200001f0
        0x000018e8:    6800        .h      LDR      r0,[r0,#0]
        0x000018ea:    b110        ..      CBZ      r0,0x18f2 ; HSUSBD_ProcessSetupPacket + 74
        0x000018ec:    480a        .H      LDR      r0,[pc,#40] ; [0x1918] = 0x200001f0
        0x000018ee:    6800        .h      LDR      r0,[r0,#0]
        0x000018f0:    4780        .G      BLX      r0
        0x000018f2:    e00a        ..      B        0x190a ; HSUSBD_ProcessSetupPacket + 98
        0x000018f4:    4809        .H      LDR      r0,[pc,#36] ; [0x191c] = 0x200001ec
        0x000018f6:    6800        .h      LDR      r0,[r0,#0]
        0x000018f8:    b110        ..      CBZ      r0,0x1900 ; HSUSBD_ProcessSetupPacket + 88
        0x000018fa:    4808        .H      LDR      r0,[pc,#32] ; [0x191c] = 0x200001ec
        0x000018fc:    6800        .h      LDR      r0,[r0,#0]
        0x000018fe:    4780        .G      BLX      r0
        0x00001900:    e003        ..      B        0x190a ; HSUSBD_ProcessSetupPacket + 98
        0x00001902:    2002        .       MOVS     r0,#2
        0x00001904:    4902        .I      LDR      r1,[pc,#8] ; [0x1910] = 0x40019000
        0x00001906:    62c8        .b      STR      r0,[r1,#0x2c]
        0x00001908:    bf00        ..      NOP      
        0x0000190a:    bf00        ..      NOP      
        0x0000190c:    bd10        ..      POP      {r4,pc}
    $d
        0x0000190e:    0000        ..      DCW    0
        0x00001910:    40019000    ...@    DCD    1073844224
        0x00001914:    200001e0    ...     DCD    536871392
        0x00001918:    200001f0    ...     DCD    536871408
        0x0000191c:    200001ec    ...     DCD    536871404
    $t
    i.HSUSBD_SetEpBufAddr
    HSUSBD_SetEpBufAddr
        0x00001920:    b530        0.      PUSH     {r4,r5,lr}
        0x00001922:    28ff        .(      CMP      r0,#0xff
        0x00001924:    d106        ..      BNE      0x1934 ; HSUSBD_SetEpBufAddr + 20
        0x00001926:    4b0c        .K      LDR      r3,[pc,#48] ; [0x1958] = 0x40019000
        0x00001928:    6559        Ye      STR      r1,[r3,#0x54]
        0x0000192a:    188b        ..      ADDS     r3,r1,r2
        0x0000192c:    1e5b        [.      SUBS     r3,r3,#1
        0x0000192e:    4c0a        .L      LDR      r4,[pc,#40] ; [0x1958] = 0x40019000
        0x00001930:    65a3        .e      STR      r3,[r4,#0x58]
        0x00001932:    e00f        ..      B        0x1954 ; HSUSBD_SetEpBufAddr + 52
        0x00001934:    4b08        .K      LDR      r3,[pc,#32] ; [0x1958] = 0x40019000
        0x00001936:    3364        d3      ADDS     r3,r3,#0x64
        0x00001938:    eb000480    ....    ADD      r4,r0,r0,LSL #2
        0x0000193c:    eb0303c4    ....    ADD      r3,r3,r4,LSL #3
        0x00001940:    6219        .b      STR      r1,[r3,#0x20]
        0x00001942:    188b        ..      ADDS     r3,r1,r2
        0x00001944:    1e5b        [.      SUBS     r3,r3,#1
        0x00001946:    4c04        .L      LDR      r4,[pc,#16] ; [0x1958] = 0x40019000
        0x00001948:    3464        d4      ADDS     r4,r4,#0x64
        0x0000194a:    eb000580    ....    ADD      r5,r0,r0,LSL #2
        0x0000194e:    eb0404c5    ....    ADD      r4,r4,r5,LSL #3
        0x00001952:    6263        cb      STR      r3,[r4,#0x24]
        0x00001954:    bd30        0.      POP      {r4,r5,pc}
    $d
        0x00001956:    0000        ..      DCW    0
        0x00001958:    40019000    ...@    DCD    1073844224
    $t
    i.HSUSBD_SetVendorRequest
    HSUSBD_SetVendorRequest
        0x0000195c:    4901        .I      LDR      r1,[pc,#4] ; [0x1964] = 0x200001ec
        0x0000195e:    6008        .`      STR      r0,[r1,#0]
        0x00001960:    4770        pG      BX       lr
    $d
        0x00001962:    0000        ..      DCW    0
        0x00001964:    200001ec    ...     DCD    536871404
    $t
    i.HSUSBD_StandardRequest
    HSUSBD_StandardRequest
        0x00001968:    b570        p.      PUSH     {r4-r6,lr}
        0x0000196a:    2000        .       MOVS     r0,#0
        0x0000196c:    4996        .I      LDR      r1,[pc,#600] ; [0x1bc8] = 0x200001fc
        0x0000196e:    6008        .`      STR      r0,[r1,#0]
        0x00001970:    4996        .I      LDR      r1,[pc,#600] ; [0x1bcc] = 0x20000210
        0x00001972:    6008        .`      STR      r0,[r1,#0]
        0x00001974:    4896        .H      LDR      r0,[pc,#600] ; [0x1bd0] = 0x200001e0
        0x00001976:    7800        .x      LDRB     r0,[r0,#0]
        0x00001978:    f0000080    ....    AND      r0,r0,#0x80
        0x0000197c:    2880        .(      CMP      r0,#0x80
        0x0000197e:    d17f        ..      BNE      0x1a80 ; HSUSBD_StandardRequest + 280
        0x00001980:    4893        .H      LDR      r0,[pc,#588] ; [0x1bd0] = 0x200001e0
        0x00001982:    7840        @x      LDRB     r0,[r0,#1]
        0x00001984:    b300        ..      CBZ      r0,0x19c8 ; HSUSBD_StandardRequest + 96
        0x00001986:    2806        .(      CMP      r0,#6
        0x00001988:    d00d        ..      BEQ      0x19a6 ; HSUSBD_StandardRequest + 62
        0x0000198a:    2808        .(      CMP      r0,#8
        0x0000198c:    d002        ..      BEQ      0x1994 ; HSUSBD_StandardRequest + 44
        0x0000198e:    280a        .(      CMP      r0,#0xa
        0x00001990:    d171        q.      BNE      0x1a76 ; HSUSBD_StandardRequest + 270
        0x00001992:    e010        ..      B        0x19b6 ; HSUSBD_StandardRequest + 78
        0x00001994:    2101        .!      MOVS     r1,#1
        0x00001996:    488f        .H      LDR      r0,[pc,#572] ; [0x1bd4] = 0x20000204
        0x00001998:    f7ffff7c    ..|.    BL       HSUSBD_PrepareCtrlIn ; 0x1894
        0x0000199c:    2008        .       MOVS     r0,#8
        0x0000199e:    498e        .I      LDR      r1,[pc,#568] ; [0x1bd8] = 0x40019000
        0x000019a0:    6348        Hc      STR      r0,[r1,#0x34]
        0x000019a2:    6308        .c      STR      r0,[r1,#0x30]
        0x000019a4:    e06b        k.      B        0x1a7e ; HSUSBD_StandardRequest + 278
        0x000019a6:    f7fffdc3    ....    BL       HSUSBD_GetDescriptor ; 0x1530
        0x000019aa:    b918        ..      CBNZ     r0,0x19b4 ; HSUSBD_StandardRequest + 76
        0x000019ac:    2008        .       MOVS     r0,#8
        0x000019ae:    498a        .I      LDR      r1,[pc,#552] ; [0x1bd8] = 0x40019000
        0x000019b0:    6348        Hc      STR      r0,[r1,#0x34]
        0x000019b2:    6308        .c      STR      r0,[r1,#0x30]
        0x000019b4:    e063        c.      B        0x1a7e ; HSUSBD_StandardRequest + 278
        0x000019b6:    2101        .!      MOVS     r1,#1
        0x000019b8:    4888        .H      LDR      r0,[pc,#544] ; [0x1bdc] = 0x20000205
        0x000019ba:    f7ffff6b    ..k.    BL       HSUSBD_PrepareCtrlIn ; 0x1894
        0x000019be:    2008        .       MOVS     r0,#8
        0x000019c0:    4985        .I      LDR      r1,[pc,#532] ; [0x1bd8] = 0x40019000
        0x000019c2:    6348        Hc      STR      r0,[r1,#0x34]
        0x000019c4:    6308        .c      STR      r0,[r1,#0x30]
        0x000019c6:    e05a        Z.      B        0x1a7e ; HSUSBD_StandardRequest + 278
        0x000019c8:    4881        .H      LDR      r0,[pc,#516] ; [0x1bd0] = 0x200001e0
        0x000019ca:    7800        .x      LDRB     r0,[r0,#0]
        0x000019cc:    2880        .(      CMP      r0,#0x80
        0x000019ce:    d10f        ..      BNE      0x19f0 ; HSUSBD_StandardRequest + 136
        0x000019d0:    4883        .H      LDR      r0,[pc,#524] ; [0x1be0] = 0x200001e8
        0x000019d2:    6800        .h      LDR      r0,[r0,#0]
        0x000019d4:    6840        @h      LDR      r0,[r0,#4]
        0x000019d6:    79c0        .y      LDRB     r0,[r0,#7]
        0x000019d8:    f0000040    ..@.    AND      r0,r0,#0x40
        0x000019dc:    2840        @(      CMP      r0,#0x40
        0x000019de:    d103        ..      BNE      0x19e8 ; HSUSBD_StandardRequest + 128
        0x000019e0:    2001        .       MOVS     r0,#1
        0x000019e2:    4980        .I      LDR      r1,[pc,#512] ; [0x1be4] = 0x20000898
        0x000019e4:    7008        .p      STRB     r0,[r1,#0]
        0x000019e6:    e038        8.      B        0x1a5a ; HSUSBD_StandardRequest + 242
        0x000019e8:    2000        .       MOVS     r0,#0
        0x000019ea:    497e        ~I      LDR      r1,[pc,#504] ; [0x1be4] = 0x20000898
        0x000019ec:    7008        .p      STRB     r0,[r1,#0]
        0x000019ee:    e034        4.      B        0x1a5a ; HSUSBD_StandardRequest + 242
        0x000019f0:    4877        wH      LDR      r0,[pc,#476] ; [0x1bd0] = 0x200001e0
        0x000019f2:    7800        .x      LDRB     r0,[r0,#0]
        0x000019f4:    2881        .(      CMP      r0,#0x81
        0x000019f6:    d103        ..      BNE      0x1a00 ; HSUSBD_StandardRequest + 152
        0x000019f8:    2000        .       MOVS     r0,#0
        0x000019fa:    497a        zI      LDR      r1,[pc,#488] ; [0x1be4] = 0x20000898
        0x000019fc:    7008        .p      STRB     r0,[r1,#0]
        0x000019fe:    e02c        ,.      B        0x1a5a ; HSUSBD_StandardRequest + 242
        0x00001a00:    4873        sH      LDR      r0,[pc,#460] ; [0x1bd0] = 0x200001e0
        0x00001a02:    7800        .x      LDRB     r0,[r0,#0]
        0x00001a04:    2882        .(      CMP      r0,#0x82
        0x00001a06:    d128        (.      BNE      0x1a5a ; HSUSBD_StandardRequest + 242
        0x00001a08:    4871        qH      LDR      r0,[pc,#452] ; [0x1bd0] = 0x200001e0
        0x00001a0a:    7900        .y      LDRB     r0,[r0,#4]
        0x00001a0c:    f000020f    ....    AND      r2,r0,#0xf
        0x00001a10:    4611        .F      MOV      r1,r2
        0x00001a12:    2300        .#      MOVS     r3,#0
        0x00001a14:    2000        .       MOVS     r0,#0
        0x00001a16:    e015        ..      B        0x1a44 ; HSUSBD_StandardRequest + 220
        0x00001a18:    4c6f        oL      LDR      r4,[pc,#444] ; [0x1bd8] = 0x40019000
        0x00001a1a:    3464        d4      ADDS     r4,r4,#0x64
        0x00001a1c:    eb000580    ....    ADD      r5,r0,r0,LSL #2
        0x00001a20:    eb0404c5    ....    ADD      r4,r4,r5,LSL #3
        0x00001a24:    69e4        .i      LDR      r4,[r4,#0x1c]
        0x00001a26:    f3c41403    ....    UBFX     r4,r4,#4,#4
        0x00001a2a:    428c        .B      CMP      r4,r1
        0x00001a2c:    d109        ..      BNE      0x1a42 ; HSUSBD_StandardRequest + 218
        0x00001a2e:    4c6a        jL      LDR      r4,[pc,#424] ; [0x1bd8] = 0x40019000
        0x00001a30:    3464        d4      ADDS     r4,r4,#0x64
        0x00001a32:    eb000580    ....    ADD      r5,r0,r0,LSL #2
        0x00001a36:    eb0404c5    ....    ADD      r4,r4,r5,LSL #3
        0x00001a3a:    6924        $i      LDR      r4,[r4,#0x10]
        0x00001a3c:    f0040310    ....    AND      r3,r4,#0x10
        0x00001a40:    e002        ..      B        0x1a48 ; HSUSBD_StandardRequest + 224
        0x00001a42:    1c40        @.      ADDS     r0,r0,#1
        0x00001a44:    280c        .(      CMP      r0,#0xc
        0x00001a46:    d3e7        ..      BCC      0x1a18 ; HSUSBD_StandardRequest + 176
        0x00001a48:    bf00        ..      NOP      
        0x00001a4a:    b2d8        ..      UXTB     r0,r3
        0x00001a4c:    b108        ..      CBZ      r0,0x1a52 ; HSUSBD_StandardRequest + 234
        0x00001a4e:    2001        .       MOVS     r0,#1
        0x00001a50:    e000        ..      B        0x1a54 ; HSUSBD_StandardRequest + 236
        0x00001a52:    2000        .       MOVS     r0,#0
        0x00001a54:    4963        cI      LDR      r1,[pc,#396] ; [0x1be4] = 0x20000898
        0x00001a56:    7008        .p      STRB     r0,[r1,#0]
        0x00001a58:    bf00        ..      NOP      
        0x00001a5a:    2000        .       MOVS     r0,#0
        0x00001a5c:    4961        aI      LDR      r1,[pc,#388] ; [0x1be4] = 0x20000898
        0x00001a5e:    7048        Hp      STRB     r0,[r1,#1]
        0x00001a60:    2102        .!      MOVS     r1,#2
        0x00001a62:    4860        `H      LDR      r0,[pc,#384] ; [0x1be4] = 0x20000898
        0x00001a64:    f7ffff16    ....    BL       HSUSBD_PrepareCtrlIn ; 0x1894
        0x00001a68:    2008        .       MOVS     r0,#8
        0x00001a6a:    495b        [I      LDR      r1,[pc,#364] ; [0x1bd8] = 0x40019000
        0x00001a6c:    6348        Hc      STR      r0,[r1,#0x34]
        0x00001a6e:    6308        .c      STR      r0,[r1,#0x30]
        0x00001a70:    e005        ..      B        0x1a7e ; HSUSBD_StandardRequest + 278
        0x00001a72:    e005        ..      B        0x1a80 ; HSUSBD_StandardRequest + 280
        0x00001a74:    e7ff        ..      B        0x1a76 ; HSUSBD_StandardRequest + 270
        0x00001a76:    2002        .       MOVS     r0,#2
        0x00001a78:    4957        WI      LDR      r1,[pc,#348] ; [0x1bd8] = 0x40019000
        0x00001a7a:    62c8        .b      STR      r0,[r1,#0x2c]
        0x00001a7c:    bf00        ..      NOP      
        0x00001a7e:    e0a1        ..      B        0x1bc4 ; HSUSBD_StandardRequest + 604
        0x00001a80:    4853        SH      LDR      r0,[pc,#332] ; [0x1bd0] = 0x200001e0
        0x00001a82:    7840        @x      LDRB     r0,[r0,#1]
        0x00001a84:    2805        .(      CMP      r0,#5
        0x00001a86:    d043        C.      BEQ      0x1b10 ; HSUSBD_StandardRequest + 424
        0x00001a88:    dc04        ..      BGT      0x1a94 ; HSUSBD_StandardRequest + 300
        0x00001a8a:    2801        .(      CMP      r0,#1
        0x00001a8c:    d007        ..      BEQ      0x1a9e ; HSUSBD_StandardRequest + 310
        0x00001a8e:    2803        .(      CMP      r0,#3
        0x00001a90:    d17d        }.      BNE      0x1b8e ; HSUSBD_StandardRequest + 550
        0x00001a92:    e059        Y.      B        0x1b48 ; HSUSBD_StandardRequest + 480
        0x00001a94:    2809        .(      CMP      r0,#9
        0x00001a96:    d048        H.      BEQ      0x1b2a ; HSUSBD_StandardRequest + 450
        0x00001a98:    280b        .(      CMP      r0,#0xb
        0x00001a9a:    d1f9        ..      BNE      0x1a90 ; HSUSBD_StandardRequest + 296
        0x00001a9c:    e078        x.      B        0x1b90 ; HSUSBD_StandardRequest + 552
        0x00001a9e:    484c        LH      LDR      r0,[pc,#304] ; [0x1bd0] = 0x200001e0
        0x00001aa0:    7880        .x      LDRB     r0,[r0,#2]
        0x00001aa2:    bb60        `.      CBNZ     r0,0x1afe ; HSUSBD_StandardRequest + 406
        0x00001aa4:    4a4a        JJ      LDR      r2,[pc,#296] ; [0x1bd0] = 0x200001e0
        0x00001aa6:    7912        .y      LDRB     r2,[r2,#4]
        0x00001aa8:    f002010f    ....    AND      r1,r2,#0xf
        0x00001aac:    2000        .       MOVS     r0,#0
        0x00001aae:    e023        #.      B        0x1af8 ; HSUSBD_StandardRequest + 400
        0x00001ab0:    4a49        IJ      LDR      r2,[pc,#292] ; [0x1bd8] = 0x40019000
        0x00001ab2:    3264        d2      ADDS     r2,r2,#0x64
        0x00001ab4:    eb000380    ....    ADD      r3,r0,r0,LSL #2
        0x00001ab8:    eb0202c3    ....    ADD      r2,r2,r3,LSL #3
        0x00001abc:    69d2        .i      LDR      r2,[r2,#0x1c]
        0x00001abe:    f3c21203    ....    UBFX     r2,r2,#4,#4
        0x00001ac2:    428a        .B      CMP      r2,r1
        0x00001ac4:    d117        ..      BNE      0x1af6 ; HSUSBD_StandardRequest + 398
        0x00001ac6:    2201        ."      MOVS     r2,#1
        0x00001ac8:    4082        .@      LSLS     r2,r2,r0
        0x00001aca:    4b47        GK      LDR      r3,[pc,#284] ; [0x1be8] = 0x200001f8
        0x00001acc:    681b        .h      LDR      r3,[r3,#0]
        0x00001ace:    401a        .@      ANDS     r2,r2,r3
        0x00001ad0:    b98a        ..      CBNZ     r2,0x1af6 ; HSUSBD_StandardRequest + 398
        0x00001ad2:    4a41        AJ      LDR      r2,[pc,#260] ; [0x1bd8] = 0x40019000
        0x00001ad4:    3264        d2      ADDS     r2,r2,#0x64
        0x00001ad6:    eb000380    ....    ADD      r3,r0,r0,LSL #2
        0x00001ada:    eb0202c3    ....    ADD      r2,r2,r3,LSL #3
        0x00001ade:    6912        .i      LDR      r2,[r2,#0x10]
        0x00001ae0:    f00202ef    ....    AND      r2,r2,#0xef
        0x00001ae4:    f0420308    B...    ORR      r3,r2,#8
        0x00001ae8:    4a3b        ;J      LDR      r2,[pc,#236] ; [0x1bd8] = 0x40019000
        0x00001aea:    3264        d2      ADDS     r2,r2,#0x64
        0x00001aec:    eb000480    ....    ADD      r4,r0,r0,LSL #2
        0x00001af0:    eb0202c4    ....    ADD      r2,r2,r4,LSL #3
        0x00001af4:    6113        .a      STR      r3,[r2,#0x10]
        0x00001af6:    1c40        @.      ADDS     r0,r0,#1
        0x00001af8:    280c        .(      CMP      r0,#0xc
        0x00001afa:    d3d9        ..      BCC      0x1ab0 ; HSUSBD_StandardRequest + 328
        0x00001afc:    bf00        ..      NOP      
        0x00001afe:    f44f6080    O..`    MOV      r0,#0x400
        0x00001b02:    4935        5I      LDR      r1,[pc,#212] ; [0x1bd8] = 0x40019000
        0x00001b04:    6348        Hc      STR      r0,[r1,#0x34]
        0x00001b06:    2000        .       MOVS     r0,#0
        0x00001b08:    62c8        .b      STR      r0,[r1,#0x2c]
        0x00001b0a:    1508        ..      ASRS     r0,r1,#20
        0x00001b0c:    6308        .c      STR      r0,[r1,#0x30]
        0x00001b0e:    e058        X.      B        0x1bc2 ; HSUSBD_StandardRequest + 602
        0x00001b10:    482f        /H      LDR      r0,[pc,#188] ; [0x1bd0] = 0x200001e0
        0x00001b12:    7880        .x      LDRB     r0,[r0,#2]
        0x00001b14:    4935        5I      LDR      r1,[pc,#212] ; [0x1bec] = 0x2000020a
        0x00001b16:    7008        .p      STRB     r0,[r1,#0]
        0x00001b18:    f44f6080    O..`    MOV      r0,#0x400
        0x00001b1c:    492e        .I      LDR      r1,[pc,#184] ; [0x1bd8] = 0x40019000
        0x00001b1e:    6348        Hc      STR      r0,[r1,#0x34]
        0x00001b20:    2000        .       MOVS     r0,#0
        0x00001b22:    62c8        .b      STR      r0,[r1,#0x2c]
        0x00001b24:    1508        ..      ASRS     r0,r1,#20
        0x00001b26:    6308        .c      STR      r0,[r1,#0x30]
        0x00001b28:    e04b        K.      B        0x1bc2 ; HSUSBD_StandardRequest + 602
        0x00001b2a:    4829        )H      LDR      r0,[pc,#164] ; [0x1bd0] = 0x200001e0
        0x00001b2c:    7880        .x      LDRB     r0,[r0,#2]
        0x00001b2e:    4929        )I      LDR      r1,[pc,#164] ; [0x1bd4] = 0x20000204
        0x00001b30:    7008        .p      STRB     r0,[r1,#0]
        0x00001b32:    2001        .       MOVS     r0,#1
        0x00001b34:    492e        .I      LDR      r1,[pc,#184] ; [0x1bf0] = 0x20000208
        0x00001b36:    7008        .p      STRB     r0,[r1,#0]
        0x00001b38:    0280        ..      LSLS     r0,r0,#10
        0x00001b3a:    4927        'I      LDR      r1,[pc,#156] ; [0x1bd8] = 0x40019000
        0x00001b3c:    6348        Hc      STR      r0,[r1,#0x34]
        0x00001b3e:    2000        .       MOVS     r0,#0
        0x00001b40:    62c8        .b      STR      r0,[r1,#0x2c]
        0x00001b42:    1508        ..      ASRS     r0,r1,#20
        0x00001b44:    6308        .c      STR      r0,[r1,#0x30]
        0x00001b46:    e03c        <.      B        0x1bc2 ; HSUSBD_StandardRequest + 602
        0x00001b48:    4821        !H      LDR      r0,[pc,#132] ; [0x1bd0] = 0x200001e0
        0x00001b4a:    7880        .x      LDRB     r0,[r0,#2]
        0x00001b4c:    f0000003    ....    AND      r0,r0,#3
        0x00001b50:    2802        .(      CMP      r0,#2
        0x00001b52:    d107        ..      BNE      0x1b64 ; HSUSBD_StandardRequest + 508
        0x00001b54:    2001        .       MOVS     r0,#1
        0x00001b56:    4927        'I      LDR      r1,[pc,#156] ; [0x1bf4] = 0x20000206
        0x00001b58:    7008        .p      STRB     r0,[r1,#0]
        0x00001b5a:    481d        .H      LDR      r0,[pc,#116] ; [0x1bd0] = 0x200001e0
        0x00001b5c:    8880        ..      LDRH     r0,[r0,#4]
        0x00001b5e:    1200        ..      ASRS     r0,r0,#8
        0x00001b60:    4925        %I      LDR      r1,[pc,#148] ; [0x1bf8] = 0x20000207
        0x00001b62:    7008        .p      STRB     r0,[r1,#0]
        0x00001b64:    481a        .H      LDR      r0,[pc,#104] ; [0x1bd0] = 0x200001e0
        0x00001b66:    7880        .x      LDRB     r0,[r0,#2]
        0x00001b68:    f0000003    ....    AND      r0,r0,#3
        0x00001b6c:    2803        .(      CMP      r0,#3
        0x00001b6e:    d105        ..      BNE      0x1b7c ; HSUSBD_StandardRequest + 532
        0x00001b70:    4822        "H      LDR      r0,[pc,#136] ; [0x1bfc] = 0x4004f000
        0x00001b72:    6800        .h      LDR      r0,[r0,#0]
        0x00001b74:    f0400006    @...    ORR      r0,r0,#6
        0x00001b78:    4920         I      LDR      r1,[pc,#128] ; [0x1bfc] = 0x4004f000
        0x00001b7a:    6008        .`      STR      r0,[r1,#0]
        0x00001b7c:    f44f6080    O..`    MOV      r0,#0x400
        0x00001b80:    4915        .I      LDR      r1,[pc,#84] ; [0x1bd8] = 0x40019000
        0x00001b82:    6348        Hc      STR      r0,[r1,#0x34]
        0x00001b84:    2000        .       MOVS     r0,#0
        0x00001b86:    62c8        .b      STR      r0,[r1,#0x2c]
        0x00001b88:    1508        ..      ASRS     r0,r1,#20
        0x00001b8a:    6308        .c      STR      r0,[r1,#0x30]
        0x00001b8c:    e019        ..      B        0x1bc2 ; HSUSBD_StandardRequest + 602
        0x00001b8e:    e014        ..      B        0x1bba ; HSUSBD_StandardRequest + 594
        0x00001b90:    480f        .H      LDR      r0,[pc,#60] ; [0x1bd0] = 0x200001e0
        0x00001b92:    7880        .x      LDRB     r0,[r0,#2]
        0x00001b94:    4911        .I      LDR      r1,[pc,#68] ; [0x1bdc] = 0x20000205
        0x00001b96:    7008        .p      STRB     r0,[r1,#0]
        0x00001b98:    4819        .H      LDR      r0,[pc,#100] ; [0x1c00] = 0x200001f4
        0x00001b9a:    6800        .h      LDR      r0,[r0,#0]
        0x00001b9c:    b120         .      CBZ      r0,0x1ba8 ; HSUSBD_StandardRequest + 576
        0x00001b9e:    4608        .F      MOV      r0,r1
        0x00001ba0:    7800        .x      LDRB     r0,[r0,#0]
        0x00001ba2:    4917        .I      LDR      r1,[pc,#92] ; [0x1c00] = 0x200001f4
        0x00001ba4:    6809        .h      LDR      r1,[r1,#0]
        0x00001ba6:    4788        .G      BLX      r1
        0x00001ba8:    f44f6080    O..`    MOV      r0,#0x400
        0x00001bac:    490a        .I      LDR      r1,[pc,#40] ; [0x1bd8] = 0x40019000
        0x00001bae:    6348        Hc      STR      r0,[r1,#0x34]
        0x00001bb0:    2000        .       MOVS     r0,#0
        0x00001bb2:    62c8        .b      STR      r0,[r1,#0x2c]
        0x00001bb4:    1508        ..      ASRS     r0,r1,#20
        0x00001bb6:    6308        .c      STR      r0,[r1,#0x30]
        0x00001bb8:    e003        ..      B        0x1bc2 ; HSUSBD_StandardRequest + 602
        0x00001bba:    2002        .       MOVS     r0,#2
        0x00001bbc:    4906        .I      LDR      r1,[pc,#24] ; [0x1bd8] = 0x40019000
        0x00001bbe:    62c8        .b      STR      r0,[r1,#0x2c]
        0x00001bc0:    bf00        ..      NOP      
        0x00001bc2:    bf00        ..      NOP      
        0x00001bc4:    bd70        p.      POP      {r4-r6,pc}
    $d
        0x00001bc6:    0000        ..      DCW    0
        0x00001bc8:    200001fc    ...     DCD    536871420
        0x00001bcc:    20000210    ...     DCD    536871440
        0x00001bd0:    200001e0    ...     DCD    536871392
        0x00001bd4:    20000204    ...     DCD    536871428
        0x00001bd8:    40019000    ...@    DCD    1073844224
        0x00001bdc:    20000205    ...     DCD    536871429
        0x00001be0:    200001e8    ...     DCD    536871400
        0x00001be4:    20000898    ...     DCD    536873112
        0x00001be8:    200001f8    ...     DCD    536871416
        0x00001bec:    2000020a    ...     DCD    536871434
        0x00001bf0:    20000208    ...     DCD    536871432
        0x00001bf4:    20000206    ...     DCD    536871430
        0x00001bf8:    20000207    ...     DCD    536871431
        0x00001bfc:    4004f000    ...@    DCD    1074065408
        0x00001c00:    200001f4    ...     DCD    536871412
    $t
    i.HSUSBD_Start
    HSUSBD_Start
        0x00001c04:    4803        .H      LDR      r0,[pc,#12] ; [0x1c14] = 0x40019704
        0x00001c06:    6800        .h      LDR      r0,[r0,#0]
        0x00001c08:    f4407080    @..p    ORR      r0,r0,#0x100
        0x00001c0c:    4901        .I      LDR      r1,[pc,#4] ; [0x1c14] = 0x40019704
        0x00001c0e:    6008        .`      STR      r0,[r1,#0]
        0x00001c10:    4770        pG      BX       lr
    $d
        0x00001c12:    0000        ..      DCW    0
        0x00001c14:    40019704    ...@    DCD    1073846020
    $t
    i.HSUSBD_SwReset
    HSUSBD_SwReset
        0x00001c18:    2000        .       MOVS     r0,#0
        0x00001c1a:    4905        .I      LDR      r1,[pc,#20] ; [0x1c30] = 0x2000020a
        0x00001c1c:    7008        .p      STRB     r0,[r1,#0]
        0x00001c1e:    4905        .I      LDR      r1,[pc,#20] ; [0x1c34] = 0x2000020c
        0x00001c20:    6008        .`      STR      r0,[r1,#0]
        0x00001c22:    4905        .I      LDR      r1,[pc,#20] ; [0x1c38] = 0x2000020b
        0x00001c24:    7008        .p      STRB     r0,[r1,#0]
        0x00001c26:    4905        .I      LDR      r1,[pc,#20] ; [0x1c3c] = 0x20000208
        0x00001c28:    7008        .p      STRB     r0,[r1,#0]
        0x00001c2a:    4905        .I      LDR      r1,[pc,#20] ; [0x1c40] = 0x40019000
        0x00001c2c:    6208        .b      STR      r0,[r1,#0x20]
        0x00001c2e:    4770        pG      BX       lr
    $d
        0x00001c30:    2000020a    ...     DCD    536871434
        0x00001c34:    2000020c    ...     DCD    536871436
        0x00001c38:    2000020b    ...     DCD    536871435
        0x00001c3c:    20000208    ...     DCD    536871432
        0x00001c40:    40019000    ...@    DCD    1073844224
    $t
    i.HSUSBD_UpdateDeviceState
    HSUSBD_UpdateDeviceState
        0x00001c44:    b538        8.      PUSH     {r3-r5,lr}
        0x00001c46:    485b        [H      LDR      r0,[pc,#364] ; [0x1db4] = 0x200001e0
        0x00001c48:    7840        @x      LDRB     r0,[r0,#1]
        0x00001c4a:    2801        .(      CMP      r0,#1
        0x00001c4c:    d074        t.      BEQ      0x1d38 ; HSUSBD_UpdateDeviceState + 244
        0x00001c4e:    2803        .(      CMP      r0,#3
        0x00001c50:    d02b        +.      BEQ      0x1caa ; HSUSBD_UpdateDeviceState + 102
        0x00001c52:    2805        .(      CMP      r0,#5
        0x00001c54:    d002        ..      BEQ      0x1c5c ; HSUSBD_UpdateDeviceState + 24
        0x00001c56:    2809        .(      CMP      r0,#9
        0x00001c58:    d16f        o.      BNE      0x1d3a ; HSUSBD_UpdateDeviceState + 246
        0x00001c5a:    e004        ..      B        0x1c66 ; HSUSBD_UpdateDeviceState + 34
        0x00001c5c:    4856        VH      LDR      r0,[pc,#344] ; [0x1db8] = 0x2000020a
        0x00001c5e:    7800        .x      LDRB     r0,[r0,#0]
        0x00001c60:    4956        VI      LDR      r1,[pc,#344] ; [0x1dbc] = 0x40019000
        0x00001c62:    6208        .b      STR      r0,[r1,#0x20]
        0x00001c64:    e0a3        ..      B        0x1dae ; HSUSBD_UpdateDeviceState + 362
        0x00001c66:    4856        VH      LDR      r0,[pc,#344] ; [0x1dc0] = 0x20000204
        0x00001c68:    7800        .x      LDRB     r0,[r0,#0]
        0x00001c6a:    b9e8        ..      CBNZ     r0,0x1ca8 ; HSUSBD_UpdateDeviceState + 100
        0x00001c6c:    2000        .       MOVS     r0,#0
        0x00001c6e:    9000        ..      STR      r0,[sp,#0]
        0x00001c70:    e016        ..      B        0x1ca0 ; HSUSBD_UpdateDeviceState + 92
        0x00001c72:    4852        RH      LDR      r0,[pc,#328] ; [0x1dbc] = 0x40019000
        0x00001c74:    3064        d0      ADDS     r0,r0,#0x64
        0x00001c76:    9900        ..      LDR      r1,[sp,#0]
        0x00001c78:    eb010181    ....    ADD      r1,r1,r1,LSL #2
        0x00001c7c:    eb0000c1    ....    ADD      r0,r0,r1,LSL #3
        0x00001c80:    69c0        .i      LDR      r0,[r0,#0x1c]
        0x00001c82:    f0000001    ....    AND      r0,r0,#1
        0x00001c86:    b140        @.      CBZ      r0,0x1c9a ; HSUSBD_UpdateDeviceState + 86
        0x00001c88:    2108        .!      MOVS     r1,#8
        0x00001c8a:    484c        LH      LDR      r0,[pc,#304] ; [0x1dbc] = 0x40019000
        0x00001c8c:    3064        d0      ADDS     r0,r0,#0x64
        0x00001c8e:    9a00        ..      LDR      r2,[sp,#0]
        0x00001c90:    eb020282    ....    ADD      r2,r2,r2,LSL #2
        0x00001c94:    eb0000c2    ....    ADD      r0,r0,r2,LSL #3
        0x00001c98:    6101        .a      STR      r1,[r0,#0x10]
        0x00001c9a:    9800        ..      LDR      r0,[sp,#0]
        0x00001c9c:    1c40        @.      ADDS     r0,r0,#1
        0x00001c9e:    9000        ..      STR      r0,[sp,#0]
        0x00001ca0:    9800        ..      LDR      r0,[sp,#0]
        0x00001ca2:    280c        .(      CMP      r0,#0xc
        0x00001ca4:    d3e5        ..      BCC      0x1c72 ; HSUSBD_UpdateDeviceState + 46
        0x00001ca6:    bf00        ..      NOP      
        0x00001ca8:    e081        ..      B        0x1dae ; HSUSBD_UpdateDeviceState + 362
        0x00001caa:    4842        BH      LDR      r0,[pc,#264] ; [0x1db4] = 0x200001e0
        0x00001cac:    8840        @.      LDRH     r0,[r0,#2]
        0x00001cae:    bb70        p.      CBNZ     r0,0x1d0e ; HSUSBD_UpdateDeviceState + 202
        0x00001cb0:    4840        @H      LDR      r0,[pc,#256] ; [0x1db4] = 0x200001e0
        0x00001cb2:    7900        .y      LDRB     r0,[r0,#4]
        0x00001cb4:    f000000f    ....    AND      r0,r0,#0xf
        0x00001cb8:    4602        .F      MOV      r2,r0
        0x00001cba:    4611        .F      MOV      r1,r2
        0x00001cbc:    b919        ..      CBNZ     r1,0x1cc6 ; HSUSBD_UpdateDeviceState + 130
        0x00001cbe:    2302        .#      MOVS     r3,#2
        0x00001cc0:    4c3e        >L      LDR      r4,[pc,#248] ; [0x1dbc] = 0x40019000
        0x00001cc2:    62e3        .b      STR      r3,[r4,#0x2c]
        0x00001cc4:    e021        !.      B        0x1d0a ; HSUSBD_UpdateDeviceState + 198
        0x00001cc6:    2000        .       MOVS     r0,#0
        0x00001cc8:    e01d        ..      B        0x1d06 ; HSUSBD_UpdateDeviceState + 194
        0x00001cca:    4b3c        <K      LDR      r3,[pc,#240] ; [0x1dbc] = 0x40019000
        0x00001ccc:    3364        d3      ADDS     r3,r3,#0x64
        0x00001cce:    eb000480    ....    ADD      r4,r0,r0,LSL #2
        0x00001cd2:    eb0303c4    ....    ADD      r3,r3,r4,LSL #3
        0x00001cd6:    69db        .i      LDR      r3,[r3,#0x1c]
        0x00001cd8:    f3c31303    ....    UBFX     r3,r3,#4,#4
        0x00001cdc:    428b        .B      CMP      r3,r1
        0x00001cde:    d111        ..      BNE      0x1d04 ; HSUSBD_UpdateDeviceState + 192
        0x00001ce0:    4b36        6K      LDR      r3,[pc,#216] ; [0x1dbc] = 0x40019000
        0x00001ce2:    3364        d3      ADDS     r3,r3,#0x64
        0x00001ce4:    eb000480    ....    ADD      r4,r0,r0,LSL #2
        0x00001ce8:    eb0303c4    ....    ADD      r3,r3,r4,LSL #3
        0x00001cec:    691b        .i      LDR      r3,[r3,#0x10]
        0x00001cee:    f00303f7    ....    AND      r3,r3,#0xf7
        0x00001cf2:    f0430410    C...    ORR      r4,r3,#0x10
        0x00001cf6:    4b31        1K      LDR      r3,[pc,#196] ; [0x1dbc] = 0x40019000
        0x00001cf8:    3364        d3      ADDS     r3,r3,#0x64
        0x00001cfa:    eb000580    ....    ADD      r5,r0,r0,LSL #2
        0x00001cfe:    eb0303c5    ....    ADD      r3,r3,r5,LSL #3
        0x00001d02:    611c        .a      STR      r4,[r3,#0x10]
        0x00001d04:    1c40        @.      ADDS     r0,r0,#1
        0x00001d06:    280c        .(      CMP      r0,#0xc
        0x00001d08:    d3df        ..      BCC      0x1cca ; HSUSBD_UpdateDeviceState + 134
        0x00001d0a:    bf00        ..      NOP      
        0x00001d0c:    e02a        *.      B        0x1d64 ; HSUSBD_UpdateDeviceState + 288
        0x00001d0e:    e7ff        ..      B        0x1d10 ; HSUSBD_UpdateDeviceState + 204
        0x00001d10:    482c        ,H      LDR      r0,[pc,#176] ; [0x1dc4] = 0x20000206
        0x00001d12:    7800        .x      LDRB     r0,[r0,#0]
        0x00001d14:    b1f8        ..      CBZ      r0,0x1d56 ; HSUSBD_UpdateDeviceState + 274
        0x00001d16:    2000        .       MOVS     r0,#0
        0x00001d18:    492a        *I      LDR      r1,[pc,#168] ; [0x1dc4] = 0x20000206
        0x00001d1a:    7008        .p      STRB     r0,[r1,#0]
        0x00001d1c:    482a        *H      LDR      r0,[pc,#168] ; [0x1dc8] = 0x20000207
        0x00001d1e:    7800        .x      LDRB     r0,[r0,#0]
        0x00001d20:    2801        .(      CMP      r0,#1
        0x00001d22:    d102        ..      BNE      0x1d2a ; HSUSBD_UpdateDeviceState + 230
        0x00001d24:    4925        %I      LDR      r1,[pc,#148] ; [0x1dbc] = 0x40019000
        0x00001d26:    6248        Hb      STR      r0,[r1,#0x24]
        0x00001d28:    e01c        ..      B        0x1d64 ; HSUSBD_UpdateDeviceState + 288
        0x00001d2a:    4827        'H      LDR      r0,[pc,#156] ; [0x1dc8] = 0x20000207
        0x00001d2c:    7800        .x      LDRB     r0,[r0,#0]
        0x00001d2e:    2802        .(      CMP      r0,#2
        0x00001d30:    d104        ..      BNE      0x1d3c ; HSUSBD_UpdateDeviceState + 248
        0x00001d32:    4922        "I      LDR      r1,[pc,#136] ; [0x1dbc] = 0x40019000
        0x00001d34:    6248        Hb      STR      r0,[r1,#0x24]
        0x00001d36:    e015        ..      B        0x1d64 ; HSUSBD_UpdateDeviceState + 288
        0x00001d38:    e015        ..      B        0x1d66 ; HSUSBD_UpdateDeviceState + 290
        0x00001d3a:    e037        7.      B        0x1dac ; HSUSBD_UpdateDeviceState + 360
        0x00001d3c:    4822        "H      LDR      r0,[pc,#136] ; [0x1dc8] = 0x20000207
        0x00001d3e:    7800        .x      LDRB     r0,[r0,#0]
        0x00001d40:    2803        .(      CMP      r0,#3
        0x00001d42:    d102        ..      BNE      0x1d4a ; HSUSBD_UpdateDeviceState + 262
        0x00001d44:    491d        .I      LDR      r1,[pc,#116] ; [0x1dbc] = 0x40019000
        0x00001d46:    6248        Hb      STR      r0,[r1,#0x24]
        0x00001d48:    e00c        ..      B        0x1d64 ; HSUSBD_UpdateDeviceState + 288
        0x00001d4a:    481f        .H      LDR      r0,[pc,#124] ; [0x1dc8] = 0x20000207
        0x00001d4c:    7800        .x      LDRB     r0,[r0,#0]
        0x00001d4e:    2804        .(      CMP      r0,#4
        0x00001d50:    d102        ..      BNE      0x1d58 ; HSUSBD_UpdateDeviceState + 276
        0x00001d52:    491a        .I      LDR      r1,[pc,#104] ; [0x1dbc] = 0x40019000
        0x00001d54:    6248        Hb      STR      r0,[r1,#0x24]
        0x00001d56:    e005        ..      B        0x1d64 ; HSUSBD_UpdateDeviceState + 288
        0x00001d58:    481b        .H      LDR      r0,[pc,#108] ; [0x1dc8] = 0x20000207
        0x00001d5a:    7800        .x      LDRB     r0,[r0,#0]
        0x00001d5c:    2805        .(      CMP      r0,#5
        0x00001d5e:    d101        ..      BNE      0x1d64 ; HSUSBD_UpdateDeviceState + 288
        0x00001d60:    4916        .I      LDR      r1,[pc,#88] ; [0x1dbc] = 0x40019000
        0x00001d62:    6248        Hb      STR      r0,[r1,#0x24]
        0x00001d64:    e023        #.      B        0x1dae ; HSUSBD_UpdateDeviceState + 362
        0x00001d66:    4813        .H      LDR      r0,[pc,#76] ; [0x1db4] = 0x200001e0
        0x00001d68:    8840        @.      LDRH     r0,[r0,#2]
        0x00001d6a:    b9f0        ..      CBNZ     r0,0x1daa ; HSUSBD_UpdateDeviceState + 358
        0x00001d6c:    4811        .H      LDR      r0,[pc,#68] ; [0x1db4] = 0x200001e0
        0x00001d6e:    7900        .y      LDRB     r0,[r0,#4]
        0x00001d70:    f000020f    ....    AND      r2,r0,#0xf
        0x00001d74:    4611        .F      MOV      r1,r2
        0x00001d76:    2000        .       MOVS     r0,#0
        0x00001d78:    e013        ..      B        0x1da2 ; HSUSBD_UpdateDeviceState + 350
        0x00001d7a:    4b10        .K      LDR      r3,[pc,#64] ; [0x1dbc] = 0x40019000
        0x00001d7c:    3364        d3      ADDS     r3,r3,#0x64
        0x00001d7e:    eb000480    ....    ADD      r4,r0,r0,LSL #2
        0x00001d82:    eb0303c4    ....    ADD      r3,r3,r4,LSL #3
        0x00001d86:    69db        .i      LDR      r3,[r3,#0x1c]
        0x00001d88:    f3c31303    ....    UBFX     r3,r3,#4,#4
        0x00001d8c:    428b        .B      CMP      r3,r1
        0x00001d8e:    d107        ..      BNE      0x1da0 ; HSUSBD_UpdateDeviceState + 348
        0x00001d90:    2408        .$      MOVS     r4,#8
        0x00001d92:    4b0a        .K      LDR      r3,[pc,#40] ; [0x1dbc] = 0x40019000
        0x00001d94:    3364        d3      ADDS     r3,r3,#0x64
        0x00001d96:    eb000580    ....    ADD      r5,r0,r0,LSL #2
        0x00001d9a:    eb0303c5    ....    ADD      r3,r3,r5,LSL #3
        0x00001d9e:    611c        .a      STR      r4,[r3,#0x10]
        0x00001da0:    1c40        @.      ADDS     r0,r0,#1
        0x00001da2:    280c        .(      CMP      r0,#0xc
        0x00001da4:    d3e9        ..      BCC      0x1d7a ; HSUSBD_UpdateDeviceState + 310
        0x00001da6:    bf00        ..      NOP      
        0x00001da8:    bf00        ..      NOP      
        0x00001daa:    e000        ..      B        0x1dae ; HSUSBD_UpdateDeviceState + 362
        0x00001dac:    bf00        ..      NOP      
        0x00001dae:    bf00        ..      NOP      
        0x00001db0:    bd38        8.      POP      {r3-r5,pc}
    $d
        0x00001db2:    0000        ..      DCW    0
        0x00001db4:    200001e0    ...     DCD    536871392
        0x00001db8:    2000020a    ...     DCD    536871434
        0x00001dbc:    40019000    ...@    DCD    1073844224
        0x00001dc0:    20000204    ...     DCD    536871428
        0x00001dc4:    20000206    ...     DCD    536871430
        0x00001dc8:    20000207    ...     DCD    536871431
    $t
    i.Hard_Fault_Handler
    Hard_Fault_Handler
    __tagsym$$used
        0x00001dcc:    4604        .F      MOV      r4,r0
        0x00001dce:    a004        ..      ADR      r0,{pc}+0x12 ; 0x1de0
        0x00001dd0:    f7fefad6    ....    BL       __2printf ; 0x380
        0x00001dd4:    4620         F      MOV      r0,r4
        0x00001dd6:    f000fd05    ....    BL       stackDump ; 0x27e4
        0x00001dda:    bf00        ..      NOP      
        0x00001ddc:    e7fe        ..      B        0x1ddc ; Hard_Fault_Handler + 16
    $d
        0x00001dde:    0000        ..      DCW    0
        0x00001de0:    48206e49    In H    DCD    1210084937
        0x00001de4:    20647261    ard     DCD    543453793
        0x00001de8:    6c756146    Faul    DCD    1819631942
        0x00001dec:    61482074    t Ha    DCD    1632116852
        0x00001df0:    656c646e    ndle    DCD    1701602414
        0x00001df4:    00000a72    r...    DCD    2674
    $t
    i.IsDebugFifoEmpty
    IsDebugFifoEmpty
        0x00001df8:    2001        .       MOVS     r0,#1
        0x00001dfa:    4770        pG      BX       lr
    i.NVIC_EnableIRQ
    NVIC_EnableIRQ
        0x00001dfc:    f000021f    ....    AND      r2,r0,#0x1f
        0x00001e00:    2101        .!      MOVS     r1,#1
        0x00001e02:    4091        .@      LSLS     r1,r1,r2
        0x00001e04:    0942        B.      LSRS     r2,r0,#5
        0x00001e06:    0092        ..      LSLS     r2,r2,#2
        0x00001e08:    f10222e0    ..."    ADD      r2,r2,#0xe000e000
        0x00001e0c:    f8c21100    ....    STR      r1,[r2,#0x100]
        0x00001e10:    4770        pG      BX       lr
        0x00001e12:    0000        ..      MOVS     r0,r0
    i.ProcessCommand
    ProcessCommand
        0x00001e14:    b570        p.      PUSH     {r4-r6,lr}
        0x00001e16:    4606        .F      MOV      r6,r0
        0x00001e18:    460c        .F      MOV      r4,r1
        0x00001e1a:    4622        "F      MOV      r2,r4
        0x00001e1c:    4631        1F      MOV      r1,r6
        0x00001e1e:    4822        "H      LDR      r0,[pc,#136] ; [0x1ea8] = 0x20000214
        0x00001e20:    f7fffcfc    ....    BL       HSUSBD_MemCopy ; 0x181c
        0x00001e24:    4820         H      LDR      r0,[pc,#128] ; [0x1ea8] = 0x20000214
        0x00001e26:    7840        @x      LDRB     r0,[r0,#1]
        0x00001e28:    2812        .(      CMP      r0,#0x12
        0x00001e2a:    d803        ..      BHI      0x1e34 ; ProcessCommand + 32
        0x00001e2c:    481e        .H      LDR      r0,[pc,#120] ; [0x1ea8] = 0x20000214
        0x00001e2e:    7840        @x      LDRB     r0,[r0,#1]
        0x00001e30:    42a0        .B      CMP      r0,r4
        0x00001e32:    d902        ..      BLS      0x1e3a ; ProcessCommand + 38
        0x00001e34:    f04f30ff    O..0    MOV      r0,#0xffffffff
        0x00001e38:    bd70        p.      POP      {r4-r6,pc}
        0x00001e3a:    481b        .H      LDR      r0,[pc,#108] ; [0x1ea8] = 0x20000214
        0x00001e3c:    f8d0000a    ....    LDR      r0,[r0,#0xa]
        0x00001e40:    491a        .I      LDR      r1,[pc,#104] ; [0x1eac] = 0x43444948
        0x00001e42:    4288        .B      CMP      r0,r1
        0x00001e44:    d002        ..      BEQ      0x1e4c ; ProcessCommand + 56
        0x00001e46:    f04f30ff    O..0    MOV      r0,#0xffffffff
        0x00001e4a:    e7f5        ..      B        0x1e38 ; ProcessCommand + 36
        0x00001e4c:    4816        .H      LDR      r0,[pc,#88] ; [0x1ea8] = 0x20000214
        0x00001e4e:    7841        Ax      LDRB     r1,[r0,#1]
        0x00001e50:    f7fefed0    ....    BL       CalCheckSum ; 0xbf4
        0x00001e54:    4605        .F      MOV      r5,r0
        0x00001e56:    4814        .H      LDR      r0,[pc,#80] ; [0x1ea8] = 0x20000214
        0x00001e58:    f8d0000e    ....    LDR      r0,[r0,#0xe]
        0x00001e5c:    42a8        .B      CMP      r0,r5
        0x00001e5e:    d002        ..      BEQ      0x1e66 ; ProcessCommand + 82
        0x00001e60:    f04f30ff    O..0    MOV      r0,#0xffffffff
        0x00001e64:    e7e8        ..      B        0x1e38 ; ProcessCommand + 36
        0x00001e66:    4810        .H      LDR      r0,[pc,#64] ; [0x1ea8] = 0x20000214
        0x00001e68:    7800        .x      LDRB     r0,[r0,#0]
        0x00001e6a:    2871        q(      CMP      r0,#0x71
        0x00001e6c:    d006        ..      BEQ      0x1e7c ; ProcessCommand + 104
        0x00001e6e:    28b4        .(      CMP      r0,#0xb4
        0x00001e70:    d010        ..      BEQ      0x1e94 ; ProcessCommand + 128
        0x00001e72:    28c3        .(      CMP      r0,#0xc3
        0x00001e74:    d00a        ..      BEQ      0x1e8c ; ProcessCommand + 120
        0x00001e76:    28d2        .(      CMP      r0,#0xd2
        0x00001e78:    d110        ..      BNE      0x1e9c ; ProcessCommand + 136
        0x00001e7a:    e003        ..      B        0x1e84 ; ProcessCommand + 112
        0x00001e7c:    480a        .H      LDR      r0,[pc,#40] ; [0x1ea8] = 0x20000214
        0x00001e7e:    f7fff873    ..s.    BL       HID_CmdEraseSectors ; 0xf68
        0x00001e82:    e00e        ..      B        0x1ea2 ; ProcessCommand + 142
        0x00001e84:    4808        .H      LDR      r0,[pc,#32] ; [0x1ea8] = 0x20000214
        0x00001e86:    f7fff89d    ....    BL       HID_CmdReadPages ; 0xfc4
        0x00001e8a:    e00a        ..      B        0x1ea2 ; ProcessCommand + 142
        0x00001e8c:    4806        .H      LDR      r0,[pc,#24] ; [0x1ea8] = 0x20000214
        0x00001e8e:    f7fff929    ..).    BL       HID_CmdWritePages ; 0x10e4
        0x00001e92:    e006        ..      B        0x1ea2 ; ProcessCommand + 142
        0x00001e94:    4804        .H      LDR      r0,[pc,#16] ; [0x1ea8] = 0x20000214
        0x00001e96:    f7fff8e5    ....    BL       HID_CmdTest ; 0x1064
        0x00001e9a:    e002        ..      B        0x1ea2 ; ProcessCommand + 142
        0x00001e9c:    f04f30ff    O..0    MOV      r0,#0xffffffff
        0x00001ea0:    e7ca        ..      B        0x1e38 ; ProcessCommand + 36
        0x00001ea2:    bf00        ..      NOP      
        0x00001ea4:    2000        .       MOVS     r0,#0
        0x00001ea6:    e7c7        ..      B        0x1e38 ; ProcessCommand + 36
    $d
        0x00001ea8:    20000214    ...     DCD    536871444
        0x00001eac:    43444948    HIDC    DCD    1128548680
    $t
    i.SYS_Init
    SYS_Init
        0x00001eb0:    b508        ..      PUSH     {r3,lr}
        0x00001eb2:    bf00        ..      NOP      
        0x00001eb4:    bf00        ..      NOP      
        0x00001eb6:    bf00        ..      NOP      
        0x00001eb8:    2059        Y       MOVS     r0,#0x59
        0x00001eba:    494e        NI      LDR      r1,[pc,#312] ; [0x1ff4] = 0x40000100
        0x00001ebc:    6008        .`      STR      r0,[r1,#0]
        0x00001ebe:    2016        .       MOVS     r0,#0x16
        0x00001ec0:    0589        ..      LSLS     r1,r1,#22
        0x00001ec2:    f8c10100    ....    STR      r0,[r1,#0x100]
        0x00001ec6:    2088        .       MOVS     r0,#0x88
        0x00001ec8:    f8c10100    ....    STR      r0,[r1,#0x100]
        0x00001ecc:    06c0        ..      LSLS     r0,r0,#27
        0x00001ece:    f8d00100    ....    LDR      r0,[r0,#0x100]
        0x00001ed2:    2800        .(      CMP      r0,#0
        0x00001ed4:    d0f0        ..      BEQ      0x1eb8 ; SYS_Init + 8
        0x00001ed6:    bf00        ..      NOP      
        0x00001ed8:    4847        GH      LDR      r0,[pc,#284] ; [0x1ff8] = 0x40004140
        0x00001eda:    6800        .h      LDR      r0,[r0,#0]
        0x00001edc:    f02000f0     ...    BIC      r0,r0,#0xf0
        0x00001ee0:    f04f2140    O.@!    MOV      r1,#0x40004000
        0x00001ee4:    f8c10140    ..@.    STR      r0,[r1,#0x140]
        0x00001ee8:    2001        .       MOVS     r0,#1
        0x00001eea:    f7fefd61    ..a.    BL       CLK_EnableXtalRC ; 0x9b0
        0x00001eee:    2001        .       MOVS     r0,#1
        0x00001ef0:    f7fefe6a    ..j.    BL       CLK_WaitClockReady ; 0xbc8
        0x00001ef4:    2100        .!      MOVS     r1,#0
        0x00001ef6:    4608        .F      MOV      r0,r1
        0x00001ef8:    f7fefdf0    ....    BL       CLK_SetHCLK ; 0xadc
        0x00001efc:    483f        ?H      LDR      r0,[pc,#252] ; [0x1ffc] = 0xb71b000
        0x00001efe:    f7fefd9b    ....    BL       CLK_SetCoreClock ; 0xa38
        0x00001f02:    2011        .       MOVS     r0,#0x11
        0x00001f04:    493e        >I      LDR      r1,[pc,#248] ; [0x2000] = 0x40000234
        0x00001f06:    6008        .`      STR      r0,[r1,#0]
        0x00001f08:    483e        >H      LDR      r0,[pc,#248] ; [0x2004] = 0xa2000010
        0x00001f0a:    f7fefc73    ..s.    BL       CLK_EnableModuleClock ; 0x7f4
        0x00001f0e:    2200        ."      MOVS     r2,#0
        0x00001f10:    2101        .!      MOVS     r1,#1
        0x00001f12:    483c        <H      LDR      r0,[pc,#240] ; [0x2004] = 0xa2000010
        0x00001f14:    f7fefe20    .. .    BL       CLK_SetModuleClock ; 0xb58
        0x00001f18:    483b        ;H      LDR      r0,[pc,#236] ; [0x2008] = 0x4003fe1c
        0x00001f1a:    f7fefc6b    ..k.    BL       CLK_EnableModuleClock ; 0x7f4
        0x00001f1e:    f44f22e0    O.."    MOV      r2,#0x70000
        0x00001f22:    2100        .!      MOVS     r1,#0
        0x00001f24:    4838        8H      LDR      r0,[pc,#224] ; [0x2008] = 0x4003fe1c
        0x00001f26:    f7fefe17    ....    BL       CLK_SetModuleClock ; 0xb58
        0x00001f2a:    f04f4080    O..@    MOV      r0,#0x40000000
        0x00001f2e:    6ac0        .j      LDR      r0,[r0,#0x2c]
        0x00001f30:    f4203040     .@0    BIC      r0,r0,#0x30000
        0x00001f34:    f04f4180    O..A    MOV      r1,#0x40000000
        0x00001f38:    62c8        .b      STR      r0,[r1,#0x2c]
        0x00001f3a:    4608        .F      MOV      r0,r1
        0x00001f3c:    6ac0        .j      LDR      r0,[r0,#0x2c]
        0x00001f3e:    4933        3I      LDR      r1,[pc,#204] ; [0x200c] = 0xfdfcffff
        0x00001f40:    4008        .@      ANDS     r0,r0,r1
        0x00001f42:    f0407080    @..p    ORR      r0,r0,#0x1000000
        0x00001f46:    f04f4180    O..A    MOV      r1,#0x40000000
        0x00001f4a:    62c8        .b      STR      r0,[r1,#0x2c]
        0x00001f4c:    2000        .       MOVS     r0,#0
        0x00001f4e:    9000        ..      STR      r0,[sp,#0]
        0x00001f50:    e002        ..      B        0x1f58 ; SYS_Init + 168
        0x00001f52:    9800        ..      LDR      r0,[sp,#0]
        0x00001f54:    1c40        @.      ADDS     r0,r0,#1
        0x00001f56:    9000        ..      STR      r0,[sp,#0]
        0x00001f58:    9800        ..      LDR      r0,[sp,#0]
        0x00001f5a:    f5b05f80    ..._    CMP      r0,#0x1000
        0x00001f5e:    d3f8        ..      BCC      0x1f52 ; SYS_Init + 162
        0x00001f60:    f04f4080    O..@    MOV      r0,#0x40000000
        0x00001f64:    6ac0        .j      LDR      r0,[r0,#0x2c]
        0x00001f66:    f0407000    @..p    ORR      r0,r0,#0x2000000
        0x00001f6a:    f04f4180    O..A    MOV      r1,#0x40000000
        0x00001f6e:    62c8        .b      STR      r0,[r1,#0x2c]
        0x00001f70:    200a        .       MOVS     r0,#0xa
        0x00001f72:    f7fefc3f    ..?.    BL       CLK_EnableModuleClock ; 0x7f4
        0x00001f76:    2200        ."      MOVS     r2,#0
        0x00001f78:    4611        .F      MOV      r1,r2
        0x00001f7a:    4825        %H      LDR      r0,[pc,#148] ; [0x2010] = 0x57803d10
        0x00001f7c:    f7fefdec    ....    BL       CLK_SetModuleClock ; 0xb58
        0x00001f80:    4823        #H      LDR      r0,[pc,#140] ; [0x2010] = 0x57803d10
        0x00001f82:    f7fefc37    ..7.    BL       CLK_EnableModuleClock ; 0x7f4
        0x00001f86:    f04f4080    O..@    MOV      r0,#0x40000000
        0x00001f8a:    6bc0        .k      LDR      r0,[r0,#0x3c]
        0x00001f8c:    f420007f     ...    BIC      r0,r0,#0xff0000
        0x00001f90:    f04f4180    O..A    MOV      r1,#0x40000000
        0x00001f94:    63c8        .c      STR      r0,[r1,#0x3c]
        0x00001f96:    4608        .F      MOV      r0,r1
        0x00001f98:    6bc0        .k      LDR      r0,[r0,#0x3c]
        0x00001f9a:    f44000cc    @...    ORR      r0,r0,#0x660000
        0x00001f9e:    63c8        .c      STR      r0,[r1,#0x3c]
        0x00001fa0:    f04f2040    O.@     MOV      r0,#0x40004000
        0x00001fa4:    6c00        .l      LDR      r0,[r0,#0x40]
        0x00001fa6:    f02000ff     ...    BIC      r0,r0,#0xff
        0x00001faa:    f04f2140    O.@!    MOV      r1,#0x40004000
        0x00001fae:    6408        .d      STR      r0,[r1,#0x40]
        0x00001fb0:    0408        ..      LSLS     r0,r1,#16
        0x00001fb2:    6b80        .k      LDR      r0,[r0,#0x38]
        0x00001fb4:    f36f000f    o...    BFC      r0,#0,#16
        0x00001fb8:    0409        ..      LSLS     r1,r1,#16
        0x00001fba:    6388        .c      STR      r0,[r1,#0x38]
        0x00001fbc:    4608        .F      MOV      r0,r1
        0x00001fbe:    6b80        .k      LDR      r0,[r0,#0x38]
        0x00001fc0:    f2411111    A...    MOV      r1,#0x1111
        0x00001fc4:    4308        .C      ORRS     r0,r0,r1
        0x00001fc6:    0789        ..      LSLS     r1,r1,#30
        0x00001fc8:    6388        .c      STR      r0,[r1,#0x38]
        0x00001fca:    f04f2040    O.@     MOV      r0,#0x40004000
        0x00001fce:    6c40        @l      LDR      r0,[r0,#0x44]
        0x00001fd0:    f4402070    @.p     ORR      r0,r0,#0xf0000
        0x00001fd4:    f04f2140    O.@!    MOV      r1,#0x40004000
        0x00001fd8:    6448        Hd      STR      r0,[r1,#0x44]
        0x00001fda:    0408        ..      LSLS     r0,r1,#16
        0x00001fdc:    6b00        .k      LDR      r0,[r0,#0x30]
        0x00001fde:    f020000f     ...    BIC      r0,r0,#0xf
        0x00001fe2:    0409        ..      LSLS     r1,r1,#16
        0x00001fe4:    6308        .c      STR      r0,[r1,#0x30]
        0x00001fe6:    4608        .F      MOV      r0,r1
        0x00001fe8:    6b00        .k      LDR      r0,[r0,#0x30]
        0x00001fea:    f4400050    @.P.    ORR      r0,r0,#0xd00000
        0x00001fee:    6308        .c      STR      r0,[r1,#0x30]
        0x00001ff0:    bd08        ..      POP      {r3,pc}
    $d
        0x00001ff2:    0000        ..      DCW    0
        0x00001ff4:    40000100    ...@    DCD    1073742080
        0x00001ff8:    40004140    @A.@    DCD    1073758528
        0x00001ffc:    0b71b000    ..q.    DCD    192000000
        0x00002000:    40000234    4..@    DCD    1073742388
        0x00002004:    a2000010    ....    DCD    2717909008
        0x00002008:    4003fe1c    ...@    DCD    1074003484
        0x0000200c:    fdfcffff    ....    DCD    4261216255
        0x00002010:    57803d10    .=.W    DCD    1468022032
    $t
    i.SendChar
    SendChar
        0x00002014:    b510        ..      PUSH     {r4,lr}
        0x00002016:    4604        .F      MOV      r4,r0
        0x00002018:    4810        .H      LDR      r0,[pc,#64] ; [0x205c] = 0x200001dc
        0x0000201a:    7802        .x      LDRB     r2,[r0,#0]
        0x0000201c:    7800        .x      LDRB     r0,[r0,#0]
        0x0000201e:    1c40        @.      ADDS     r0,r0,#1
        0x00002020:    4b0e        .K      LDR      r3,[pc,#56] ; [0x205c] = 0x200001dc
        0x00002022:    7018        .p      STRB     r0,[r3,#0]
        0x00002024:    480e        .H      LDR      r0,[pc,#56] ; [0x2060] = 0x20000888
        0x00002026:    5484        .T      STRB     r4,[r0,r2]
        0x00002028:    2000        .       MOVS     r0,#0
        0x0000202a:    490d        .I      LDR      r1,[pc,#52] ; [0x2060] = 0x20000888
        0x0000202c:    461a        .F      MOV      r2,r3
        0x0000202e:    7812        .x      LDRB     r2,[r2,#0]
        0x00002030:    5488        .T      STRB     r0,[r1,r2]
        0x00002032:    4618        .F      MOV      r0,r3
        0x00002034:    7800        .x      LDRB     r0,[r0,#0]
        0x00002036:    1c40        @.      ADDS     r0,r0,#1
        0x00002038:    2810        .(      CMP      r0,#0x10
        0x0000203a:    d202        ..      BCS      0x2042 ; SendChar + 46
        0x0000203c:    2c0a        .,      CMP      r4,#0xa
        0x0000203e:    d000        ..      BEQ      0x2042 ; SendChar + 46
        0x00002040:    b94c        L.      CBNZ     r4,0x2056 ; SendChar + 66
        0x00002042:    2200        ."      MOVS     r2,#0
        0x00002044:    4906        .I      LDR      r1,[pc,#24] ; [0x2060] = 0x20000888
        0x00002046:    2004        .       MOVS     r0,#4
        0x00002048:    f7fef94e    ..N.    BL       SH_DoCommand ; 0x2e8
        0x0000204c:    b118        ..      CBZ      r0,0x2056 ; SendChar + 66
        0x0000204e:    2000        .       MOVS     r0,#0
        0x00002050:    4902        .I      LDR      r1,[pc,#8] ; [0x205c] = 0x200001dc
        0x00002052:    7008        .p      STRB     r0,[r1,#0]
        0x00002054:    bd10        ..      POP      {r4,pc}
        0x00002056:    bf00        ..      NOP      
        0x00002058:    e7fc        ..      B        0x2054 ; SendChar + 64
    $d
        0x0000205a:    0000        ..      DCW    0
        0x0000205c:    200001dc    ...     DCD    536871388
        0x00002060:    20000888    ...     DCD    536873096
    $t
    i.SystemCoreClockUpdate
    SystemCoreClockUpdate
        0x00002064:    b570        p.      PUSH     {r4-r6,lr}
        0x00002066:    f7fefcad    ....    BL       CLK_GetPLLClockFreq ; 0x9c4
        0x0000206a:    4911        .I      LDR      r1,[pc,#68] ; [0x20b0] = 0x20000008
        0x0000206c:    6008        .`      STR      r0,[r1,#0]
        0x0000206e:    4811        .H      LDR      r0,[pc,#68] ; [0x20b4] = 0x40000210
        0x00002070:    6800        .h      LDR      r0,[r0,#0]
        0x00002072:    f0000507    ....    AND      r5,r0,#7
        0x00002076:    2d02        .-      CMP      r5,#2
        0x00002078:    d102        ..      BNE      0x2080 ; SystemCoreClockUpdate + 28
        0x0000207a:    4608        .F      MOV      r0,r1
        0x0000207c:    6804        .h      LDR      r4,[r0,#0]
        0x0000207e:    e002        ..      B        0x2086 ; SystemCoreClockUpdate + 34
        0x00002080:    480d        .H      LDR      r0,[pc,#52] ; [0x20b8] = 0x2000000c
        0x00002082:    f8504025    P.%@    LDR      r4,[r0,r5,LSL #2]
        0x00002086:    480b        .H      LDR      r0,[pc,#44] ; [0x20b4] = 0x40000210
        0x00002088:    3010        .0      ADDS     r0,r0,#0x10
        0x0000208a:    6800        .h      LDR      r0,[r0,#0]
        0x0000208c:    f000000f    ....    AND      r0,r0,#0xf
        0x00002090:    1c46        F.      ADDS     r6,r0,#1
        0x00002092:    fbb4f0f6    ....    UDIV     r0,r4,r6
        0x00002096:    4909        .I      LDR      r1,[pc,#36] ; [0x20bc] = 0x20000000
        0x00002098:    6008        .`      STR      r0,[r1,#0]
        0x0000209a:    4608        .F      MOV      r0,r1
        0x0000209c:    6800        .h      LDR      r0,[r0,#0]
        0x0000209e:    4908        .I      LDR      r1,[pc,#32] ; [0x20c0] = 0x7a120
        0x000020a0:    4408        .D      ADD      r0,r0,r1
        0x000020a2:    0049        I.      LSLS     r1,r1,#1
        0x000020a4:    fbb0f0f1    ....    UDIV     r0,r0,r1
        0x000020a8:    4906        .I      LDR      r1,[pc,#24] ; [0x20c4] = 0x20000004
        0x000020aa:    6008        .`      STR      r0,[r1,#0]
        0x000020ac:    bd70        p.      POP      {r4-r6,pc}
    $d
        0x000020ae:    0000        ..      DCW    0
        0x000020b0:    20000008    ...     DCD    536870920
        0x000020b4:    40000210    ...@    DCD    1073742352
        0x000020b8:    2000000c    ...     DCD    536870924
        0x000020bc:    20000000    ...     DCD    536870912
        0x000020c0:    0007a120     ...    DCD    500000
        0x000020c4:    20000004    ...     DCD    536870916
    $t
    i.SystemInit
    SystemInit
        0x000020c8:    4820         H      LDR      r0,[pc,#128] ; [0x214c] = 0xe000ed88
        0x000020ca:    6800        .h      LDR      r0,[r0,#0]
        0x000020cc:    f4400070    @.p.    ORR      r0,r0,#0xf00000
        0x000020d0:    491e        .I      LDR      r1,[pc,#120] ; [0x214c] = 0xe000ed88
        0x000020d2:    6008        .`      STR      r0,[r1,#0]
        0x000020d4:    481e        .H      LDR      r0,[pc,#120] ; [0x2150] = 0x4000c000
        0x000020d6:    6cc0        .l      LDR      r0,[r0,#0x4c]
        0x000020d8:    f020000f     ...    BIC      r0,r0,#0xf
        0x000020dc:    f0400008    @...    ORR      r0,r0,#8
        0x000020e0:    491b        .I      LDR      r1,[pc,#108] ; [0x2150] = 0x4000c000
        0x000020e2:    64c8        .d      STR      r0,[r1,#0x4c]
        0x000020e4:    481b        .H      LDR      r0,[pc,#108] ; [0x2154] = 0x40000298
        0x000020e6:    6800        .h      LDR      r0,[r0,#0]
        0x000020e8:    f4402080    @..     ORR      r0,r0,#0x40000
        0x000020ec:    f04f4180    O..A    MOV      r1,#0x40000000
        0x000020f0:    f8c10298    ....    STR      r0,[r1,#0x298]
        0x000020f4:    4608        .F      MOV      r0,r1
        0x000020f6:    f8d00208    ....    LDR      r0,[r0,#0x208]
        0x000020fa:    f0400002    @...    ORR      r0,r0,#2
        0x000020fe:    f8c10208    ....    STR      r0,[r1,#0x208]
        0x00002102:    4815        .H      LDR      r0,[pc,#84] ; [0x2158] = 0x40041000
        0x00002104:    f8d00104    ....    LDR      r0,[r0,#0x104]
        0x00002108:    f00030f7    ...0    AND      r0,r0,#0xf7f7f7f7
        0x0000210c:    4912        .I      LDR      r1,[pc,#72] ; [0x2158] = 0x40041000
        0x0000210e:    f8c10104    ....    STR      r0,[r1,#0x104]
        0x00002112:    4608        .F      MOV      r0,r1
        0x00002114:    f8d00108    ....    LDR      r0,[r0,#0x108]
        0x00002118:    f00030f7    ...0    AND      r0,r0,#0xf7f7f7f7
        0x0000211c:    f8c10108    ....    STR      r0,[r1,#0x108]
        0x00002120:    0488        ..      LSLS     r0,r1,#18
        0x00002122:    f8d00208    ....    LDR      r0,[r0,#0x208]
        0x00002126:    f0200002     ...    BIC      r0,r0,#2
        0x0000212a:    490a        .I      LDR      r1,[pc,#40] ; [0x2154] = 0x40000298
        0x0000212c:    3990        .9      SUBS     r1,r1,#0x90
        0x0000212e:    6008        .`      STR      r0,[r1,#0]
        0x00002130:    bf00        ..      NOP      
        0x00002132:    f04f2040    O.@     MOV      r0,#0x40004000
        0x00002136:    f8d00140    ..@.    LDR      r0,[r0,#0x140]
        0x0000213a:    f02000f0     ...    BIC      r0,r0,#0xf0
        0x0000213e:    f04f2140    O.@!    MOV      r1,#0x40004000
        0x00002142:    f8c10140    ..@.    STR      r0,[r1,#0x140]
        0x00002146:    bf00        ..      NOP      
        0x00002148:    4770        pG      BX       lr
    $d
        0x0000214a:    0000        ..      DCW    0
        0x0000214c:    e000ed88    ....    DCD    3758157192
        0x00002150:    4000c000    ...@    DCD    1073790976
        0x00002154:    40000298    ...@    DCD    1073742488
        0x00002158:    40041000    ...@    DCD    1074008064
    $t
    i.UART_Open
    UART_Open
        0x0000215c:    e92d41ff    -..A    PUSH     {r0-r8,lr}
        0x00002160:    4604        .F      MOV      r4,r0
        0x00002162:    460d        .F      MOV      r5,r1
        0x00002164:    2600        .&      MOVS     r6,#0
        0x00002166:    46b0        .F      MOV      r8,r6
        0x00002168:    4b43        CK      LDR      r3,[pc,#268] ; [0x2278] = 0x2898
        0x0000216a:    cb0f        ..      LDM      r3,{r0-r3}
        0x0000216c:    e88d000f    ....    STM      sp,{r0-r3}
        0x00002170:    2700        .'      MOVS     r7,#0
        0x00002172:    4842        BH      LDR      r0,[pc,#264] ; [0x227c] = 0x40070000
        0x00002174:    4284        .B      CMP      r4,r0
        0x00002176:    d10a        ..      BNE      0x218e ; UART_Open + 50
        0x00002178:    4841        AH      LDR      r0,[pc,#260] ; [0x2280] = 0x40000214
        0x0000217a:    6800        .h      LDR      r0,[r0,#0]
        0x0000217c:    f3c06601    ...f    UBFX     r6,r0,#24,#2
        0x00002180:    f04f4080    O..@    MOV      r0,#0x40000000
        0x00002184:    f8d00220    .. .    LDR      r0,[r0,#0x220]
        0x00002188:    f3c02803    ...(    UBFX     r8,r0,#8,#4
        0x0000218c:    e043        C.      B        0x2216 ; UART_Open + 186
        0x0000218e:    483d        =H      LDR      r0,[pc,#244] ; [0x2284] = 0x40071000
        0x00002190:    4284        .B      CMP      r4,r0
        0x00002192:    d109        ..      BNE      0x21a8 ; UART_Open + 76
        0x00002194:    483a        :H      LDR      r0,[pc,#232] ; [0x2280] = 0x40000214
        0x00002196:    6800        .h      LDR      r0,[r0,#0]
        0x00002198:    f3c06681    ...f    UBFX     r6,r0,#26,#2
        0x0000219c:    04a0        ..      LSLS     r0,r4,#18
        0x0000219e:    f8d00220    .. .    LDR      r0,[r0,#0x220]
        0x000021a2:    f3c03803    ...8    UBFX     r8,r0,#12,#4
        0x000021a6:    e036        6.      B        0x2216 ; UART_Open + 186
        0x000021a8:    4837        7H      LDR      r0,[pc,#220] ; [0x2288] = 0x40072000
        0x000021aa:    4284        .B      CMP      r4,r0
        0x000021ac:    d10a        ..      BNE      0x21c4 ; UART_Open + 104
        0x000021ae:    4834        4H      LDR      r0,[pc,#208] ; [0x2280] = 0x40000214
        0x000021b0:    3008        .0      ADDS     r0,r0,#8
        0x000021b2:    6800        .h      LDR      r0,[r0,#0]
        0x000021b4:    f3c06601    ...f    UBFX     r6,r0,#24,#2
        0x000021b8:    0460        `.      LSLS     r0,r4,#17
        0x000021ba:    f8d00230    ..0.    LDR      r0,[r0,#0x230]
        0x000021be:    f000080f    ....    AND      r8,r0,#0xf
        0x000021c2:    e028        (.      B        0x2216 ; UART_Open + 186
        0x000021c4:    4831        1H      LDR      r0,[pc,#196] ; [0x228c] = 0x40073000
        0x000021c6:    4284        .B      CMP      r4,r0
        0x000021c8:    d10b        ..      BNE      0x21e2 ; UART_Open + 134
        0x000021ca:    482d        -H      LDR      r0,[pc,#180] ; [0x2280] = 0x40000214
        0x000021cc:    3008        .0      ADDS     r0,r0,#8
        0x000021ce:    6800        .h      LDR      r0,[r0,#0]
        0x000021d0:    f3c06681    ...f    UBFX     r6,r0,#26,#2
        0x000021d4:    f04f4080    O..@    MOV      r0,#0x40000000
        0x000021d8:    f8d00230    ..0.    LDR      r0,[r0,#0x230]
        0x000021dc:    f3c01803    ....    UBFX     r8,r0,#4,#4
        0x000021e0:    e019        ..      B        0x2216 ; UART_Open + 186
        0x000021e2:    482b        +H      LDR      r0,[pc,#172] ; [0x2290] = 0x40074000
        0x000021e4:    4284        .B      CMP      r4,r0
        0x000021e6:    d10a        ..      BNE      0x21fe ; UART_Open + 162
        0x000021e8:    4825        %H      LDR      r0,[pc,#148] ; [0x2280] = 0x40000214
        0x000021ea:    3008        .0      ADDS     r0,r0,#8
        0x000021ec:    6800        .h      LDR      r0,[r0,#0]
        0x000021ee:    f3c07601    ...v    UBFX     r6,r0,#28,#2
        0x000021f2:    0420         .      LSLS     r0,r4,#16
        0x000021f4:    f8d00230    ..0.    LDR      r0,[r0,#0x230]
        0x000021f8:    f3c02803    ...(    UBFX     r8,r0,#8,#4
        0x000021fc:    e00b        ..      B        0x2216 ; UART_Open + 186
        0x000021fe:    4825        %H      LDR      r0,[pc,#148] ; [0x2294] = 0x40075000
        0x00002200:    4284        .B      CMP      r4,r0
        0x00002202:    d108        ..      BNE      0x2216 ; UART_Open + 186
        0x00002204:    481e        .H      LDR      r0,[pc,#120] ; [0x2280] = 0x40000214
        0x00002206:    3008        .0      ADDS     r0,r0,#8
        0x00002208:    6800        .h      LDR      r0,[r0,#0]
        0x0000220a:    0f86        ..      LSRS     r6,r0,#30
        0x0000220c:    04a0        ..      LSLS     r0,r4,#18
        0x0000220e:    f8d00230    ..0.    LDR      r0,[r0,#0x230]
        0x00002212:    f3c03803    ...8    UBFX     r8,r0,#12,#4
        0x00002216:    2000        .       MOVS     r0,#0
        0x00002218:    6320         c      STR      r0,[r4,#0x30]
        0x0000221a:    2003        .       MOVS     r0,#3
        0x0000221c:    60e0        .`      STR      r0,[r4,#0xc]
        0x0000221e:    68a0        .h      LDR      r0,[r4,#8]
        0x00002220:    491d        .I      LDR      r1,[pc,#116] ; [0x2298] = 0xfff0ff0f
        0x00002222:    4008        .@      ANDS     r0,r0,r1
        0x00002224:    60a0        .`      STR      r0,[r4,#8]
        0x00002226:    2e01        ..      CMP      r6,#1
        0x00002228:    d103        ..      BNE      0x2232 ; UART_Open + 214
        0x0000222a:    f7fefbcb    ....    BL       CLK_GetPLLClockFreq ; 0x9c4
        0x0000222e:    f84d0026    M.&.    STR      r0,[sp,r6,LSL #2]
        0x00002232:    b1fd        ..      CBZ      r5,0x2274 ; UART_Open + 280
        0x00002234:    f85d1026    ].&.    LDR      r1,[sp,r6,LSL #2]
        0x00002238:    f1080001    ....    ADD      r0,r8,#1
        0x0000223c:    fbb1f0f0    ....    UDIV     r0,r1,r0
        0x00002240:    eb000055    ..U.    ADD      r0,r0,r5,LSR #1
        0x00002244:    fbb0f0f5    ....    UDIV     r0,r0,r5
        0x00002248:    1e87        ..      SUBS     r7,r0,#2
        0x0000224a:    f5b73f80    ...?    CMP      r7,#0x10000
        0x0000224e:    d30e        ..      BCC      0x226e ; UART_Open + 274
        0x00002250:    f85d1026    ].&.    LDR      r1,[sp,r6,LSL #2]
        0x00002254:    f1080001    ....    ADD      r0,r8,#1
        0x00002258:    fbb1f0f0    ....    UDIV     r0,r1,r0
        0x0000225c:    eb0000c5    ....    ADD      r0,r0,r5,LSL #3
        0x00002260:    fbb0f0f5    ....    UDIV     r0,r0,r5
        0x00002264:    2102        .!      MOVS     r1,#2
        0x00002266:    ebc11010    ....    RSB      r0,r1,r0,LSR #4
        0x0000226a:    6260        `b      STR      r0,[r4,#0x24]
        0x0000226c:    e002        ..      B        0x2274 ; UART_Open + 280
        0x0000226e:    f0475040    G.@P    ORR      r0,r7,#0x30000000
        0x00002272:    6260        `b      STR      r0,[r4,#0x24]
        0x00002274:    e8bd81ff    ....    POP      {r0-r8,pc}
    $d
        0x00002278:    00002898    .(..    DCD    10392
        0x0000227c:    40070000    ...@    DCD    1074200576
        0x00002280:    40000214    ...@    DCD    1073742356
        0x00002284:    40071000    ...@    DCD    1074204672
        0x00002288:    40072000    . .@    DCD    1074208768
        0x0000228c:    40073000    .0.@    DCD    1074212864
        0x00002290:    40074000    .@.@    DCD    1074216960
        0x00002294:    40075000    .P.@    DCD    1074221056
        0x00002298:    fff0ff0f    ....    DCD    4293984015
    $t
    i.USBD20_IRQHandler
    USBD20_IRQHandler
        0x0000229c:    b51c        ..      PUSH     {r2-r4,lr}
        0x0000229e:    48fe        .H      LDR      r0,[pc,#1016] ; [0x2698] = 0x40019000
        0x000022a0:    6800        .h      LDR      r0,[r0,#0]
        0x000022a2:    49fd        .I      LDR      r1,[pc,#1012] ; [0x2698] = 0x40019000
        0x000022a4:    6889        .h      LDR      r1,[r1,#8]
        0x000022a6:    4008        .@      ANDS     r0,r0,r1
        0x000022a8:    9001        ..      STR      r0,[sp,#4]
        0x000022aa:    9801        ..      LDR      r0,[sp,#4]
        0x000022ac:    b900        ..      CBNZ     r0,0x22b0 ; USBD20_IRQHandler + 20
        0x000022ae:    bd1c        ..      POP      {r2-r4,pc}
        0x000022b0:    9801        ..      LDR      r0,[sp,#4]
        0x000022b2:    f0000001    ....    AND      r0,r0,#1
        0x000022b6:    2800        .(      CMP      r0,#0
        0x000022b8:    d07e        ~.      BEQ      0x23b8 ; USBD20_IRQHandler + 284
        0x000022ba:    48f7        .H      LDR      r0,[pc,#988] ; [0x2698] = 0x40019000
        0x000022bc:    6900        .i      LDR      r0,[r0,#0x10]
        0x000022be:    49f6        .I      LDR      r1,[pc,#984] ; [0x2698] = 0x40019000
        0x000022c0:    6949        Ii      LDR      r1,[r1,#0x14]
        0x000022c2:    4008        .@      ANDS     r0,r0,r1
        0x000022c4:    9000        ..      STR      r0,[sp,#0]
        0x000022c6:    9800        ..      LDR      r0,[sp,#0]
        0x000022c8:    f0000001    ....    AND      r0,r0,#1
        0x000022cc:    b110        ..      CBZ      r0,0x22d4 ; USBD20_IRQHandler + 56
        0x000022ce:    2001        .       MOVS     r0,#1
        0x000022d0:    49f1        .I      LDR      r1,[pc,#964] ; [0x2698] = 0x40019000
        0x000022d2:    6108        .a      STR      r0,[r1,#0x10]
        0x000022d4:    9800        ..      LDR      r0,[sp,#0]
        0x000022d6:    f0000002    ....    AND      r0,r0,#2
        0x000022da:    b330        0.      CBZ      r0,0x232a ; USBD20_IRQHandler + 142
        0x000022dc:    f7fffc9c    ....    BL       HSUSBD_SwReset ; 0x1c18
        0x000022e0:    bf00        ..      NOP      
        0x000022e2:    2000        .       MOVS     r0,#0
        0x000022e4:    49ec        .I      LDR      r1,[pc,#944] ; [0x2698] = 0x40019000
        0x000022e6:    6608        .f      STR      r0,[r1,#0x60]
        0x000022e8:    2080        .       MOVS     r0,#0x80
        0x000022ea:    65c8        .e      STR      r0,[r1,#0x5c]
        0x000022ec:    2000        .       MOVS     r0,#0
        0x000022ee:    65c8        .e      STR      r0,[r1,#0x5c]
        0x000022f0:    bf00        ..      NOP      
        0x000022f2:    2101        .!      MOVS     r1,#1
        0x000022f4:    48e8        .H      LDR      r0,[pc,#928] ; [0x2698] = 0x40019000
        0x000022f6:    6741        Ag      STR      r1,[r0,#0x74]
        0x000022f8:    48e7        .H      LDR      r0,[pc,#924] ; [0x2698] = 0x40019000
        0x000022fa:    309c        .0      ADDS     r0,r0,#0x9c
        0x000022fc:    6001        .`      STR      r1,[r0,#0]
        0x000022fe:    48e6        .H      LDR      r0,[pc,#920] ; [0x2698] = 0x40019000
        0x00002300:    6980        .i      LDR      r0,[r0,#0x18]
        0x00002302:    f0000004    ....    AND      r0,r0,#4
        0x00002306:    b110        ..      CBZ      r0,0x230e ; USBD20_IRQHandler + 114
        0x00002308:    f7feffce    ....    BL       HID_InitForHighSpeed ; 0x12a8
        0x0000230c:    e001        ..      B        0x2312 ; USBD20_IRQHandler + 118
        0x0000230e:    f7feff99    ....    BL       HID_InitForFullSpeed ; 0x1244
        0x00002312:    2002        .       MOVS     r0,#2
        0x00002314:    49e0        .I      LDR      r1,[pc,#896] ; [0x2698] = 0x40019000
        0x00002316:    6308        .c      STR      r0,[r1,#0x30]
        0x00002318:    2000        .       MOVS     r0,#0
        0x0000231a:    6208        .b      STR      r0,[r1,#0x20]
        0x0000231c:    200e        .       MOVS     r0,#0xe
        0x0000231e:    6148        Ha      STR      r0,[r1,#0x14]
        0x00002320:    2002        .       MOVS     r0,#2
        0x00002322:    6108        .a      STR      r0,[r1,#0x10]
        0x00002324:    f64170fc    A..p    MOV      r0,#0x1ffc
        0x00002328:    6348        Hc      STR      r0,[r1,#0x34]
        0x0000232a:    9800        ..      LDR      r0,[sp,#0]
        0x0000232c:    f0000004    ....    AND      r0,r0,#4
        0x00002330:    b120         .      CBZ      r0,0x233c ; USBD20_IRQHandler + 160
        0x00002332:    200a        .       MOVS     r0,#0xa
        0x00002334:    49d8        .I      LDR      r1,[pc,#864] ; [0x2698] = 0x40019000
        0x00002336:    6148        Ha      STR      r0,[r1,#0x14]
        0x00002338:    2004        .       MOVS     r0,#4
        0x0000233a:    6108        .a      STR      r0,[r1,#0x10]
        0x0000233c:    9800        ..      LDR      r0,[sp,#0]
        0x0000233e:    f0000008    ....    AND      r0,r0,#8
        0x00002342:    b120         .      CBZ      r0,0x234e ; USBD20_IRQHandler + 178
        0x00002344:    2006        .       MOVS     r0,#6
        0x00002346:    49d4        .I      LDR      r1,[pc,#848] ; [0x2698] = 0x40019000
        0x00002348:    6148        Ha      STR      r0,[r1,#0x14]
        0x0000234a:    2008        .       MOVS     r0,#8
        0x0000234c:    6108        .a      STR      r0,[r1,#0x10]
        0x0000234e:    9800        ..      LDR      r0,[sp,#0]
        0x00002350:    f0000010    ....    AND      r0,r0,#0x10
        0x00002354:    b120         .      CBZ      r0,0x2360 ; USBD20_IRQHandler + 196
        0x00002356:    2002        .       MOVS     r0,#2
        0x00002358:    49cf        .I      LDR      r1,[pc,#828] ; [0x2698] = 0x40019000
        0x0000235a:    6308        .c      STR      r0,[r1,#0x30]
        0x0000235c:    2010        .       MOVS     r0,#0x10
        0x0000235e:    6108        .a      STR      r0,[r1,#0x10]
        0x00002360:    9800        ..      LDR      r0,[sp,#0]
        0x00002362:    f0000020    .. .    AND      r0,r0,#0x20
        0x00002366:    b1e0        ..      CBZ      r0,0x23a2 ; USBD20_IRQHandler + 262
        0x00002368:    2001        .       MOVS     r0,#1
        0x0000236a:    49cc        .I      LDR      r1,[pc,#816] ; [0x269c] = 0x2000020c
        0x0000236c:    6008        .`      STR      r0,[r1,#0]
        0x0000236e:    a0cc        ..      ADR      r0,{pc}+0x332 ; 0x26a0
        0x00002370:    f7fef806    ....    BL       __2printf ; 0x380
        0x00002374:    2020                MOVS     r0,#0x20
        0x00002376:    49c8        .I      LDR      r1,[pc,#800] ; [0x2698] = 0x40019000
        0x00002378:    6108        .a      STR      r0,[r1,#0x10]
        0x0000237a:    4608        .F      MOV      r0,r1
        0x0000237c:    6dc0        .m      LDR      r0,[r0,#0x5c]
        0x0000237e:    f0000010    ....    AND      r0,r0,#0x10
        0x00002382:    b170        p.      CBZ      r0,0x23a2 ; USBD20_IRQHandler + 262
        0x00002384:    48cd        .H      LDR      r0,[pc,#820] ; [0x26bc] = 0x2000020b
        0x00002386:    7800        .x      LDRB     r0,[r0,#0]
        0x00002388:    2801        .(      CMP      r0,#1
        0x0000238a:    d10a        ..      BNE      0x23a2 ; USBD20_IRQHandler + 262
        0x0000238c:    4608        .F      MOV      r0,r1
        0x0000238e:    6f40        @o      LDR      r0,[r0,#0x74]
        0x00002390:    f0000010    ....    AND      r0,r0,#0x10
        0x00002394:    f0400140    @.@.    ORR      r1,r0,#0x40
        0x00002398:    48bf        .H      LDR      r0,[pc,#764] ; [0x2698] = 0x40019000
        0x0000239a:    6741        Ag      STR      r1,[r0,#0x74]
        0x0000239c:    2000        .       MOVS     r0,#0
        0x0000239e:    49c7        .I      LDR      r1,[pc,#796] ; [0x26bc] = 0x2000020b
        0x000023a0:    7008        .p      STRB     r0,[r1,#0]
        0x000023a2:    9800        ..      LDR      r0,[sp,#0]
        0x000023a4:    f0000040    ..@.    AND      r0,r0,#0x40
        0x000023a8:    b110        ..      CBZ      r0,0x23b0 ; USBD20_IRQHandler + 276
        0x000023aa:    2040        @       MOVS     r0,#0x40
        0x000023ac:    49ba        .I      LDR      r1,[pc,#744] ; [0x2698] = 0x40019000
        0x000023ae:    6108        .a      STR      r0,[r1,#0x10]
        0x000023b0:    9800        ..      LDR      r0,[sp,#0]
        0x000023b2:    f4007080    ...p    AND      r0,r0,#0x100
        0x000023b6:    e000        ..      B        0x23ba ; USBD20_IRQHandler + 286
        0x000023b8:    e016        ..      B        0x23e8 ; USBD20_IRQHandler + 332
        0x000023ba:    b1a8        ..      CBZ      r0,0x23e8 ; USBD20_IRQHandler + 332
        0x000023bc:    48c0        .H      LDR      r0,[pc,#768] ; [0x26c0] = 0x40019704
        0x000023be:    6800        .h      LDR      r0,[r0,#0]
        0x000023c0:    f0004000    ...@    AND      r0,r0,#0x80000000
        0x000023c4:    b130        0.      CBZ      r0,0x23d4 ; USBD20_IRQHandler + 312
        0x000023c6:    48be        .H      LDR      r0,[pc,#760] ; [0x26c0] = 0x40019704
        0x000023c8:    6800        .h      LDR      r0,[r0,#0]
        0x000023ca:    f4407040    @.@p    ORR      r0,r0,#0x300
        0x000023ce:    49bc        .I      LDR      r1,[pc,#752] ; [0x26c0] = 0x40019704
        0x000023d0:    6008        .`      STR      r0,[r1,#0]
        0x000023d2:    e005        ..      B        0x23e0 ; USBD20_IRQHandler + 324
        0x000023d4:    48ba        .H      LDR      r0,[pc,#744] ; [0x26c0] = 0x40019704
        0x000023d6:    6800        .h      LDR      r0,[r0,#0]
        0x000023d8:    f4207080     ..p    BIC      r0,r0,#0x100
        0x000023dc:    49b8        .I      LDR      r1,[pc,#736] ; [0x26c0] = 0x40019704
        0x000023de:    6008        .`      STR      r0,[r1,#0]
        0x000023e0:    f44f7080    O..p    MOV      r0,#0x100
        0x000023e4:    49ac        .I      LDR      r1,[pc,#688] ; [0x2698] = 0x40019000
        0x000023e6:    6108        .a      STR      r0,[r1,#0x10]
        0x000023e8:    9801        ..      LDR      r0,[sp,#4]
        0x000023ea:    f0000002    ....    AND      r0,r0,#2
        0x000023ee:    2800        .(      CMP      r0,#0
        0x000023f0:    d070        p.      BEQ      0x24d4 ; USBD20_IRQHandler + 568
        0x000023f2:    48a9        .H      LDR      r0,[pc,#676] ; [0x2698] = 0x40019000
        0x000023f4:    6b40        @k      LDR      r0,[r0,#0x34]
        0x000023f6:    49a8        .I      LDR      r1,[pc,#672] ; [0x2698] = 0x40019000
        0x000023f8:    6b09        .k      LDR      r1,[r1,#0x30]
        0x000023fa:    4008        .@      ANDS     r0,r0,r1
        0x000023fc:    9000        ..      STR      r0,[sp,#0]
        0x000023fe:    9800        ..      LDR      r0,[sp,#0]
        0x00002400:    f0000001    ....    AND      r0,r0,#1
        0x00002404:    b118        ..      CBZ      r0,0x240e ; USBD20_IRQHandler + 370
        0x00002406:    2001        .       MOVS     r0,#1
        0x00002408:    49a3        .I      LDR      r1,[pc,#652] ; [0x2698] = 0x40019000
        0x0000240a:    6348        Hc      STR      r0,[r1,#0x34]
        0x0000240c:    e74f        O.      B        0x22ae ; USBD20_IRQHandler + 18
        0x0000240e:    9800        ..      LDR      r0,[sp,#0]
        0x00002410:    f0000002    ....    AND      r0,r0,#2
        0x00002414:    b128        (.      CBZ      r0,0x2422 ; USBD20_IRQHandler + 390
        0x00002416:    2002        .       MOVS     r0,#2
        0x00002418:    499f        .I      LDR      r1,[pc,#636] ; [0x2698] = 0x40019000
        0x0000241a:    6348        Hc      STR      r0,[r1,#0x34]
        0x0000241c:    f7fffa44    ..D.    BL       HSUSBD_ProcessSetupPacket ; 0x18a8
        0x00002420:    e745        E.      B        0x22ae ; USBD20_IRQHandler + 18
        0x00002422:    9800        ..      LDR      r0,[sp,#0]
        0x00002424:    f0000004    ....    AND      r0,r0,#4
        0x00002428:    b128        (.      CBZ      r0,0x2436 ; USBD20_IRQHandler + 410
        0x0000242a:    2004        .       MOVS     r0,#4
        0x0000242c:    499a        .I      LDR      r1,[pc,#616] ; [0x2698] = 0x40019000
        0x0000242e:    6348        Hc      STR      r0,[r1,#0x34]
        0x00002430:    0200        ..      LSLS     r0,r0,#8
        0x00002432:    6308        .c      STR      r0,[r1,#0x30]
        0x00002434:    e73b        ;.      B        0x22ae ; USBD20_IRQHandler + 18
        0x00002436:    9800        ..      LDR      r0,[sp,#0]
        0x00002438:    f0000008    ....    AND      r0,r0,#8
        0x0000243c:    b198        ..      CBZ      r0,0x2466 ; USBD20_IRQHandler + 458
        0x0000243e:    2008        .       MOVS     r0,#8
        0x00002440:    4995        .I      LDR      r1,[pc,#596] ; [0x2698] = 0x40019000
        0x00002442:    6348        Hc      STR      r0,[r1,#0x34]
        0x00002444:    9800        ..      LDR      r0,[sp,#0]
        0x00002446:    f4006080    ...`    AND      r0,r0,#0x400
        0x0000244a:    b928        (.      CBNZ     r0,0x2458 ; USBD20_IRQHandler + 444
        0x0000244c:    2020                MOVS     r0,#0x20
        0x0000244e:    6348        Hc      STR      r0,[r1,#0x34]
        0x00002450:    6308        .c      STR      r0,[r1,#0x30]
        0x00002452:    f7fff803    ....    BL       HSUSBD_CtrlIn ; 0x145c
        0x00002456:    e005        ..      B        0x2464 ; USBD20_IRQHandler + 456
        0x00002458:    2020                MOVS     r0,#0x20
        0x0000245a:    498f        .I      LDR      r1,[pc,#572] ; [0x2698] = 0x40019000
        0x0000245c:    6348        Hc      STR      r0,[r1,#0x34]
        0x0000245e:    f44f6084    O..`    MOV      r0,#0x420
        0x00002462:    6308        .c      STR      r0,[r1,#0x30]
        0x00002464:    e723        #.      B        0x22ae ; USBD20_IRQHandler + 18
        0x00002466:    9800        ..      LDR      r0,[sp,#0]
        0x00002468:    f0000010    ....    AND      r0,r0,#0x10
        0x0000246c:    b118        ..      CBZ      r0,0x2476 ; USBD20_IRQHandler + 474
        0x0000246e:    2010        .       MOVS     r0,#0x10
        0x00002470:    4989        .I      LDR      r1,[pc,#548] ; [0x2698] = 0x40019000
        0x00002472:    6348        Hc      STR      r0,[r1,#0x34]
        0x00002474:    e71b        ..      B        0x22ae ; USBD20_IRQHandler + 18
        0x00002476:    9800        ..      LDR      r0,[sp,#0]
        0x00002478:    f0000020    .. .    AND      r0,r0,#0x20
        0x0000247c:    b1e8        ..      CBZ      r0,0x24ba ; USBD20_IRQHandler + 542
        0x0000247e:    f44f6080    O..`    MOV      r0,#0x400
        0x00002482:    4985        .I      LDR      r1,[pc,#532] ; [0x2698] = 0x40019000
        0x00002484:    6348        Hc      STR      r0,[r1,#0x34]
        0x00002486:    2000        .       MOVS     r0,#0
        0x00002488:    62c8        .b      STR      r0,[r1,#0x2c]
        0x0000248a:    488e        .H      LDR      r0,[pc,#568] ; [0x26c4] = 0x20000210
        0x0000248c:    6800        .h      LDR      r0,[r0,#0]
        0x0000248e:    b118        ..      CBZ      r0,0x2498 ; USBD20_IRQHandler + 508
        0x00002490:    2008        .       MOVS     r0,#8
        0x00002492:    6348        Hc      STR      r0,[r1,#0x34]
        0x00002494:    6308        .c      STR      r0,[r1,#0x30]
        0x00002496:    e00c        ..      B        0x24b2 ; USBD20_IRQHandler + 534
        0x00002498:    488b        .H      LDR      r0,[pc,#556] ; [0x26c8] = 0x20000209
        0x0000249a:    7800        .x      LDRB     r0,[r0,#0]
        0x0000249c:    2801        .(      CMP      r0,#1
        0x0000249e:    d102        ..      BNE      0x24a6 ; USBD20_IRQHandler + 522
        0x000024a0:    2004        .       MOVS     r0,#4
        0x000024a2:    497d        }I      LDR      r1,[pc,#500] ; [0x2698] = 0x40019000
        0x000024a4:    62c8        .b      STR      r0,[r1,#0x2c]
        0x000024a6:    f44f6080    O..`    MOV      r0,#0x400
        0x000024aa:    497b        {I      LDR      r1,[pc,#492] ; [0x2698] = 0x40019000
        0x000024ac:    6348        Hc      STR      r0,[r1,#0x34]
        0x000024ae:    1c80        ..      ADDS     r0,r0,#2
        0x000024b0:    6308        .c      STR      r0,[r1,#0x30]
        0x000024b2:    2020                MOVS     r0,#0x20
        0x000024b4:    4978        xI      LDR      r1,[pc,#480] ; [0x2698] = 0x40019000
        0x000024b6:    6348        Hc      STR      r0,[r1,#0x34]
        0x000024b8:    e6f9        ..      B        0x22ae ; USBD20_IRQHandler + 18
        0x000024ba:    9800        ..      LDR      r0,[sp,#0]
        0x000024bc:    f0000040    ..@.    AND      r0,r0,#0x40
        0x000024c0:    b148        H.      CBZ      r0,0x24d6 ; USBD20_IRQHandler + 570
        0x000024c2:    2040        @       MOVS     r0,#0x40
        0x000024c4:    4974        tI      LDR      r1,[pc,#464] ; [0x2698] = 0x40019000
        0x000024c6:    6348        Hc      STR      r0,[r1,#0x34]
        0x000024c8:    2000        .       MOVS     r0,#0
        0x000024ca:    62c8        .b      STR      r0,[r1,#0x2c]
        0x000024cc:    f2404002    @..@    MOV      r0,#0x402
        0x000024d0:    6308        .c      STR      r0,[r1,#0x30]
        0x000024d2:    e6ec        ..      B        0x22ae ; USBD20_IRQHandler + 18
        0x000024d4:    e038        8.      B        0x2548 ; USBD20_IRQHandler + 684
        0x000024d6:    9800        ..      LDR      r0,[sp,#0]
        0x000024d8:    f0000080    ....    AND      r0,r0,#0x80
        0x000024dc:    b118        ..      CBZ      r0,0x24e6 ; USBD20_IRQHandler + 586
        0x000024de:    2080        .       MOVS     r0,#0x80
        0x000024e0:    496d        mI      LDR      r1,[pc,#436] ; [0x2698] = 0x40019000
        0x000024e2:    6348        Hc      STR      r0,[r1,#0x34]
        0x000024e4:    e6e3        ..      B        0x22ae ; USBD20_IRQHandler + 18
        0x000024e6:    9800        ..      LDR      r0,[sp,#0]
        0x000024e8:    f4007080    ...p    AND      r0,r0,#0x100
        0x000024ec:    b120         .      CBZ      r0,0x24f8 ; USBD20_IRQHandler + 604
        0x000024ee:    f44f7080    O..p    MOV      r0,#0x100
        0x000024f2:    4969        iI      LDR      r1,[pc,#420] ; [0x2698] = 0x40019000
        0x000024f4:    6348        Hc      STR      r0,[r1,#0x34]
        0x000024f6:    e6da        ..      B        0x22ae ; USBD20_IRQHandler + 18
        0x000024f8:    9800        ..      LDR      r0,[sp,#0]
        0x000024fa:    f4007000    ...p    AND      r0,r0,#0x200
        0x000024fe:    b120         .      CBZ      r0,0x250a ; USBD20_IRQHandler + 622
        0x00002500:    f44f7000    O..p    MOV      r0,#0x200
        0x00002504:    4964        dI      LDR      r1,[pc,#400] ; [0x2698] = 0x40019000
        0x00002506:    6348        Hc      STR      r0,[r1,#0x34]
        0x00002508:    e6d1        ..      B        0x22ae ; USBD20_IRQHandler + 18
        0x0000250a:    9800        ..      LDR      r0,[sp,#0]
        0x0000250c:    f4006080    ...`    AND      r0,r0,#0x400
        0x00002510:    b140        @.      CBZ      r0,0x2524 ; USBD20_IRQHandler + 648
        0x00002512:    f7fffb97    ....    BL       HSUSBD_UpdateDeviceState ; 0x1c44
        0x00002516:    f44f6080    O..`    MOV      r0,#0x400
        0x0000251a:    495f        _I      LDR      r1,[pc,#380] ; [0x2698] = 0x40019000
        0x0000251c:    6348        Hc      STR      r0,[r1,#0x34]
        0x0000251e:    2002        .       MOVS     r0,#2
        0x00002520:    6308        .c      STR      r0,[r1,#0x30]
        0x00002522:    e6c4        ..      B        0x22ae ; USBD20_IRQHandler + 18
        0x00002524:    9800        ..      LDR      r0,[sp,#0]
        0x00002526:    f4006000    ...`    AND      r0,r0,#0x800
        0x0000252a:    b120         .      CBZ      r0,0x2536 ; USBD20_IRQHandler + 666
        0x0000252c:    f44f6000    O..`    MOV      r0,#0x800
        0x00002530:    4959        YI      LDR      r1,[pc,#356] ; [0x2698] = 0x40019000
        0x00002532:    6348        Hc      STR      r0,[r1,#0x34]
        0x00002534:    e6bb        ..      B        0x22ae ; USBD20_IRQHandler + 18
        0x00002536:    9800        ..      LDR      r0,[sp,#0]
        0x00002538:    f4005080    ...P    AND      r0,r0,#0x1000
        0x0000253c:    b120         .      CBZ      r0,0x2548 ; USBD20_IRQHandler + 684
        0x0000253e:    f44f5080    O..P    MOV      r0,#0x1000
        0x00002542:    4955        UI      LDR      r1,[pc,#340] ; [0x2698] = 0x40019000
        0x00002544:    6348        Hc      STR      r0,[r1,#0x34]
        0x00002546:    e6b2        ..      B        0x22ae ; USBD20_IRQHandler + 18
        0x00002548:    9801        ..      LDR      r0,[sp,#4]
        0x0000254a:    f0000004    ....    AND      r0,r0,#4
        0x0000254e:    b178        x.      CBZ      r0,0x2570 ; USBD20_IRQHandler + 724
        0x00002550:    4851        QH      LDR      r0,[pc,#324] ; [0x2698] = 0x40019000
        0x00002552:    6e80        .n      LDR      r0,[r0,#0x68]
        0x00002554:    4950        PI      LDR      r1,[pc,#320] ; [0x2698] = 0x40019000
        0x00002556:    6ec9        .n      LDR      r1,[r1,#0x6c]
        0x00002558:    4008        .@      ANDS     r0,r0,r1
        0x0000255a:    9000        ..      STR      r0,[sp,#0]
        0x0000255c:    484e        NH      LDR      r0,[pc,#312] ; [0x2698] = 0x40019000
        0x0000255e:    6e80        .n      LDR      r0,[r0,#0x68]
        0x00002560:    f0000002    ....    AND      r0,r0,#2
        0x00002564:    b108        ..      CBZ      r0,0x256a ; USBD20_IRQHandler + 718
        0x00002566:    f7fefc04    ....    BL       EPA_Handler ; 0xd72
        0x0000256a:    484b        KH      LDR      r0,[pc,#300] ; [0x2698] = 0x40019000
        0x0000256c:    9900        ..      LDR      r1,[sp,#0]
        0x0000256e:    6681        .f      STR      r1,[r0,#0x68]
        0x00002570:    9801        ..      LDR      r0,[sp,#4]
        0x00002572:    f0000008    ....    AND      r0,r0,#8
        0x00002576:    b190        ..      CBZ      r0,0x259e ; USBD20_IRQHandler + 770
        0x00002578:    4847        GH      LDR      r0,[pc,#284] ; [0x2698] = 0x40019000
        0x0000257a:    3090        .0      ADDS     r0,r0,#0x90
        0x0000257c:    6801        .h      LDR      r1,[r0,#0]
        0x0000257e:    1d00        ..      ADDS     r0,r0,#4
        0x00002580:    6800        .h      LDR      r0,[r0,#0]
        0x00002582:    4001        .@      ANDS     r1,r1,r0
        0x00002584:    9100        ..      STR      r1,[sp,#0]
        0x00002586:    4844        DH      LDR      r0,[pc,#272] ; [0x2698] = 0x40019000
        0x00002588:    3090        .0      ADDS     r0,r0,#0x90
        0x0000258a:    6800        .h      LDR      r0,[r0,#0]
        0x0000258c:    f0000001    ....    AND      r0,r0,#1
        0x00002590:    b108        ..      CBZ      r0,0x2596 ; USBD20_IRQHandler + 762
        0x00002592:    f7fefbf3    ....    BL       EPB_Handler ; 0xd7c
        0x00002596:    4840        @H      LDR      r0,[pc,#256] ; [0x2698] = 0x40019000
        0x00002598:    3090        .0      ADDS     r0,r0,#0x90
        0x0000259a:    9900        ..      LDR      r1,[sp,#0]
        0x0000259c:    6001        .`      STR      r1,[r0,#0]
        0x0000259e:    9801        ..      LDR      r0,[sp,#4]
        0x000025a0:    f0000010    ....    AND      r0,r0,#0x10
        0x000025a4:    b150        P.      CBZ      r0,0x25bc ; USBD20_IRQHandler + 800
        0x000025a6:    483c        <H      LDR      r0,[pc,#240] ; [0x2698] = 0x40019000
        0x000025a8:    30b8        .0      ADDS     r0,r0,#0xb8
        0x000025aa:    6801        .h      LDR      r1,[r0,#0]
        0x000025ac:    1d00        ..      ADDS     r0,r0,#4
        0x000025ae:    6800        .h      LDR      r0,[r0,#0]
        0x000025b0:    4001        .@      ANDS     r1,r1,r0
        0x000025b2:    9100        ..      STR      r1,[sp,#0]
        0x000025b4:    4838        8H      LDR      r0,[pc,#224] ; [0x2698] = 0x40019000
        0x000025b6:    30b8        .0      ADDS     r0,r0,#0xb8
        0x000025b8:    9900        ..      LDR      r1,[sp,#0]
        0x000025ba:    6001        .`      STR      r1,[r0,#0]
        0x000025bc:    9801        ..      LDR      r0,[sp,#4]
        0x000025be:    f0000020    .. .    AND      r0,r0,#0x20
        0x000025c2:    b150        P.      CBZ      r0,0x25da ; USBD20_IRQHandler + 830
        0x000025c4:    4834        4H      LDR      r0,[pc,#208] ; [0x2698] = 0x40019000
        0x000025c6:    30e0        .0      ADDS     r0,r0,#0xe0
        0x000025c8:    6801        .h      LDR      r1,[r0,#0]
        0x000025ca:    1d00        ..      ADDS     r0,r0,#4
        0x000025cc:    6800        .h      LDR      r0,[r0,#0]
        0x000025ce:    4001        .@      ANDS     r1,r1,r0
        0x000025d0:    9100        ..      STR      r1,[sp,#0]
        0x000025d2:    4831        1H      LDR      r0,[pc,#196] ; [0x2698] = 0x40019000
        0x000025d4:    30e0        .0      ADDS     r0,r0,#0xe0
        0x000025d6:    9900        ..      LDR      r1,[sp,#0]
        0x000025d8:    6001        .`      STR      r1,[r0,#0]
        0x000025da:    9801        ..      LDR      r0,[sp,#4]
        0x000025dc:    f0000040    ..@.    AND      r0,r0,#0x40
        0x000025e0:    b140        @.      CBZ      r0,0x25f4 ; USBD20_IRQHandler + 856
        0x000025e2:    483a        :H      LDR      r0,[pc,#232] ; [0x26cc] = 0x40019108
        0x000025e4:    6801        .h      LDR      r1,[r0,#0]
        0x000025e6:    1d00        ..      ADDS     r0,r0,#4
        0x000025e8:    6800        .h      LDR      r0,[r0,#0]
        0x000025ea:    4001        .@      ANDS     r1,r1,r0
        0x000025ec:    9100        ..      STR      r1,[sp,#0]
        0x000025ee:    4837        7H      LDR      r0,[pc,#220] ; [0x26cc] = 0x40019108
        0x000025f0:    9900        ..      LDR      r1,[sp,#0]
        0x000025f2:    6001        .`      STR      r1,[r0,#0]
        0x000025f4:    9801        ..      LDR      r0,[sp,#4]
        0x000025f6:    f0000080    ....    AND      r0,r0,#0x80
        0x000025fa:    b150        P.      CBZ      r0,0x2612 ; USBD20_IRQHandler + 886
        0x000025fc:    4833        3H      LDR      r0,[pc,#204] ; [0x26cc] = 0x40019108
        0x000025fe:    3028        (0      ADDS     r0,r0,#0x28
        0x00002600:    6801        .h      LDR      r1,[r0,#0]
        0x00002602:    1d00        ..      ADDS     r0,r0,#4
        0x00002604:    6800        .h      LDR      r0,[r0,#0]
        0x00002606:    4001        .@      ANDS     r1,r1,r0
        0x00002608:    9100        ..      STR      r1,[sp,#0]
        0x0000260a:    4830        0H      LDR      r0,[pc,#192] ; [0x26cc] = 0x40019108
        0x0000260c:    3028        (0      ADDS     r0,r0,#0x28
        0x0000260e:    9900        ..      LDR      r1,[sp,#0]
        0x00002610:    6001        .`      STR      r1,[r0,#0]
        0x00002612:    9801        ..      LDR      r0,[sp,#4]
        0x00002614:    f4007080    ...p    AND      r0,r0,#0x100
        0x00002618:    b150        P.      CBZ      r0,0x2630 ; USBD20_IRQHandler + 916
        0x0000261a:    482c        ,H      LDR      r0,[pc,#176] ; [0x26cc] = 0x40019108
        0x0000261c:    3050        P0      ADDS     r0,r0,#0x50
        0x0000261e:    6801        .h      LDR      r1,[r0,#0]
        0x00002620:    1d00        ..      ADDS     r0,r0,#4
        0x00002622:    6800        .h      LDR      r0,[r0,#0]
        0x00002624:    4001        .@      ANDS     r1,r1,r0
        0x00002626:    9100        ..      STR      r1,[sp,#0]
        0x00002628:    4828        (H      LDR      r0,[pc,#160] ; [0x26cc] = 0x40019108
        0x0000262a:    3050        P0      ADDS     r0,r0,#0x50
        0x0000262c:    9900        ..      LDR      r1,[sp,#0]
        0x0000262e:    6001        .`      STR      r1,[r0,#0]
        0x00002630:    9801        ..      LDR      r0,[sp,#4]
        0x00002632:    f4007000    ...p    AND      r0,r0,#0x200
        0x00002636:    b150        P.      CBZ      r0,0x264e ; USBD20_IRQHandler + 946
        0x00002638:    4824        $H      LDR      r0,[pc,#144] ; [0x26cc] = 0x40019108
        0x0000263a:    3078        x0      ADDS     r0,r0,#0x78
        0x0000263c:    6801        .h      LDR      r1,[r0,#0]
        0x0000263e:    1d00        ..      ADDS     r0,r0,#4
        0x00002640:    6800        .h      LDR      r0,[r0,#0]
        0x00002642:    4001        .@      ANDS     r1,r1,r0
        0x00002644:    9100        ..      STR      r1,[sp,#0]
        0x00002646:    4821        !H      LDR      r0,[pc,#132] ; [0x26cc] = 0x40019108
        0x00002648:    3078        x0      ADDS     r0,r0,#0x78
        0x0000264a:    9900        ..      LDR      r1,[sp,#0]
        0x0000264c:    6001        .`      STR      r1,[r0,#0]
        0x0000264e:    9801        ..      LDR      r0,[sp,#4]
        0x00002650:    f4006080    ...`    AND      r0,r0,#0x400
        0x00002654:    b150        P.      CBZ      r0,0x266c ; USBD20_IRQHandler + 976
        0x00002656:    481d        .H      LDR      r0,[pc,#116] ; [0x26cc] = 0x40019108
        0x00002658:    30a0        .0      ADDS     r0,r0,#0xa0
        0x0000265a:    6801        .h      LDR      r1,[r0,#0]
        0x0000265c:    1d00        ..      ADDS     r0,r0,#4
        0x0000265e:    6800        .h      LDR      r0,[r0,#0]
        0x00002660:    4001        .@      ANDS     r1,r1,r0
        0x00002662:    9100        ..      STR      r1,[sp,#0]
        0x00002664:    4819        .H      LDR      r0,[pc,#100] ; [0x26cc] = 0x40019108
        0x00002666:    30a0        .0      ADDS     r0,r0,#0xa0
        0x00002668:    9900        ..      LDR      r1,[sp,#0]
        0x0000266a:    6001        .`      STR      r1,[r0,#0]
        0x0000266c:    9801        ..      LDR      r0,[sp,#4]
        0x0000266e:    f4006000    ...`    AND      r0,r0,#0x800
        0x00002672:    b150        P.      CBZ      r0,0x268a ; USBD20_IRQHandler + 1006
        0x00002674:    4815        .H      LDR      r0,[pc,#84] ; [0x26cc] = 0x40019108
        0x00002676:    30c8        .0      ADDS     r0,r0,#0xc8
        0x00002678:    6801        .h      LDR      r1,[r0,#0]
        0x0000267a:    1d00        ..      ADDS     r0,r0,#4
        0x0000267c:    6800        .h      LDR      r0,[r0,#0]
        0x0000267e:    4001        .@      ANDS     r1,r1,r0
        0x00002680:    9100        ..      STR      r1,[sp,#0]
        0x00002682:    4812        .H      LDR      r0,[pc,#72] ; [0x26cc] = 0x40019108
        0x00002684:    30c8        .0      ADDS     r0,r0,#0xc8
        0x00002686:    9900        ..      LDR      r1,[sp,#0]
        0x00002688:    6001        .`      STR      r1,[r0,#0]
        0x0000268a:    9801        ..      LDR      r0,[sp,#4]
        0x0000268c:    f4005080    ...P    AND      r0,r0,#0x1000
        0x00002690:    b330        0.      CBZ      r0,0x26e0 ; USBD20_IRQHandler + 1092
        0x00002692:    480e        .H      LDR      r0,[pc,#56] ; [0x26cc] = 0x40019108
        0x00002694:    30f0        .0      ADDS     r0,r0,#0xf0
        0x00002696:    e01b        ..      B        0x26d0 ; USBD20_IRQHandler + 1076
    $d
        0x00002698:    40019000    ...@    DCD    1073844224
        0x0000269c:    2000020c    ...     DCD    536871436
        0x000026a0:    64616552    Read    DCD    1684104530
        0x000026a4:    6d6f6320     com    DCD    1836016416
        0x000026a8:    646e616d    mand    DCD    1684955501
        0x000026ac:    43202d20     - C    DCD    1126182176
        0x000026b0:    6c706d6f    ompl    DCD    1819307375
        0x000026b4:    0a657465    ete.    DCD    174421093
        0x000026b8:    00000000    ....    DCD    0
        0x000026bc:    2000020b    ...     DCD    536871435
        0x000026c0:    40019704    ...@    DCD    1073846020
        0x000026c4:    20000210    ...     DCD    536871440
        0x000026c8:    20000209    ...     DCD    536871433
        0x000026cc:    40019108    ...@    DCD    1073844488
    $t
        0x000026d0:    6801        .h      LDR      r1,[r0,#0]
        0x000026d2:    1d00        ..      ADDS     r0,r0,#4
        0x000026d4:    6800        .h      LDR      r0,[r0,#0]
        0x000026d6:    4001        .@      ANDS     r1,r1,r0
        0x000026d8:    9100        ..      STR      r1,[sp,#0]
        0x000026da:    480a        .H      LDR      r0,[pc,#40] ; [0x2704] = 0x400191f8
        0x000026dc:    9900        ..      LDR      r1,[sp,#0]
        0x000026de:    6001        .`      STR      r1,[r0,#0]
        0x000026e0:    9801        ..      LDR      r0,[sp,#4]
        0x000026e2:    f4005000    ...P    AND      r0,r0,#0x2000
        0x000026e6:    b150        P.      CBZ      r0,0x26fe ; USBD20_IRQHandler + 1122
        0x000026e8:    4806        .H      LDR      r0,[pc,#24] ; [0x2704] = 0x400191f8
        0x000026ea:    3028        (0      ADDS     r0,r0,#0x28
        0x000026ec:    6801        .h      LDR      r1,[r0,#0]
        0x000026ee:    1d00        ..      ADDS     r0,r0,#4
        0x000026f0:    6800        .h      LDR      r0,[r0,#0]
        0x000026f2:    4001        .@      ANDS     r1,r1,r0
        0x000026f4:    9100        ..      STR      r1,[sp,#0]
        0x000026f6:    4803        .H      LDR      r0,[pc,#12] ; [0x2704] = 0x400191f8
        0x000026f8:    3028        (0      ADDS     r0,r0,#0x28
        0x000026fa:    9900        ..      LDR      r1,[sp,#0]
        0x000026fc:    6001        .`      STR      r1,[r0,#0]
        0x000026fe:    bf00        ..      NOP      
        0x00002700:    e5d5        ..      B        0x22ae ; USBD20_IRQHandler + 18
    $d
        0x00002702:    0000        ..      DCW    0
        0x00002704:    400191f8    ...@    DCD    1073844728
    $t
    i._is_digit
    _is_digit
        0x00002708:    3830        08      SUBS     r0,r0,#0x30
        0x0000270a:    280a        .(      CMP      r0,#0xa
        0x0000270c:    d201        ..      BCS      0x2712 ; _is_digit + 10
        0x0000270e:    2001        .       MOVS     r0,#1
        0x00002710:    4770        pG      BX       lr
        0x00002712:    2000        .       MOVS     r0,#0
        0x00002714:    4770        pG      BX       lr
        0x00002716:    0000        ..      MOVS     r0,r0
    i._sys_exit
    _sys_exit
        0x00002718:    2200        ."      MOVS     r2,#0
        0x0000271a:    4906        .I      LDR      r1,[pc,#24] ; [0x2734] = 0x20026
        0x0000271c:    2018        .       MOVS     r0,#0x18
        0x0000271e:    f7fdfde3    ....    BL       SH_DoCommand ; 0x2e8
        0x00002722:    b920         .      CBNZ     r0,0x272e ; _sys_exit + 22
        0x00002724:    bf00        ..      NOP      
        0x00002726:    f7fffb67    ..g.    BL       IsDebugFifoEmpty ; 0x1df8
        0x0000272a:    2800        .(      CMP      r0,#0
        0x0000272c:    d0fb        ..      BEQ      0x2726 ; _sys_exit + 14
        0x0000272e:    bf00        ..      NOP      
        0x00002730:    e7fe        ..      B        0x2730 ; _sys_exit + 24
    $d
        0x00002732:    0000        ..      DCW    0
        0x00002734:    00020026    &...    DCD    131110
    $t
    i.fputc
    fputc
        0x00002738:    b570        p.      PUSH     {r4-r6,lr}
        0x0000273a:    4604        .F      MOV      r4,r0
        0x0000273c:    460d        .F      MOV      r5,r1
        0x0000273e:    4620         F      MOV      r0,r4
        0x00002740:    f7fffc68    ..h.    BL       SendChar ; 0x2014
        0x00002744:    4620         F      MOV      r0,r4
        0x00002746:    bd70        p.      POP      {r4-r6,pc}
    i.int32_to_int8
    int32_to_int8
        0x00002748:    2000        .       MOVS     r0,#0
        0x0000274a:    e011        ..      B        0x2770 ; int32_to_int8 + 40
        0x0000274c:    490a        .I      LDR      r1,[pc,#40] ; [0x2778] = 0x20000708
        0x0000274e:    f8511020    Q. .    LDR      r1,[r1,r0,LSL #2]
        0x00002752:    1209        ..      ASRS     r1,r1,#8
        0x00002754:    b249        I.      SXTB     r1,r1
        0x00002756:    4a09        .J      LDR      r2,[pc,#36] ; [0x277c] = 0x20000628
        0x00002758:    f8021010    ....    STRB     r1,[r2,r0,LSL #1]
        0x0000275c:    4906        .I      LDR      r1,[pc,#24] ; [0x2778] = 0x20000708
        0x0000275e:    f8511020    Q. .    LDR      r1,[r1,r0,LSL #2]
        0x00002762:    b249        I.      SXTB     r1,r1
        0x00002764:    2201        ."      MOVS     r2,#1
        0x00002766:    eb020240    ..@.    ADD      r2,r2,r0,LSL #1
        0x0000276a:    4b04        .K      LDR      r3,[pc,#16] ; [0x277c] = 0x20000628
        0x0000276c:    5499        .T      STRB     r1,[r3,r2]
        0x0000276e:    1c40        @.      ADDS     r0,r0,#1
        0x00002770:    2860        `(      CMP      r0,#0x60
        0x00002772:    dbeb        ..      BLT      0x274c ; int32_to_int8 + 4
        0x00002774:    4770        pG      BX       lr
    $d
        0x00002776:    0000        ..      DCW    0
        0x00002778:    20000708    ...     DCD    536872712
        0x0000277c:    20000628    (..     DCD    536872488
    $t
    i.main
    main
        0x00002780:    f7fffb96    ....    BL       SYS_Init ; 0x1eb0
        0x00002784:    f44f31e1    O..1    MOV      r1,#0x1c200
        0x00002788:    480d        .H      LDR      r0,[pc,#52] ; [0x27c0] = 0x40070000
        0x0000278a:    f7fffce7    ....    BL       UART_Open ; 0x215c
        0x0000278e:    f7fefb0d    ....    BL       EPWM0_Init ; 0xdac
        0x00002792:    a00c        ..      ADR      r0,{pc}+0x32 ; 0x27c4
        0x00002794:    f7fdfdf4    ....    BL       __2printf ; 0x380
        0x00002798:    2200        ."      MOVS     r2,#0
        0x0000279a:    490f        .I      LDR      r1,[pc,#60] ; [0x27d8] = 0xee5
        0x0000279c:    480f        .H      LDR      r0,[pc,#60] ; [0x27dc] = 0x20000178
        0x0000279e:    f7fff849    ..I.    BL       HSUSBD_Open ; 0x1834
        0x000027a2:    480f        .H      LDR      r0,[pc,#60] ; [0x27e0] = 0x13d5
        0x000027a4:    f7fff8da    ....    BL       HSUSBD_SetVendorRequest ; 0x195c
        0x000027a8:    f7fefd34    ..4.    BL       HID_Init ; 0x1214
        0x000027ac:    2041        A       MOVS     r0,#0x41
        0x000027ae:    f7fffb25    ..%.    BL       NVIC_EnableIRQ ; 0x1dfc
        0x000027b2:    f7fffa27    ..'.    BL       HSUSBD_Start ; 0x1c04
        0x000027b6:    e001        ..      B        0x27bc ; main + 60
        0x000027b8:    f7fefa42    ..B.    BL       EADC_FunctionTest ; 0xc40
        0x000027bc:    e7fc        ..      B        0x27b8 ; main + 56
    $d
        0x000027be:    0000        ..      DCW    0
        0x000027c0:    40070000    ...@    DCD    1074200576
        0x000027c4:    3038344d    M480    DCD    808989773
        0x000027c8:    55534820     HSU    DCD    1431521312
        0x000027cc:    20444253    SBD     DCD    541344339
        0x000027d0:    0a444948    HID.    DCD    172247368
        0x000027d4:    00000000    ....    DCD    0
        0x000027d8:    00000ee5    ....    DCD    3813
        0x000027dc:    20000178    x..     DCD    536871288
        0x000027e0:    000013d5    ....    DCD    5077
    $t
    i.stackDump
    stackDump
        0x000027e4:    b510        ..      PUSH     {r4,lr}
        0x000027e6:    4604        .F      MOV      r4,r0
        0x000027e8:    a010        ..      ADR      r0,{pc}+0x44 ; 0x282c
        0x000027ea:    6821        !h      LDR      r1,[r4,#0]
        0x000027ec:    f7fdfdc8    ....    BL       __2printf ; 0x380
        0x000027f0:    a011        ..      ADR      r0,{pc}+0x48 ; 0x2838
        0x000027f2:    6861        ah      LDR      r1,[r4,#4]
        0x000027f4:    f7fdfdc4    ....    BL       __2printf ; 0x380
        0x000027f8:    a012        ..      ADR      r0,{pc}+0x4c ; 0x2844
        0x000027fa:    68a1        .h      LDR      r1,[r4,#8]
        0x000027fc:    f7fdfdc0    ....    BL       __2printf ; 0x380
        0x00002800:    a013        ..      ADR      r0,{pc}+0x50 ; 0x2850
        0x00002802:    68e1        .h      LDR      r1,[r4,#0xc]
        0x00002804:    f7fdfdbc    ....    BL       __2printf ; 0x380
        0x00002808:    a014        ..      ADR      r0,{pc}+0x54 ; 0x285c
        0x0000280a:    6921        !i      LDR      r1,[r4,#0x10]
        0x0000280c:    f7fdfdb8    ....    BL       __2printf ; 0x380
        0x00002810:    a015        ..      ADR      r0,{pc}+0x58 ; 0x2868
        0x00002812:    6961        ai      LDR      r1,[r4,#0x14]
        0x00002814:    f7fdfdb4    ....    BL       __2printf ; 0x380
        0x00002818:    a016        ..      ADR      r0,{pc}+0x5c ; 0x2874
        0x0000281a:    69a1        .i      LDR      r1,[r4,#0x18]
        0x0000281c:    f7fdfdb0    ....    BL       __2printf ; 0x380
        0x00002820:    a017        ..      ADR      r0,{pc}+0x60 ; 0x2880
        0x00002822:    69e1        .i      LDR      r1,[r4,#0x1c]
        0x00002824:    f7fdfdac    ....    BL       __2printf ; 0x380
        0x00002828:    bd10        ..      POP      {r4,pc}
    $d
        0x0000282a:    0000        ..      DCW    0
        0x0000282c:    20203072    r0      DCD    538980466
        0x00002830:    7830203d    = 0x    DCD    2016419901
        0x00002834:    000a7825    %x..    DCD    686117
        0x00002838:    20203172    r1      DCD    538980722
        0x0000283c:    7830203d    = 0x    DCD    2016419901
        0x00002840:    000a7825    %x..    DCD    686117
        0x00002844:    20203272    r2      DCD    538980978
        0x00002848:    7830203d    = 0x    DCD    2016419901
        0x0000284c:    000a7825    %x..    DCD    686117
        0x00002850:    20203372    r3      DCD    538981234
        0x00002854:    7830203d    = 0x    DCD    2016419901
        0x00002858:    000a7825    %x..    DCD    686117
        0x0000285c:    20323172    r12     DCD    540160370
        0x00002860:    7830203d    = 0x    DCD    2016419901
        0x00002864:    000a7825    %x..    DCD    686117
        0x00002868:    2020726c    lr      DCD    538997356
        0x0000286c:    7830203d    = 0x    DCD    2016419901
        0x00002870:    000a7825    %x..    DCD    686117
        0x00002874:    20206370    pc      DCD    538993520
        0x00002878:    7830203d    = 0x    DCD    2016419901
        0x0000287c:    000a7825    %x..    DCD    686117
        0x00002880:    20727370    psr     DCD    544371568
        0x00002884:    7830203d    = 0x    DCD    2016419901
        0x00002888:    000a7825    %x..    DCD    686117
    $t
    x$fpl$fpinit
    $v0
    _fp_init
        0x0000288c:    f04f7040    O.@p    MOV      r0,#0x3000000
        0x00002890:    eee10a10    ....    VMSR     FPSCR,r0
    __fplib_config_fpu_vfp
    __fplib_config_pureend_doubles
        0x00002894:    4770        pG      BX       lr
        0x00002896:    0000        ..      MOVS     r0,r0
    $d.realdata
    .constdata
        0x00002898:    00b71b00    ....    DCD    12000000
        0x0000289c:    00000000    ....    DCD    0
        0x000028a0:    00008000    ....    DCD    32768
        0x000028a4:    00b71b00    ....    DCD    12000000
        0x000028a8:    00b71b00    ....    DCD    12000000
        0x000028ac:    00000000    ....    DCD    0
        0x000028b0:    00008000    ....    DCD    32768
        0x000028b4:    00b71b00    ....    DCD    12000000
        0x000028b8:    00b71b00    ....    DCD    12000000
        0x000028bc:    00000000    ....    DCD    0
        0x000028c0:    00008000    ....    DCD    32768
        0x000028c4:    00b71b00    ....    DCD    12000000
    .constdata
    uc_hextab
        0x000028c8:    33323130    0123    DCD    858927408
        0x000028cc:    37363534    4567    DCD    926299444
        0x000028d0:    42413938    89AB    DCD    1111570744
        0x000028d4:    46454443    CDEF    DCD    1178944579
        0x000028d8:    00583040    @0X.    DCD    5779520
    lc_hextab
        0x000028dc:    33323130    0123    DCD    858927408
        0x000028e0:    37363534    4567    DCD    926299444
        0x000028e4:    62613938    89ab    DCD    1650538808
        0x000028e8:    66656463    cdef    DCD    1717920867
        0x000028ec:    00783040    @0x.    DCD    7876672
    .constdata
    maptable
        0x000028f0:    08000004    ....    DCD    134217732
        0x000028f4:    00000000    ....    DCD    0
        0x000028f8:    02000000    ....    DCD    33554432
        0x000028fc:    00000100    ....    DCD    256
        0x00002900:    00000010    ....    DCD    16
    Region$$Table$$Base
        0x00002904:    00002924    $)..    DCD    10532
        0x00002908:    20000000    ...     DCD    536870912
        0x0000290c:    00000214    ....    DCD    532
        0x00002910:    000001f4    ....    DCD    500
        0x00002914:    00002a0c    .*..    DCD    10764
        0x00002918:    20000214    ...     DCD    536871444
        0x0000291c:    00000ff4    ....    DCD    4084
        0x00002920:    00000250    P...    DCD    592
    Region$$Table$$Limit

** Section #2 'RW_IRAM1' (SHT_PROGBITS) [SHF_ALLOC + SHF_WRITE]
    Size   : 232 bytes (alignment 4)
    Address: 0x20000000


** Section #3 'RW_IRAM1' (SHT_NOBITS) [SHF_ALLOC + SHF_WRITE]
    Size   : 4084 bytes (alignment 8)
    Address: 0x20000214


** Section #4 '.debug_abbrev' (SHT_PROGBITS)
    Size   : 1476 bytes


** Section #5 '.debug_frame' (SHT_PROGBITS)
    Size   : 3168 bytes


** Section #6 '.debug_info' (SHT_PROGBITS)
    Size   : 41896 bytes


** Section #7 '.debug_line' (SHT_PROGBITS)
    Size   : 14320 bytes


** Section #8 '.debug_loc' (SHT_PROGBITS)
    Size   : 4084 bytes


** Section #9 '.debug_macinfo' (SHT_PROGBITS)
    Size   : 212028 bytes


** Section #10 '.debug_pubnames' (SHT_PROGBITS)
    Size   : 3834 bytes


** Section #11 '.symtab' (SHT_SYMTAB)
    Size   : 11040 bytes (alignment 4)
    String table #12 '.strtab'
    Last local symbol no. 398


** Section #12 '.strtab' (SHT_STRTAB)
    Size   : 9764 bytes


** Section #13 '.note' (SHT_NOTE)
    Size   : 28 bytes (alignment 4)


** Section #14 '.comment' (SHT_PROGBITS)
    Size   : 12100 bytes


** Section #15 '.shstrtab' (SHT_STRTAB)
    Size   : 156 bytes


